; Listing generated by Microsoft (R) Optimizing Compiler Version 19.27.29111.0 

	TITLE	f:\windowsandbox\windowsandbox\src\exception.cpp
	.686P
	.XMM
	include listing.inc
	.model	flat

INCLUDELIB OLDNAMES

PUBLIC	??_C@_0BC@EOODALEL@Unknown?5exception@		; `string'
PUBLIC	??_C@_0BF@KINCDENJ@bad?5array?5new?5length@	; `string'
PUBLIC	??_C@_0BA@JFNIOLAK@string?5too?5long@		; `string'
PUBLIC	??_C@_02LMMGGCAJ@?3?5@				; `string'
PUBLIC	??_C@_00CNPNBAHC@@				; `string'
PUBLIC	??_C@_08LLGCOLLL@iostream@			; `string'
PUBLIC	??_C@_08EPJLHIJG@bad?5cast@			; `string'
PUBLIC	??_C@_0BA@ELKIONDK@bad?5locale?5name@		; `string'
PUBLIC	??_C@_05LAPONLG@false@				; `string'
PUBLIC	??_C@_04LOAJBDKD@true@				; `string'
PUBLIC	??_C@_0BF@PHHKMMFD@ios_base?3?3badbit?5set@	; `string'
PUBLIC	??_C@_0BG@FMKFHCIL@ios_base?3?3failbit?5set@	; `string'
PUBLIC	??_C@_0BF@OOHOMBOF@ios_base?3?3eofbit?5set@	; `string'
PUBLIC	??_C@_0BC@JDPAADN@Regular?5Exception@		; `string'
PUBLIC	??_C@_07OFNLNJMF@?$FLLine?$FN?5@		; `string'
PUBLIC	??_C@_07DLGLNFOL@?$FLFile?$FN?5@		; `string'
PUBLIC	??_C@_02BBAHNLBA@?$CFp@				; `string'
PUBLIC	??_C@_02CLHGNPPK@Lu@				; `string'
PUBLIC	??_C@_02HIKPPMOK@Ld@				; `string'
PUBLIC	??_C@_02BDDLJJBK@lu@				; `string'
PUBLIC	??_C@_02EAOCLKAK@ld@				; `string'
PUBLIC	??_C@_02MDKMJEGG@eE@				; `string'
PUBLIC	??_C@_02OOPEBDOJ@pP@				; `string'
PUBLIC	??_C@_01LFCBOECM@?4@				; `string'
PUBLIC	??_C@_0BI@CFPLBAOH@invalid?5string?5position@	; `string'
PUBLIC	??_R4?$basic_ostringstream@DU?$char_traits@D@std@@V?$allocator@D@2@@std@@6B@ ; std::basic_ostringstream<char,std::char_traits<char>,std::allocator<char> >::`RTTI Complete Object Locator'
PUBLIC	??_R0?AVfailure@ios_base@std@@@8		; std::ios_base::failure `RTTI Type Descriptor'
PUBLIC	??_R0?AVruntime_error@std@@@8			; std::runtime_error `RTTI Type Descriptor'
PUBLIC	??_R4exception@std@@6B@				; std::exception::`RTTI Complete Object Locator'
PUBLIC	??_R4Exception@@6B@				; Exception::`RTTI Complete Object Locator'
PUBLIC	??_7?$basic_streambuf@DU?$char_traits@D@std@@@std@@6B@ ; std::basic_streambuf<char,std::char_traits<char> >::`vftable'
PUBLIC	??_R2bad_array_new_length@std@@8		; std::bad_array_new_length::`RTTI Base Class Array'
PUBLIC	??_R2system_error@std@@8			; std::system_error::`RTTI Base Class Array'
PUBLIC	??_R4facet@locale@std@@6B@			; std::locale::facet::`RTTI Complete Object Locator'
PUBLIC	??_R1A@?0A@EA@system_error@std@@8		; std::system_error::`RTTI Base Class Descriptor at (0,-1,0,64)'
PUBLIC	??_R4?$basic_ostream@DU?$char_traits@D@std@@@std@@6B@ ; std::basic_ostream<char,std::char_traits<char> >::`RTTI Complete Object Locator'
PUBLIC	??_R0?AVbad_alloc@std@@@8			; std::bad_alloc `RTTI Type Descriptor'
PUBLIC	??_R3?$ctype@D@std@@8				; std::ctype<char>::`RTTI Class Hierarchy Descriptor'
PUBLIC	??_7?$numpunct@D@std@@6B@			; std::numpunct<char>::`vftable'
PUBLIC	??_7?$basic_ostringstream@DU?$char_traits@D@std@@V?$allocator@D@2@@std@@6B@ ; std::basic_ostringstream<char,std::char_traits<char>,std::allocator<char> >::`vftable'
PUBLIC	??_R2?$num_put@DV?$ostreambuf_iterator@DU?$char_traits@D@std@@@std@@@std@@8 ; std::num_put<char,std::ostreambuf_iterator<char,std::char_traits<char> > >::`RTTI Base Class Array'
PUBLIC	?_Iostream_error@?4??message@_Iostream_error_category2@std@@UBE?AV?$basic_string@DU?$char_traits@D@std@@V?$allocator@D@2@@3@H@Z@4QBDB ; `std::_Iostream_error_category2::message'::`5'::_Iostream_error
PUBLIC	??_R4runtime_error@std@@6B@			; std::runtime_error::`RTTI Complete Object Locator'
PUBLIC	??_R4_System_error@std@@6B@			; std::_System_error::`RTTI Complete Object Locator'
PUBLIC	??_R3_Facet_base@std@@8				; std::_Facet_base::`RTTI Class Hierarchy Descriptor'
PUBLIC	??_R1A@?0A@EA@bad_cast@std@@8			; std::bad_cast::`RTTI Base Class Descriptor at (0,-1,0,64)'
PUBLIC	??_R0?AV?$basic_stringbuf@DU?$char_traits@D@std@@V?$allocator@D@2@@std@@@8 ; std::basic_stringbuf<char,std::char_traits<char>,std::allocator<char> > `RTTI Type Descriptor'
PUBLIC	??_R2bad_alloc@std@@8				; std::bad_alloc::`RTTI Base Class Array'
PUBLIC	??_R0?AVios_base@std@@@8			; std::ios_base `RTTI Type Descriptor'
PUBLIC	?_Storage@?1???$_Immortalize_memcpy_image@V_Iostream_error_category2@std@@@std@@YAABV_Iostream_error_category2@1@XZ@4PAU?$atomic@I@1@A ; `std::_Immortalize_memcpy_image<std::_Iostream_error_category2>'::`2'::_Storage
PUBLIC	??_7ios_base@std@@6B@				; std::ios_base::`vftable'
PUBLIC	??_R0?AVerror_category@std@@@8			; std::error_category `RTTI Type Descriptor'
PUBLIC	??_R2?$basic_stringbuf@DU?$char_traits@D@std@@V?$allocator@D@2@@std@@8 ; std::basic_stringbuf<char,std::char_traits<char>,std::allocator<char> >::`RTTI Base Class Array'
PUBLIC	??_R0?AV?$ctype@D@std@@@8			; std::ctype<char> `RTTI Type Descriptor'
PUBLIC	??_R3?$basic_ostringstream@DU?$char_traits@D@std@@V?$allocator@D@2@@std@@8 ; std::basic_ostringstream<char,std::char_traits<char>,std::allocator<char> >::`RTTI Class Hierarchy Descriptor'
PUBLIC	??_R3_Crt_new_delete@std@@8			; std::_Crt_new_delete::`RTTI Class Hierarchy Descriptor'
PUBLIC	??_R1A@?0A@EA@runtime_error@std@@8		; std::runtime_error::`RTTI Base Class Descriptor at (0,-1,0,64)'
PUBLIC	??_7?$num_put@DV?$ostreambuf_iterator@DU?$char_traits@D@std@@@std@@@std@@6B@ ; std::num_put<char,std::ostreambuf_iterator<char,std::char_traits<char> > >::`vftable'
PUBLIC	??_R2_System_error@std@@8			; std::_System_error::`RTTI Base Class Array'
PUBLIC	??_R0?AVsystem_error@std@@@8			; std::system_error `RTTI Type Descriptor'
PUBLIC	??_R13?0A@EA@_Crt_new_delete@std@@8		; std::_Crt_new_delete::`RTTI Base Class Descriptor at (4,-1,0,64)'
PUBLIC	__CTA3?AVbad_array_new_length@std@@
PUBLIC	??_7bad_array_new_length@std@@6B@		; std::bad_array_new_length::`vftable'
PUBLIC	??_R17A@3EA@?$_Iosb@H@std@@8			; std::_Iosb<int>::`RTTI Base Class Descriptor at (8,0,4,64)'
PUBLIC	??_R1A@?0A@EA@exception@std@@8			; std::exception::`RTTI Base Class Descriptor at (0,-1,0,64)'
PUBLIC	??_R4ios_base@std@@6B@				; std::ios_base::`RTTI Complete Object Locator'
PUBLIC	??_R4system_error@std@@6B@			; std::system_error::`RTTI Complete Object Locator'
PUBLIC	??_R2Exception@@8				; Exception::`RTTI Base Class Array'
PUBLIC	??_R1A@?0A@EA@?$basic_streambuf@DU?$char_traits@D@std@@@std@@8 ; std::basic_streambuf<char,std::char_traits<char> >::`RTTI Base Class Descriptor at (0,-1,0,64)'
PUBLIC	??_R1A@?0A@EA@_Facet_base@std@@8		; std::_Facet_base::`RTTI Base Class Descriptor at (0,-1,0,64)'
PUBLIC	??_R1A@?0A@EA@bad_alloc@std@@8			; std::bad_alloc::`RTTI Base Class Descriptor at (0,-1,0,64)'
PUBLIC	??_R0?AV_Facet_base@std@@@8			; std::_Facet_base `RTTI Type Descriptor'
PUBLIC	??_7ctype_base@std@@6B@				; std::ctype_base::`vftable'
PUBLIC	?_OptionsStorage@?1??__local_stdio_printf_options@@9@4_KA ; `__local_stdio_printf_options'::`2'::_OptionsStorage
PUBLIC	__CT??_R0?AVbad_alloc@std@@@8??0bad_alloc@std@@QAE@ABV01@@Z12
PUBLIC	??_R3_System_error@std@@8			; std::_System_error::`RTTI Class Hierarchy Descriptor'
PUBLIC	??_R0?AU_Crt_new_delete@std@@@8			; std::_Crt_new_delete `RTTI Type Descriptor'
PUBLIC	??_R0?AV?$_Iosb@H@std@@@8			; std::_Iosb<int> `RTTI Type Descriptor'
PUBLIC	??_R0?AV_Iostream_error_category2@std@@@8	; std::_Iostream_error_category2 `RTTI Type Descriptor'
PUBLIC	__CTA2?AVbad_cast@std@@
PUBLIC	??_R0?AV?$numpunct@D@std@@@8			; std::numpunct<char> `RTTI Type Descriptor'
PUBLIC	??_R3Exception@@8				; Exception::`RTTI Class Hierarchy Descriptor'
PUBLIC	??_7bad_alloc@std@@6B@				; std::bad_alloc::`vftable'
PUBLIC	??_R0?AV?$basic_streambuf@DU?$char_traits@D@std@@@std@@@8 ; std::basic_streambuf<char,std::char_traits<char> > `RTTI Type Descriptor'
PUBLIC	??_R4?$basic_ios@DU?$char_traits@D@std@@@std@@6B@ ; std::basic_ios<char,std::char_traits<char> >::`RTTI Complete Object Locator'
PUBLIC	??_R1A@?0A@EA@?$basic_ostringstream@DU?$char_traits@D@std@@V?$allocator@D@2@@std@@8 ; std::basic_ostringstream<char,std::char_traits<char>,std::allocator<char> >::`RTTI Base Class Descriptor at (0,-1,0,64)'
PUBLIC	??_7?$basic_ios@DU?$char_traits@D@std@@@std@@6B@ ; std::basic_ios<char,std::char_traits<char> >::`vftable'
PUBLIC	??_R3?$basic_stringbuf@DU?$char_traits@D@std@@V?$allocator@D@2@@std@@8 ; std::basic_stringbuf<char,std::char_traits<char>,std::allocator<char> >::`RTTI Class Hierarchy Descriptor'
PUBLIC	??_R2bad_cast@std@@8				; std::bad_cast::`RTTI Base Class Array'
PUBLIC	??_R2exception@std@@8				; std::exception::`RTTI Base Class Array'
PUBLIC	??_R4failure@ios_base@std@@6B@			; std::ios_base::failure::`RTTI Complete Object Locator'
PUBLIC	??_R0?AV?$basic_ostringstream@DU?$char_traits@D@std@@V?$allocator@D@2@@std@@@8 ; std::basic_ostringstream<char,std::char_traits<char>,std::allocator<char> > `RTTI Type Descriptor'
PUBLIC	??_R2?$basic_ostream@DU?$char_traits@D@std@@@std@@8 ; std::basic_ostream<char,std::char_traits<char> >::`RTTI Base Class Array'
PUBLIC	??_7bad_cast@std@@6B@				; std::bad_cast::`vftable'
PUBLIC	??_R3?$basic_ios@DU?$char_traits@D@std@@@std@@8	; std::basic_ios<char,std::char_traits<char> >::`RTTI Class Hierarchy Descriptor'
PUBLIC	??_R4_Iostream_error_category2@std@@6B@		; std::_Iostream_error_category2::`RTTI Complete Object Locator'
PUBLIC	??_R2error_category@std@@8			; std::error_category::`RTTI Base Class Array'
PUBLIC	??_R1A@?0A@EA@_Iostream_error_category2@std@@8	; std::_Iostream_error_category2::`RTTI Base Class Descriptor at (0,-1,0,64)'
PUBLIC	??_R1A@?0A@EA@facet@locale@std@@8		; std::locale::facet::`RTTI Base Class Descriptor at (0,-1,0,64)'
PUBLIC	__CT??_R0?AVbad_cast@std@@@8??0bad_cast@std@@QAE@ABV01@@Z12
PUBLIC	__CT??_R0?AVsystem_error@std@@@8??0system_error@std@@QAE@ABV01@@Z20
PUBLIC	??_R0?AVbad_cast@std@@@8			; std::bad_cast `RTTI Type Descriptor'
PUBLIC	__TI2?AVbad_cast@std@@
PUBLIC	??_7?$ctype@D@std@@6B@				; std::ctype<char>::`vftable'
PUBLIC	??_R2failure@ios_base@std@@8			; std::ios_base::failure::`RTTI Base Class Array'
PUBLIC	??_7?$basic_stringbuf@DU?$char_traits@D@std@@V?$allocator@D@2@@std@@6B@ ; std::basic_stringbuf<char,std::char_traits<char>,std::allocator<char> >::`vftable'
PUBLIC	??_R0?AUctype_base@std@@@8			; std::ctype_base `RTTI Type Descriptor'
PUBLIC	??_R1A@?0A@EA@Exception@@8			; Exception::`RTTI Base Class Descriptor at (0,-1,0,64)'
PUBLIC	??_R3failure@ios_base@std@@8			; std::ios_base::failure::`RTTI Class Hierarchy Descriptor'
PUBLIC	??_7Exception@@6B@				; Exception::`vftable'
PUBLIC	??_7facet@locale@std@@6B@			; std::locale::facet::`vftable'
PUBLIC	??_7exception@std@@6B@				; std::exception::`vftable'
PUBLIC	??_R2?$ctype@D@std@@8				; std::ctype<char>::`RTTI Base Class Array'
PUBLIC	??_7_Iostream_error_category2@std@@6B@		; std::_Iostream_error_category2::`vftable'
PUBLIC	__CT??_R0?AVruntime_error@std@@@8??0runtime_error@std@@QAE@ABV01@@Z12
PUBLIC	??_R1A@?0A@EA@ios_base@std@@8			; std::ios_base::`RTTI Base Class Descriptor at (0,-1,0,64)'
PUBLIC	??_R3exception@std@@8				; std::exception::`RTTI Class Hierarchy Descriptor'
PUBLIC	__TI5?AVfailure@ios_base@std@@
PUBLIC	??_R1A@?0A@EA@?$basic_ostream@DU?$char_traits@D@std@@@std@@8 ; std::basic_ostream<char,std::char_traits<char> >::`RTTI Base Class Descriptor at (0,-1,0,64)'
PUBLIC	??_7runtime_error@std@@6B@			; std::runtime_error::`vftable'
PUBLIC	??_R0?AV?$basic_ios@DU?$char_traits@D@std@@@std@@@8 ; std::basic_ios<char,std::char_traits<char> > `RTTI Type Descriptor'
PUBLIC	??_7_System_error@std@@6B@			; std::_System_error::`vftable'
PUBLIC	??_R1A@?0A@EA@failure@ios_base@std@@8		; std::ios_base::failure::`RTTI Base Class Descriptor at (0,-1,0,64)'
PUBLIC	??_R2?$numpunct@D@std@@8			; std::numpunct<char>::`RTTI Base Class Array'
PUBLIC	??_R2?$basic_streambuf@DU?$char_traits@D@std@@@std@@8 ; std::basic_streambuf<char,std::char_traits<char> >::`RTTI Base Class Array'
PUBLIC	??_R1A@?0A@EA@?$_Iosb@H@std@@8			; std::_Iosb<int>::`RTTI Base Class Descriptor at (0,-1,0,64)'
PUBLIC	??_R0?AVfacet@locale@std@@@8			; std::locale::facet `RTTI Type Descriptor'
PUBLIC	??_R3facet@locale@std@@8			; std::locale::facet::`RTTI Class Hierarchy Descriptor'
PUBLIC	??_R1A@?0A@EA@?$basic_stringbuf@DU?$char_traits@D@std@@V?$allocator@D@2@@std@@8 ; std::basic_stringbuf<char,std::char_traits<char>,std::allocator<char> >::`RTTI Base Class Descriptor at (0,-1,0,64)'
PUBLIC	??_R3ctype_base@std@@8				; std::ctype_base::`RTTI Class Hierarchy Descriptor'
PUBLIC	??_8?$basic_ostream@DU?$char_traits@D@std@@@std@@7B@ ; std::basic_ostream<char,std::char_traits<char> >::`vbtable'
PUBLIC	?_Psave@?$_Facetptr@V?$numpunct@D@std@@@std@@2PBVfacet@locale@2@B ; std::_Facetptr<std::numpunct<char> >::_Psave
PUBLIC	?_Psave@?$_Facetptr@V?$num_put@DV?$ostreambuf_iterator@DU?$char_traits@D@std@@@std@@@std@@@std@@2PBVfacet@locale@2@B ; std::_Facetptr<std::num_put<char,std::ostreambuf_iterator<char,std::char_traits<char> > > >::_Psave
PUBLIC	?_Psave@?$_Facetptr@V?$ctype@D@std@@@std@@2PBVfacet@locale@2@B ; std::_Facetptr<std::ctype<char> >::_Psave
PUBLIC	??_R1A@?0A@EA@_System_error@std@@8		; std::_System_error::`RTTI Base Class Descriptor at (0,-1,0,64)'
PUBLIC	??_R3bad_cast@std@@8				; std::bad_cast::`RTTI Class Hierarchy Descriptor'
PUBLIC	??_R3error_category@std@@8			; std::error_category::`RTTI Class Hierarchy Descriptor'
PUBLIC	??_R4bad_alloc@std@@6B@				; std::bad_alloc::`RTTI Complete Object Locator'
PUBLIC	??_R4ctype_base@std@@6B@			; std::ctype_base::`RTTI Complete Object Locator'
PUBLIC	??_R4bad_cast@std@@6B@				; std::bad_cast::`RTTI Complete Object Locator'
PUBLIC	??_R1A@?0A@EA@_Crt_new_delete@std@@8		; std::_Crt_new_delete::`RTTI Base Class Descriptor at (0,-1,0,64)'
PUBLIC	??_8?$basic_ostringstream@DU?$char_traits@D@std@@V?$allocator@D@2@@std@@7B@ ; std::basic_ostringstream<char,std::char_traits<char>,std::allocator<char> >::`vbtable'
PUBLIC	??_R3bad_array_new_length@std@@8		; std::bad_array_new_length::`RTTI Class Hierarchy Descriptor'
PUBLIC	??_R4?$basic_stringbuf@DU?$char_traits@D@std@@V?$allocator@D@2@@std@@6B@ ; std::basic_stringbuf<char,std::char_traits<char>,std::allocator<char> >::`RTTI Complete Object Locator'
PUBLIC	??_R3bad_alloc@std@@8				; std::bad_alloc::`RTTI Class Hierarchy Descriptor'
PUBLIC	__CT??_R0?AVexception@std@@@8??0exception@std@@QAE@ABV01@@Z12
PUBLIC	??_R4_Facet_base@std@@6B@			; std::_Facet_base::`RTTI Complete Object Locator'
PUBLIC	??_R3?$numpunct@D@std@@8			; std::numpunct<char>::`RTTI Class Hierarchy Descriptor'
PUBLIC	??_R3_Iostream_error_category2@std@@8		; std::_Iostream_error_category2::`RTTI Class Hierarchy Descriptor'
PUBLIC	??_R4?$numpunct@D@std@@6B@			; std::numpunct<char>::`RTTI Complete Object Locator'
PUBLIC	??_R2runtime_error@std@@8			; std::runtime_error::`RTTI Base Class Array'
PUBLIC	??_R1A@A@3FA@?$basic_ios@DU?$char_traits@D@std@@@std@@8 ; std::basic_ios<char,std::char_traits<char> >::`RTTI Base Class Descriptor at (0,0,4,80)'
PUBLIC	??_R4bad_array_new_length@std@@6B@		; std::bad_array_new_length::`RTTI Complete Object Locator'
PUBLIC	__CTA5?AVfailure@ios_base@std@@
PUBLIC	??_7_Facet_base@std@@6B@			; std::_Facet_base::`vftable'
PUBLIC	??_R1A@?0A@EA@?$num_put@DV?$ostreambuf_iterator@DU?$char_traits@D@std@@@std@@@std@@8 ; std::num_put<char,std::ostreambuf_iterator<char,std::char_traits<char> > >::`RTTI Base Class Descriptor at (0,-1,0,64)'
PUBLIC	??_R0?AV?$basic_ostream@DU?$char_traits@D@std@@@std@@@8 ; std::basic_ostream<char,std::char_traits<char> > `RTTI Type Descriptor'
PUBLIC	??_R4?$basic_streambuf@DU?$char_traits@D@std@@@std@@6B@ ; std::basic_streambuf<char,std::char_traits<char> >::`RTTI Complete Object Locator'
PUBLIC	??_R2ios_base@std@@8				; std::ios_base::`RTTI Base Class Array'
PUBLIC	??_R3?$basic_ostream@DU?$char_traits@D@std@@@std@@8 ; std::basic_ostream<char,std::char_traits<char> >::`RTTI Class Hierarchy Descriptor'
PUBLIC	??_R1A@?0A@EA@ctype_base@std@@8			; std::ctype_base::`RTTI Base Class Descriptor at (0,-1,0,64)'
PUBLIC	??_R1A@?0A@EA@?$numpunct@D@std@@8		; std::numpunct<char>::`RTTI Base Class Descriptor at (0,-1,0,64)'
PUBLIC	??_R0?AV_System_error@std@@@8			; std::_System_error `RTTI Type Descriptor'
PUBLIC	??_R2_Iostream_error_category2@std@@8		; std::_Iostream_error_category2::`RTTI Base Class Array'
PUBLIC	??_R2_Crt_new_delete@std@@8			; std::_Crt_new_delete::`RTTI Base Class Array'
PUBLIC	??_R0?AVException@@@8				; Exception `RTTI Type Descriptor'
PUBLIC	??_R1A@?0A@EA@?$ctype@D@std@@8			; std::ctype<char>::`RTTI Base Class Descriptor at (0,-1,0,64)'
PUBLIC	??_R3ios_base@std@@8				; std::ios_base::`RTTI Class Hierarchy Descriptor'
PUBLIC	??_R3?$basic_streambuf@DU?$char_traits@D@std@@@std@@8 ; std::basic_streambuf<char,std::char_traits<char> >::`RTTI Class Hierarchy Descriptor'
PUBLIC	??_R1A@?0A@EA@bad_array_new_length@std@@8	; std::bad_array_new_length::`RTTI Base Class Descriptor at (0,-1,0,64)'
PUBLIC	??_R2?$_Iosb@H@std@@8				; std::_Iosb<int>::`RTTI Base Class Array'
PUBLIC	??_R3system_error@std@@8			; std::system_error::`RTTI Class Hierarchy Descriptor'
PUBLIC	??_R1A@A@3EA@ios_base@std@@8			; std::ios_base::`RTTI Base Class Descriptor at (0,0,4,64)'
PUBLIC	??_R1A@?0A@EA@?$basic_ios@DU?$char_traits@D@std@@@std@@8 ; std::basic_ios<char,std::char_traits<char> >::`RTTI Base Class Descriptor at (0,-1,0,64)'
PUBLIC	__TI3?AVbad_array_new_length@std@@
PUBLIC	__CT??_R0?AVbad_array_new_length@std@@@8??0bad_array_new_length@std@@QAE@ABV01@@Z12
PUBLIC	??_7?$basic_ostream@DU?$char_traits@D@std@@@std@@6B@ ; std::basic_ostream<char,std::char_traits<char> >::`vftable'
PUBLIC	__CT??_R0?AV_System_error@std@@@8??0_System_error@std@@QAE@ABV01@@Z20
PUBLIC	??_R3?$_Iosb@H@std@@8				; std::_Iosb<int>::`RTTI Class Hierarchy Descriptor'
PUBLIC	??_R2_Facet_base@std@@8				; std::_Facet_base::`RTTI Base Class Array'
PUBLIC	??_R2facet@locale@std@@8			; std::locale::facet::`RTTI Base Class Array'
PUBLIC	??_R0?AVexception@std@@@8			; std::exception `RTTI Type Descriptor'
PUBLIC	??_R17?0A@EA@?$_Iosb@H@std@@8			; std::_Iosb<int>::`RTTI Base Class Descriptor at (8,-1,0,64)'
PUBLIC	??_R4?$ctype@D@std@@6B@				; std::ctype<char>::`RTTI Complete Object Locator'
PUBLIC	??_R0?AV?$num_put@DV?$ostreambuf_iterator@DU?$char_traits@D@std@@@std@@@std@@@8 ; std::num_put<char,std::ostreambuf_iterator<char,std::char_traits<char> > > `RTTI Type Descriptor'
PUBLIC	??_7system_error@std@@6B@			; std::system_error::`vftable'
PUBLIC	??_R3runtime_error@std@@8			; std::runtime_error::`RTTI Class Hierarchy Descriptor'
PUBLIC	??_R2?$basic_ios@DU?$char_traits@D@std@@@std@@8	; std::basic_ios<char,std::char_traits<char> >::`RTTI Base Class Array'
PUBLIC	??_R0?AVbad_array_new_length@std@@@8		; std::bad_array_new_length `RTTI Type Descriptor'
PUBLIC	??_R2ctype_base@std@@8				; std::ctype_base::`RTTI Base Class Array'
PUBLIC	??_7failure@ios_base@std@@6B@			; std::ios_base::failure::`vftable'
PUBLIC	??_R2?$basic_ostringstream@DU?$char_traits@D@std@@V?$allocator@D@2@@std@@8 ; std::basic_ostringstream<char,std::char_traits<char>,std::allocator<char> >::`RTTI Base Class Array'
PUBLIC	??_R4?$num_put@DV?$ostreambuf_iterator@DU?$char_traits@D@std@@@std@@@std@@6B@ ; std::num_put<char,std::ostreambuf_iterator<char,std::char_traits<char> > >::`RTTI Complete Object Locator'
PUBLIC	??_R3?$num_put@DV?$ostreambuf_iterator@DU?$char_traits@D@std@@@std@@@std@@8 ; std::num_put<char,std::ostreambuf_iterator<char,std::char_traits<char> > >::`RTTI Class Hierarchy Descriptor'
PUBLIC	__CT??_R0?AVfailure@ios_base@std@@@8??0failure@ios_base@std@@QAE@ABV012@@Z20
PUBLIC	??_R1A@?0A@EA@error_category@std@@8		; std::error_category::`RTTI Base Class Descriptor at (0,-1,0,64)'
EXTRN	__invalid_parameter_noinfo_noreturn:PROC
EXTRN	??_7type_info@@6B@:QWORD			; type_info::`vftable'
EXTRN	_frexp:PROC
EXTRN	_free:PROC
EXTRN	__Toupper:PROC
EXTRN	__Getcvt:PROC
EXTRN	_localeconv:PROC
EXTRN	__purecall:PROC
EXTRN	__Tolower:PROC
EXTRN	??3@YAXPAXI@Z:PROC				; operator delete
EXTRN	__Getctype:PROC
EXTRN	___stdio_common_vsprintf_s:PROC
EXTRN	_strcspn:PROC
EXTRN	___std_exception_copy:PROC
EXTRN	?_Syserror_map@std@@YAPBDH@Z:PROC		; std::_Syserror_map
EXTRN	?_Xlength_error@std@@YAXPBD@Z:PROC		; std::_Xlength_error
EXTRN	?id@?$ctype@D@std@@2V0locale@2@A:DWORD		; std::ctype<char>::id
EXTRN	?_Facet_Register@std@@YAXPAV_Facet_base@1@@Z:PROC ; std::_Facet_Register
EXTRN	?_Addstd@ios_base@std@@SAXPAV12@@Z:PROC		; std::ios_base::_Addstd
EXTRN	?_Ios_base_dtor@ios_base@std@@CAXPAV12@@Z:PROC	; std::ios_base::_Ios_base_dtor
EXTRN	?_Xout_of_range@std@@YAXPBD@Z:PROC		; std::_Xout_of_range
EXTRN	?_Id_cnt@id@locale@std@@0HA:DWORD		; std::locale::id::_Id_cnt
EXTRN	?_Locinfo_ctor@_Locinfo@std@@SAXPAV12@PBD@Z:PROC ; std::_Locinfo::_Locinfo_ctor
EXTRN	?_Locinfo_dtor@_Locinfo@std@@SAXPAV12@@Z:PROC	; std::_Locinfo::_Locinfo_dtor
EXTRN	?_Xbad_alloc@std@@YAXXZ:PROC			; std::_Xbad_alloc
EXTRN	?uncaught_exception@std@@YA_NXZ:PROC		; std::uncaught_exception
EXTRN	?_Init@locale@std@@CAPAV_Locimp@12@_N@Z:PROC	; std::locale::_Init
EXTRN	?_Getgloballocale@locale@std@@CAPAV_Locimp@12@XZ:PROC ; std::locale::_Getgloballocale
EXTRN	?_Xruntime_error@std@@YAXPBD@Z:PROC		; std::_Xruntime_error
EXTRN	??0_Lockit@std@@QAE@H@Z:PROC			; std::_Lockit::_Lockit
EXTRN	??1_Lockit@std@@QAE@XZ:PROC			; std::_Lockit::~_Lockit
EXTRN	??2@YAPAXI@Z:PROC				; operator new
EXTRN	_calloc:PROC
EXTRN	??_V@YAXPAX@Z:PROC				; operator delete[]
EXTRN	___std_exception_destroy:PROC
;	COMDAT ?_Storage@?1???$_Immortalize_memcpy_image@V_Iostream_error_category2@std@@@std@@YAABV_Iostream_error_category2@1@XZ@4PAU?$atomic@I@1@A
_BSS	SEGMENT
?_Storage@?1???$_Immortalize_memcpy_image@V_Iostream_error_category2@std@@@std@@YAABV_Iostream_error_category2@1@XZ@4PAU?$atomic@I@1@A DD 02H DUP (?) ; `std::_Immortalize_memcpy_image<std::_Iostream_error_category2>'::`2'::_Storage
_BSS	ENDS
;	COMDAT ?_OptionsStorage@?1??__local_stdio_printf_options@@9@4_KA
_BSS	SEGMENT
?_OptionsStorage@?1??__local_stdio_printf_options@@9@4_KA DQ 01H DUP (?) ; `__local_stdio_printf_options'::`2'::_OptionsStorage
_BSS	ENDS
;	COMDAT ?_Psave@?$_Facetptr@V?$numpunct@D@std@@@std@@2PBVfacet@locale@2@B
_BSS	SEGMENT
?_Psave@?$_Facetptr@V?$numpunct@D@std@@@std@@2PBVfacet@locale@2@B DD 01H DUP (?) ; std::_Facetptr<std::numpunct<char> >::_Psave
_BSS	ENDS
;	COMDAT ?_Psave@?$_Facetptr@V?$num_put@DV?$ostreambuf_iterator@DU?$char_traits@D@std@@@std@@@std@@@std@@2PBVfacet@locale@2@B
_BSS	SEGMENT
?_Psave@?$_Facetptr@V?$num_put@DV?$ostreambuf_iterator@DU?$char_traits@D@std@@@std@@@std@@@std@@2PBVfacet@locale@2@B DD 01H DUP (?) ; std::_Facetptr<std::num_put<char,std::ostreambuf_iterator<char,std::char_traits<char> > > >::_Psave
_BSS	ENDS
;	COMDAT ?_Psave@?$_Facetptr@V?$ctype@D@std@@@std@@2PBVfacet@locale@2@B
_BSS	SEGMENT
?_Psave@?$_Facetptr@V?$ctype@D@std@@@std@@2PBVfacet@locale@2@B DD 01H DUP (?) ; std::_Facetptr<std::ctype<char> >::_Psave
_BSS	ENDS
;	COMDAT ??_R1A@?0A@EA@error_category@std@@8
rdata$r	SEGMENT
??_R1A@?0A@EA@error_category@std@@8 DD FLAT:??_R0?AVerror_category@std@@@8 ; std::error_category::`RTTI Base Class Descriptor at (0,-1,0,64)'
	DD	00H
	DD	00H
	DD	0ffffffffH
	DD	00H
	DD	040H
	DD	FLAT:??_R3error_category@std@@8
rdata$r	ENDS
;	COMDAT __CT??_R0?AVfailure@ios_base@std@@@8??0failure@ios_base@std@@QAE@ABV012@@Z20
xdata$x	SEGMENT
__CT??_R0?AVfailure@ios_base@std@@@8??0failure@ios_base@std@@QAE@ABV012@@Z20 DD 00H
	DD	FLAT:??_R0?AVfailure@ios_base@std@@@8
	DD	00H
	DD	0ffffffffH
	ORG $+4
	DD	014H
	DD	FLAT:??0failure@ios_base@std@@QAE@ABV012@@Z
xdata$x	ENDS
;	COMDAT ??_R3?$num_put@DV?$ostreambuf_iterator@DU?$char_traits@D@std@@@std@@@std@@8
rdata$r	SEGMENT
??_R3?$num_put@DV?$ostreambuf_iterator@DU?$char_traits@D@std@@@std@@@std@@8 DD 00H ; std::num_put<char,std::ostreambuf_iterator<char,std::char_traits<char> > >::`RTTI Class Hierarchy Descriptor'
	DD	01H
	DD	04H
	DD	FLAT:??_R2?$num_put@DV?$ostreambuf_iterator@DU?$char_traits@D@std@@@std@@@std@@8
rdata$r	ENDS
;	COMDAT ??_R4?$num_put@DV?$ostreambuf_iterator@DU?$char_traits@D@std@@@std@@@std@@6B@
rdata$r	SEGMENT
??_R4?$num_put@DV?$ostreambuf_iterator@DU?$char_traits@D@std@@@std@@@std@@6B@ DD 00H ; std::num_put<char,std::ostreambuf_iterator<char,std::char_traits<char> > >::`RTTI Complete Object Locator'
	DD	00H
	DD	00H
	DD	FLAT:??_R0?AV?$num_put@DV?$ostreambuf_iterator@DU?$char_traits@D@std@@@std@@@std@@@8
	DD	FLAT:??_R3?$num_put@DV?$ostreambuf_iterator@DU?$char_traits@D@std@@@std@@@std@@8
rdata$r	ENDS
;	COMDAT ??_R2?$basic_ostringstream@DU?$char_traits@D@std@@V?$allocator@D@2@@std@@8
rdata$r	SEGMENT
??_R2?$basic_ostringstream@DU?$char_traits@D@std@@V?$allocator@D@2@@std@@8 DD FLAT:??_R1A@?0A@EA@?$basic_ostringstream@DU?$char_traits@D@std@@V?$allocator@D@2@@std@@8 ; std::basic_ostringstream<char,std::char_traits<char>,std::allocator<char> >::`RTTI Base Class Array'
	DD	FLAT:??_R1A@?0A@EA@?$basic_ostream@DU?$char_traits@D@std@@@std@@8
	DD	FLAT:??_R1A@A@3FA@?$basic_ios@DU?$char_traits@D@std@@@std@@8
	DD	FLAT:??_R1A@A@3EA@ios_base@std@@8
	DD	FLAT:??_R17A@3EA@?$_Iosb@H@std@@8
rdata$r	ENDS
;	COMDAT ??_7failure@ios_base@std@@6B@
CONST	SEGMENT
??_7failure@ios_base@std@@6B@ DD FLAT:??_R4failure@ios_base@std@@6B@ ; std::ios_base::failure::`vftable'
	DD	FLAT:??_Efailure@ios_base@std@@UAEPAXI@Z
	DD	FLAT:?what@exception@std@@UBEPBDXZ
CONST	ENDS
;	COMDAT ??_R2ctype_base@std@@8
rdata$r	SEGMENT
??_R2ctype_base@std@@8 DD FLAT:??_R1A@?0A@EA@ctype_base@std@@8 ; std::ctype_base::`RTTI Base Class Array'
	DD	FLAT:??_R1A@?0A@EA@facet@locale@std@@8
	DD	FLAT:??_R1A@?0A@EA@_Facet_base@std@@8
	DD	FLAT:??_R13?0A@EA@_Crt_new_delete@std@@8
rdata$r	ENDS
;	COMDAT ??_R0?AVbad_array_new_length@std@@@8
data$r	SEGMENT
??_R0?AVbad_array_new_length@std@@@8 DD FLAT:??_7type_info@@6B@ ; std::bad_array_new_length `RTTI Type Descriptor'
	DD	00H
	DB	'.?AVbad_array_new_length@std@@', 00H
data$r	ENDS
;	COMDAT ??_R2?$basic_ios@DU?$char_traits@D@std@@@std@@8
rdata$r	SEGMENT
??_R2?$basic_ios@DU?$char_traits@D@std@@@std@@8 DD FLAT:??_R1A@?0A@EA@?$basic_ios@DU?$char_traits@D@std@@@std@@8 ; std::basic_ios<char,std::char_traits<char> >::`RTTI Base Class Array'
	DD	FLAT:??_R1A@?0A@EA@ios_base@std@@8
	DD	FLAT:??_R17?0A@EA@?$_Iosb@H@std@@8
rdata$r	ENDS
;	COMDAT ??_R3runtime_error@std@@8
rdata$r	SEGMENT
??_R3runtime_error@std@@8 DD 00H			; std::runtime_error::`RTTI Class Hierarchy Descriptor'
	DD	00H
	DD	02H
	DD	FLAT:??_R2runtime_error@std@@8
rdata$r	ENDS
;	COMDAT ??_7system_error@std@@6B@
CONST	SEGMENT
??_7system_error@std@@6B@ DD FLAT:??_R4system_error@std@@6B@ ; std::system_error::`vftable'
	DD	FLAT:??_Esystem_error@std@@UAEPAXI@Z
	DD	FLAT:?what@exception@std@@UBEPBDXZ
CONST	ENDS
;	COMDAT ??_R0?AV?$num_put@DV?$ostreambuf_iterator@DU?$char_traits@D@std@@@std@@@std@@@8
data$r	SEGMENT
??_R0?AV?$num_put@DV?$ostreambuf_iterator@DU?$char_traits@D@std@@@std@@@std@@@8 DD FLAT:??_7type_info@@6B@ ; std::num_put<char,std::ostreambuf_iterator<char,std::char_traits<char> > > `RTTI Type Descriptor'
	DD	00H
	DB	'.?AV?$num_put@DV?$ostreambuf_iterator@DU?$char_traits@D@'
	DB	'std@@@std@@@std@@', 00H
data$r	ENDS
;	COMDAT ??_R4?$ctype@D@std@@6B@
rdata$r	SEGMENT
??_R4?$ctype@D@std@@6B@ DD 00H				; std::ctype<char>::`RTTI Complete Object Locator'
	DD	00H
	DD	00H
	DD	FLAT:??_R0?AV?$ctype@D@std@@@8
	DD	FLAT:??_R3?$ctype@D@std@@8
rdata$r	ENDS
;	COMDAT ??_R17?0A@EA@?$_Iosb@H@std@@8
rdata$r	SEGMENT
??_R17?0A@EA@?$_Iosb@H@std@@8 DD FLAT:??_R0?AV?$_Iosb@H@std@@@8 ; std::_Iosb<int>::`RTTI Base Class Descriptor at (8,-1,0,64)'
	DD	00H
	DD	08H
	DD	0ffffffffH
	DD	00H
	DD	040H
	DD	FLAT:??_R3?$_Iosb@H@std@@8
rdata$r	ENDS
;	COMDAT ??_R0?AVexception@std@@@8
data$r	SEGMENT
??_R0?AVexception@std@@@8 DD FLAT:??_7type_info@@6B@	; std::exception `RTTI Type Descriptor'
	DD	00H
	DB	'.?AVexception@std@@', 00H
data$r	ENDS
;	COMDAT ??_R2facet@locale@std@@8
rdata$r	SEGMENT
??_R2facet@locale@std@@8 DD FLAT:??_R1A@?0A@EA@facet@locale@std@@8 ; std::locale::facet::`RTTI Base Class Array'
	DD	FLAT:??_R1A@?0A@EA@_Facet_base@std@@8
	DD	FLAT:??_R13?0A@EA@_Crt_new_delete@std@@8
rdata$r	ENDS
;	COMDAT ??_R2_Facet_base@std@@8
rdata$r	SEGMENT
??_R2_Facet_base@std@@8 DD FLAT:??_R1A@?0A@EA@_Facet_base@std@@8 ; std::_Facet_base::`RTTI Base Class Array'
rdata$r	ENDS
;	COMDAT ??_R3?$_Iosb@H@std@@8
rdata$r	SEGMENT
??_R3?$_Iosb@H@std@@8 DD 00H				; std::_Iosb<int>::`RTTI Class Hierarchy Descriptor'
	DD	00H
	DD	01H
	DD	FLAT:??_R2?$_Iosb@H@std@@8
rdata$r	ENDS
;	COMDAT __CT??_R0?AV_System_error@std@@@8??0_System_error@std@@QAE@ABV01@@Z20
xdata$x	SEGMENT
__CT??_R0?AV_System_error@std@@@8??0_System_error@std@@QAE@ABV01@@Z20 DD 00H
	DD	FLAT:??_R0?AV_System_error@std@@@8
	DD	00H
	DD	0ffffffffH
	ORG $+4
	DD	014H
	DD	FLAT:??0_System_error@std@@QAE@ABV01@@Z
xdata$x	ENDS
;	COMDAT ??_7?$basic_ostream@DU?$char_traits@D@std@@@std@@6B@
CONST	SEGMENT
??_7?$basic_ostream@DU?$char_traits@D@std@@@std@@6B@ DD FLAT:??_R4?$basic_ostream@DU?$char_traits@D@std@@@std@@6B@ ; std::basic_ostream<char,std::char_traits<char> >::`vftable'
	DD	FLAT:??_E?$basic_ostream@DU?$char_traits@D@std@@@std@@$4PPPPPPPM@A@AEPAXI@Z
CONST	ENDS
;	COMDAT __CT??_R0?AVbad_array_new_length@std@@@8??0bad_array_new_length@std@@QAE@ABV01@@Z12
xdata$x	SEGMENT
__CT??_R0?AVbad_array_new_length@std@@@8??0bad_array_new_length@std@@QAE@ABV01@@Z12 DD 00H
	DD	FLAT:??_R0?AVbad_array_new_length@std@@@8
	DD	00H
	DD	0ffffffffH
	ORG $+4
	DD	0cH
	DD	FLAT:??0bad_array_new_length@std@@QAE@ABV01@@Z
xdata$x	ENDS
;	COMDAT __TI3?AVbad_array_new_length@std@@
xdata$x	SEGMENT
__TI3?AVbad_array_new_length@std@@ DD 00H
	DD	FLAT:??1bad_array_new_length@std@@UAE@XZ
	DD	00H
	DD	FLAT:__CTA3?AVbad_array_new_length@std@@
xdata$x	ENDS
;	COMDAT ??_R1A@?0A@EA@?$basic_ios@DU?$char_traits@D@std@@@std@@8
rdata$r	SEGMENT
??_R1A@?0A@EA@?$basic_ios@DU?$char_traits@D@std@@@std@@8 DD FLAT:??_R0?AV?$basic_ios@DU?$char_traits@D@std@@@std@@@8 ; std::basic_ios<char,std::char_traits<char> >::`RTTI Base Class Descriptor at (0,-1,0,64)'
	DD	02H
	DD	00H
	DD	0ffffffffH
	DD	00H
	DD	040H
	DD	FLAT:??_R3?$basic_ios@DU?$char_traits@D@std@@@std@@8
rdata$r	ENDS
;	COMDAT ??_R1A@A@3EA@ios_base@std@@8
rdata$r	SEGMENT
??_R1A@A@3EA@ios_base@std@@8 DD FLAT:??_R0?AVios_base@std@@@8 ; std::ios_base::`RTTI Base Class Descriptor at (0,0,4,64)'
	DD	01H
	DD	00H
	DD	00H
	DD	04H
	DD	040H
	DD	FLAT:??_R3ios_base@std@@8
rdata$r	ENDS
;	COMDAT ??_R3system_error@std@@8
rdata$r	SEGMENT
??_R3system_error@std@@8 DD 00H				; std::system_error::`RTTI Class Hierarchy Descriptor'
	DD	00H
	DD	04H
	DD	FLAT:??_R2system_error@std@@8
rdata$r	ENDS
;	COMDAT ??_R2?$_Iosb@H@std@@8
rdata$r	SEGMENT
??_R2?$_Iosb@H@std@@8 DD FLAT:??_R1A@?0A@EA@?$_Iosb@H@std@@8 ; std::_Iosb<int>::`RTTI Base Class Array'
rdata$r	ENDS
;	COMDAT ??_R1A@?0A@EA@bad_array_new_length@std@@8
rdata$r	SEGMENT
??_R1A@?0A@EA@bad_array_new_length@std@@8 DD FLAT:??_R0?AVbad_array_new_length@std@@@8 ; std::bad_array_new_length::`RTTI Base Class Descriptor at (0,-1,0,64)'
	DD	02H
	DD	00H
	DD	0ffffffffH
	DD	00H
	DD	040H
	DD	FLAT:??_R3bad_array_new_length@std@@8
rdata$r	ENDS
;	COMDAT ??_R3?$basic_streambuf@DU?$char_traits@D@std@@@std@@8
rdata$r	SEGMENT
??_R3?$basic_streambuf@DU?$char_traits@D@std@@@std@@8 DD 00H ; std::basic_streambuf<char,std::char_traits<char> >::`RTTI Class Hierarchy Descriptor'
	DD	00H
	DD	01H
	DD	FLAT:??_R2?$basic_streambuf@DU?$char_traits@D@std@@@std@@8
rdata$r	ENDS
;	COMDAT ??_R3ios_base@std@@8
rdata$r	SEGMENT
??_R3ios_base@std@@8 DD 00H				; std::ios_base::`RTTI Class Hierarchy Descriptor'
	DD	00H
	DD	02H
	DD	FLAT:??_R2ios_base@std@@8
rdata$r	ENDS
;	COMDAT ??_R1A@?0A@EA@?$ctype@D@std@@8
rdata$r	SEGMENT
??_R1A@?0A@EA@?$ctype@D@std@@8 DD FLAT:??_R0?AV?$ctype@D@std@@@8 ; std::ctype<char>::`RTTI Base Class Descriptor at (0,-1,0,64)'
	DD	04H
	DD	00H
	DD	0ffffffffH
	DD	00H
	DD	040H
	DD	FLAT:??_R3?$ctype@D@std@@8
rdata$r	ENDS
;	COMDAT ??_R0?AVException@@@8
data$r	SEGMENT
??_R0?AVException@@@8 DD FLAT:??_7type_info@@6B@	; Exception `RTTI Type Descriptor'
	DD	00H
	DB	'.?AVException@@', 00H
data$r	ENDS
;	COMDAT ??_R2_Crt_new_delete@std@@8
rdata$r	SEGMENT
??_R2_Crt_new_delete@std@@8 DD FLAT:??_R1A@?0A@EA@_Crt_new_delete@std@@8 ; std::_Crt_new_delete::`RTTI Base Class Array'
rdata$r	ENDS
;	COMDAT ??_R2_Iostream_error_category2@std@@8
rdata$r	SEGMENT
??_R2_Iostream_error_category2@std@@8 DD FLAT:??_R1A@?0A@EA@_Iostream_error_category2@std@@8 ; std::_Iostream_error_category2::`RTTI Base Class Array'
	DD	FLAT:??_R1A@?0A@EA@error_category@std@@8
rdata$r	ENDS
;	COMDAT ??_R0?AV_System_error@std@@@8
data$r	SEGMENT
??_R0?AV_System_error@std@@@8 DD FLAT:??_7type_info@@6B@ ; std::_System_error `RTTI Type Descriptor'
	DD	00H
	DB	'.?AV_System_error@std@@', 00H
data$r	ENDS
;	COMDAT ??_R1A@?0A@EA@?$numpunct@D@std@@8
rdata$r	SEGMENT
??_R1A@?0A@EA@?$numpunct@D@std@@8 DD FLAT:??_R0?AV?$numpunct@D@std@@@8 ; std::numpunct<char>::`RTTI Base Class Descriptor at (0,-1,0,64)'
	DD	03H
	DD	00H
	DD	0ffffffffH
	DD	00H
	DD	040H
	DD	FLAT:??_R3?$numpunct@D@std@@8
rdata$r	ENDS
;	COMDAT ??_R1A@?0A@EA@ctype_base@std@@8
rdata$r	SEGMENT
??_R1A@?0A@EA@ctype_base@std@@8 DD FLAT:??_R0?AUctype_base@std@@@8 ; std::ctype_base::`RTTI Base Class Descriptor at (0,-1,0,64)'
	DD	03H
	DD	00H
	DD	0ffffffffH
	DD	00H
	DD	040H
	DD	FLAT:??_R3ctype_base@std@@8
rdata$r	ENDS
;	COMDAT ??_R3?$basic_ostream@DU?$char_traits@D@std@@@std@@8
rdata$r	SEGMENT
??_R3?$basic_ostream@DU?$char_traits@D@std@@@std@@8 DD 00H ; std::basic_ostream<char,std::char_traits<char> >::`RTTI Class Hierarchy Descriptor'
	DD	00H
	DD	04H
	DD	FLAT:??_R2?$basic_ostream@DU?$char_traits@D@std@@@std@@8
rdata$r	ENDS
;	COMDAT ??_R2ios_base@std@@8
rdata$r	SEGMENT
??_R2ios_base@std@@8 DD FLAT:??_R1A@?0A@EA@ios_base@std@@8 ; std::ios_base::`RTTI Base Class Array'
	DD	FLAT:??_R17?0A@EA@?$_Iosb@H@std@@8
rdata$r	ENDS
;	COMDAT ??_R4?$basic_streambuf@DU?$char_traits@D@std@@@std@@6B@
rdata$r	SEGMENT
??_R4?$basic_streambuf@DU?$char_traits@D@std@@@std@@6B@ DD 00H ; std::basic_streambuf<char,std::char_traits<char> >::`RTTI Complete Object Locator'
	DD	00H
	DD	00H
	DD	FLAT:??_R0?AV?$basic_streambuf@DU?$char_traits@D@std@@@std@@@8
	DD	FLAT:??_R3?$basic_streambuf@DU?$char_traits@D@std@@@std@@8
rdata$r	ENDS
;	COMDAT ??_R0?AV?$basic_ostream@DU?$char_traits@D@std@@@std@@@8
data$r	SEGMENT
??_R0?AV?$basic_ostream@DU?$char_traits@D@std@@@std@@@8 DD FLAT:??_7type_info@@6B@ ; std::basic_ostream<char,std::char_traits<char> > `RTTI Type Descriptor'
	DD	00H
	DB	'.?AV?$basic_ostream@DU?$char_traits@D@std@@@std@@', 00H
data$r	ENDS
;	COMDAT ??_R1A@?0A@EA@?$num_put@DV?$ostreambuf_iterator@DU?$char_traits@D@std@@@std@@@std@@8
rdata$r	SEGMENT
??_R1A@?0A@EA@?$num_put@DV?$ostreambuf_iterator@DU?$char_traits@D@std@@@std@@@std@@8 DD FLAT:??_R0?AV?$num_put@DV?$ostreambuf_iterator@DU?$char_traits@D@std@@@std@@@std@@@8 ; std::num_put<char,std::ostreambuf_iterator<char,std::char_traits<char> > >::`RTTI Base Class Descriptor at (0,-1,0,64)'
	DD	03H
	DD	00H
	DD	0ffffffffH
	DD	00H
	DD	040H
	DD	FLAT:??_R3?$num_put@DV?$ostreambuf_iterator@DU?$char_traits@D@std@@@std@@@std@@8
rdata$r	ENDS
;	COMDAT ??_7_Facet_base@std@@6B@
CONST	SEGMENT
??_7_Facet_base@std@@6B@ DD FLAT:??_R4_Facet_base@std@@6B@ ; std::_Facet_base::`vftable'
	DD	FLAT:??_E_Facet_base@std@@UAEPAXI@Z
	DD	FLAT:__purecall
	DD	FLAT:__purecall
CONST	ENDS
;	COMDAT __CTA5?AVfailure@ios_base@std@@
xdata$x	SEGMENT
__CTA5?AVfailure@ios_base@std@@ DD 05H
	DD	FLAT:__CT??_R0?AVfailure@ios_base@std@@@8??0failure@ios_base@std@@QAE@ABV012@@Z20
	DD	FLAT:__CT??_R0?AVsystem_error@std@@@8??0system_error@std@@QAE@ABV01@@Z20
	DD	FLAT:__CT??_R0?AV_System_error@std@@@8??0_System_error@std@@QAE@ABV01@@Z20
	DD	FLAT:__CT??_R0?AVruntime_error@std@@@8??0runtime_error@std@@QAE@ABV01@@Z12
	DD	FLAT:__CT??_R0?AVexception@std@@@8??0exception@std@@QAE@ABV01@@Z12
xdata$x	ENDS
;	COMDAT ??_R4bad_array_new_length@std@@6B@
rdata$r	SEGMENT
??_R4bad_array_new_length@std@@6B@ DD 00H		; std::bad_array_new_length::`RTTI Complete Object Locator'
	DD	00H
	DD	00H
	DD	FLAT:??_R0?AVbad_array_new_length@std@@@8
	DD	FLAT:??_R3bad_array_new_length@std@@8
rdata$r	ENDS
;	COMDAT ??_R1A@A@3FA@?$basic_ios@DU?$char_traits@D@std@@@std@@8
rdata$r	SEGMENT
??_R1A@A@3FA@?$basic_ios@DU?$char_traits@D@std@@@std@@8 DD FLAT:??_R0?AV?$basic_ios@DU?$char_traits@D@std@@@std@@@8 ; std::basic_ios<char,std::char_traits<char> >::`RTTI Base Class Descriptor at (0,0,4,80)'
	DD	02H
	DD	00H
	DD	00H
	DD	04H
	DD	050H
	DD	FLAT:??_R3?$basic_ios@DU?$char_traits@D@std@@@std@@8
rdata$r	ENDS
;	COMDAT ??_R2runtime_error@std@@8
rdata$r	SEGMENT
??_R2runtime_error@std@@8 DD FLAT:??_R1A@?0A@EA@runtime_error@std@@8 ; std::runtime_error::`RTTI Base Class Array'
	DD	FLAT:??_R1A@?0A@EA@exception@std@@8
rdata$r	ENDS
;	COMDAT ??_R4?$numpunct@D@std@@6B@
rdata$r	SEGMENT
??_R4?$numpunct@D@std@@6B@ DD 00H			; std::numpunct<char>::`RTTI Complete Object Locator'
	DD	00H
	DD	00H
	DD	FLAT:??_R0?AV?$numpunct@D@std@@@8
	DD	FLAT:??_R3?$numpunct@D@std@@8
rdata$r	ENDS
;	COMDAT ??_R3_Iostream_error_category2@std@@8
rdata$r	SEGMENT
??_R3_Iostream_error_category2@std@@8 DD 00H		; std::_Iostream_error_category2::`RTTI Class Hierarchy Descriptor'
	DD	00H
	DD	02H
	DD	FLAT:??_R2_Iostream_error_category2@std@@8
rdata$r	ENDS
;	COMDAT ??_R3?$numpunct@D@std@@8
rdata$r	SEGMENT
??_R3?$numpunct@D@std@@8 DD 00H				; std::numpunct<char>::`RTTI Class Hierarchy Descriptor'
	DD	01H
	DD	04H
	DD	FLAT:??_R2?$numpunct@D@std@@8
rdata$r	ENDS
;	COMDAT ??_R4_Facet_base@std@@6B@
rdata$r	SEGMENT
??_R4_Facet_base@std@@6B@ DD 00H			; std::_Facet_base::`RTTI Complete Object Locator'
	DD	00H
	DD	00H
	DD	FLAT:??_R0?AV_Facet_base@std@@@8
	DD	FLAT:??_R3_Facet_base@std@@8
rdata$r	ENDS
;	COMDAT __CT??_R0?AVexception@std@@@8??0exception@std@@QAE@ABV01@@Z12
xdata$x	SEGMENT
__CT??_R0?AVexception@std@@@8??0exception@std@@QAE@ABV01@@Z12 DD 00H
	DD	FLAT:??_R0?AVexception@std@@@8
	DD	00H
	DD	0ffffffffH
	ORG $+4
	DD	0cH
	DD	FLAT:??0exception@std@@QAE@ABV01@@Z
xdata$x	ENDS
;	COMDAT ??_R3bad_alloc@std@@8
rdata$r	SEGMENT
??_R3bad_alloc@std@@8 DD 00H				; std::bad_alloc::`RTTI Class Hierarchy Descriptor'
	DD	00H
	DD	02H
	DD	FLAT:??_R2bad_alloc@std@@8
rdata$r	ENDS
;	COMDAT ??_R4?$basic_stringbuf@DU?$char_traits@D@std@@V?$allocator@D@2@@std@@6B@
rdata$r	SEGMENT
??_R4?$basic_stringbuf@DU?$char_traits@D@std@@V?$allocator@D@2@@std@@6B@ DD 00H ; std::basic_stringbuf<char,std::char_traits<char>,std::allocator<char> >::`RTTI Complete Object Locator'
	DD	00H
	DD	00H
	DD	FLAT:??_R0?AV?$basic_stringbuf@DU?$char_traits@D@std@@V?$allocator@D@2@@std@@@8
	DD	FLAT:??_R3?$basic_stringbuf@DU?$char_traits@D@std@@V?$allocator@D@2@@std@@8
rdata$r	ENDS
;	COMDAT ??_R3bad_array_new_length@std@@8
rdata$r	SEGMENT
??_R3bad_array_new_length@std@@8 DD 00H			; std::bad_array_new_length::`RTTI Class Hierarchy Descriptor'
	DD	00H
	DD	03H
	DD	FLAT:??_R2bad_array_new_length@std@@8
rdata$r	ENDS
;	COMDAT ??_8?$basic_ostringstream@DU?$char_traits@D@std@@V?$allocator@D@2@@std@@7B@
CONST	SEGMENT
??_8?$basic_ostringstream@DU?$char_traits@D@std@@V?$allocator@D@2@@std@@7B@ DD 00H ; std::basic_ostringstream<char,std::char_traits<char>,std::allocator<char> >::`vbtable'
	DD	050H
CONST	ENDS
;	COMDAT ??_R1A@?0A@EA@_Crt_new_delete@std@@8
rdata$r	SEGMENT
??_R1A@?0A@EA@_Crt_new_delete@std@@8 DD FLAT:??_R0?AU_Crt_new_delete@std@@@8 ; std::_Crt_new_delete::`RTTI Base Class Descriptor at (0,-1,0,64)'
	DD	00H
	DD	00H
	DD	0ffffffffH
	DD	00H
	DD	040H
	DD	FLAT:??_R3_Crt_new_delete@std@@8
rdata$r	ENDS
;	COMDAT ??_R4bad_cast@std@@6B@
rdata$r	SEGMENT
??_R4bad_cast@std@@6B@ DD 00H				; std::bad_cast::`RTTI Complete Object Locator'
	DD	00H
	DD	00H
	DD	FLAT:??_R0?AVbad_cast@std@@@8
	DD	FLAT:??_R3bad_cast@std@@8
rdata$r	ENDS
;	COMDAT ??_R4ctype_base@std@@6B@
rdata$r	SEGMENT
??_R4ctype_base@std@@6B@ DD 00H				; std::ctype_base::`RTTI Complete Object Locator'
	DD	00H
	DD	00H
	DD	FLAT:??_R0?AUctype_base@std@@@8
	DD	FLAT:??_R3ctype_base@std@@8
rdata$r	ENDS
;	COMDAT ??_R4bad_alloc@std@@6B@
rdata$r	SEGMENT
??_R4bad_alloc@std@@6B@ DD 00H				; std::bad_alloc::`RTTI Complete Object Locator'
	DD	00H
	DD	00H
	DD	FLAT:??_R0?AVbad_alloc@std@@@8
	DD	FLAT:??_R3bad_alloc@std@@8
rdata$r	ENDS
;	COMDAT ??_R3error_category@std@@8
rdata$r	SEGMENT
??_R3error_category@std@@8 DD 00H			; std::error_category::`RTTI Class Hierarchy Descriptor'
	DD	00H
	DD	01H
	DD	FLAT:??_R2error_category@std@@8
rdata$r	ENDS
;	COMDAT ??_R3bad_cast@std@@8
rdata$r	SEGMENT
??_R3bad_cast@std@@8 DD 00H				; std::bad_cast::`RTTI Class Hierarchy Descriptor'
	DD	00H
	DD	02H
	DD	FLAT:??_R2bad_cast@std@@8
rdata$r	ENDS
;	COMDAT ??_R1A@?0A@EA@_System_error@std@@8
rdata$r	SEGMENT
??_R1A@?0A@EA@_System_error@std@@8 DD FLAT:??_R0?AV_System_error@std@@@8 ; std::_System_error::`RTTI Base Class Descriptor at (0,-1,0,64)'
	DD	02H
	DD	00H
	DD	0ffffffffH
	DD	00H
	DD	040H
	DD	FLAT:??_R3_System_error@std@@8
rdata$r	ENDS
;	COMDAT ??_8?$basic_ostream@DU?$char_traits@D@std@@@std@@7B@
CONST	SEGMENT
??_8?$basic_ostream@DU?$char_traits@D@std@@@std@@7B@ DD 00H ; std::basic_ostream<char,std::char_traits<char> >::`vbtable'
	DD	08H
CONST	ENDS
;	COMDAT ??_R3ctype_base@std@@8
rdata$r	SEGMENT
??_R3ctype_base@std@@8 DD 00H				; std::ctype_base::`RTTI Class Hierarchy Descriptor'
	DD	01H
	DD	04H
	DD	FLAT:??_R2ctype_base@std@@8
rdata$r	ENDS
;	COMDAT ??_R1A@?0A@EA@?$basic_stringbuf@DU?$char_traits@D@std@@V?$allocator@D@2@@std@@8
rdata$r	SEGMENT
??_R1A@?0A@EA@?$basic_stringbuf@DU?$char_traits@D@std@@V?$allocator@D@2@@std@@8 DD FLAT:??_R0?AV?$basic_stringbuf@DU?$char_traits@D@std@@V?$allocator@D@2@@std@@@8 ; std::basic_stringbuf<char,std::char_traits<char>,std::allocator<char> >::`RTTI Base Class Descriptor at (0,-1,0,64)'
	DD	01H
	DD	00H
	DD	0ffffffffH
	DD	00H
	DD	040H
	DD	FLAT:??_R3?$basic_stringbuf@DU?$char_traits@D@std@@V?$allocator@D@2@@std@@8
rdata$r	ENDS
;	COMDAT ??_R3facet@locale@std@@8
rdata$r	SEGMENT
??_R3facet@locale@std@@8 DD 00H				; std::locale::facet::`RTTI Class Hierarchy Descriptor'
	DD	01H
	DD	03H
	DD	FLAT:??_R2facet@locale@std@@8
rdata$r	ENDS
;	COMDAT ??_R0?AVfacet@locale@std@@@8
data$r	SEGMENT
??_R0?AVfacet@locale@std@@@8 DD FLAT:??_7type_info@@6B@	; std::locale::facet `RTTI Type Descriptor'
	DD	00H
	DB	'.?AVfacet@locale@std@@', 00H
data$r	ENDS
;	COMDAT ??_R1A@?0A@EA@?$_Iosb@H@std@@8
rdata$r	SEGMENT
??_R1A@?0A@EA@?$_Iosb@H@std@@8 DD FLAT:??_R0?AV?$_Iosb@H@std@@@8 ; std::_Iosb<int>::`RTTI Base Class Descriptor at (0,-1,0,64)'
	DD	00H
	DD	00H
	DD	0ffffffffH
	DD	00H
	DD	040H
	DD	FLAT:??_R3?$_Iosb@H@std@@8
rdata$r	ENDS
;	COMDAT ??_R2?$basic_streambuf@DU?$char_traits@D@std@@@std@@8
rdata$r	SEGMENT
??_R2?$basic_streambuf@DU?$char_traits@D@std@@@std@@8 DD FLAT:??_R1A@?0A@EA@?$basic_streambuf@DU?$char_traits@D@std@@@std@@8 ; std::basic_streambuf<char,std::char_traits<char> >::`RTTI Base Class Array'
rdata$r	ENDS
;	COMDAT ??_R2?$numpunct@D@std@@8
rdata$r	SEGMENT
??_R2?$numpunct@D@std@@8 DD FLAT:??_R1A@?0A@EA@?$numpunct@D@std@@8 ; std::numpunct<char>::`RTTI Base Class Array'
	DD	FLAT:??_R1A@?0A@EA@facet@locale@std@@8
	DD	FLAT:??_R1A@?0A@EA@_Facet_base@std@@8
	DD	FLAT:??_R13?0A@EA@_Crt_new_delete@std@@8
rdata$r	ENDS
;	COMDAT ??_R1A@?0A@EA@failure@ios_base@std@@8
rdata$r	SEGMENT
??_R1A@?0A@EA@failure@ios_base@std@@8 DD FLAT:??_R0?AVfailure@ios_base@std@@@8 ; std::ios_base::failure::`RTTI Base Class Descriptor at (0,-1,0,64)'
	DD	04H
	DD	00H
	DD	0ffffffffH
	DD	00H
	DD	040H
	DD	FLAT:??_R3failure@ios_base@std@@8
rdata$r	ENDS
;	COMDAT ??_7_System_error@std@@6B@
CONST	SEGMENT
??_7_System_error@std@@6B@ DD FLAT:??_R4_System_error@std@@6B@ ; std::_System_error::`vftable'
	DD	FLAT:??_E_System_error@std@@UAEPAXI@Z
	DD	FLAT:?what@exception@std@@UBEPBDXZ
CONST	ENDS
;	COMDAT ??_R0?AV?$basic_ios@DU?$char_traits@D@std@@@std@@@8
data$r	SEGMENT
??_R0?AV?$basic_ios@DU?$char_traits@D@std@@@std@@@8 DD FLAT:??_7type_info@@6B@ ; std::basic_ios<char,std::char_traits<char> > `RTTI Type Descriptor'
	DD	00H
	DB	'.?AV?$basic_ios@DU?$char_traits@D@std@@@std@@', 00H
data$r	ENDS
;	COMDAT ??_7runtime_error@std@@6B@
CONST	SEGMENT
??_7runtime_error@std@@6B@ DD FLAT:??_R4runtime_error@std@@6B@ ; std::runtime_error::`vftable'
	DD	FLAT:??_Eruntime_error@std@@UAEPAXI@Z
	DD	FLAT:?what@exception@std@@UBEPBDXZ
CONST	ENDS
;	COMDAT ??_R1A@?0A@EA@?$basic_ostream@DU?$char_traits@D@std@@@std@@8
rdata$r	SEGMENT
??_R1A@?0A@EA@?$basic_ostream@DU?$char_traits@D@std@@@std@@8 DD FLAT:??_R0?AV?$basic_ostream@DU?$char_traits@D@std@@@std@@@8 ; std::basic_ostream<char,std::char_traits<char> >::`RTTI Base Class Descriptor at (0,-1,0,64)'
	DD	03H
	DD	00H
	DD	0ffffffffH
	DD	00H
	DD	040H
	DD	FLAT:??_R3?$basic_ostream@DU?$char_traits@D@std@@@std@@8
rdata$r	ENDS
;	COMDAT __TI5?AVfailure@ios_base@std@@
xdata$x	SEGMENT
__TI5?AVfailure@ios_base@std@@ DD 00H
	DD	FLAT:??1failure@ios_base@std@@UAE@XZ
	DD	00H
	DD	FLAT:__CTA5?AVfailure@ios_base@std@@
xdata$x	ENDS
;	COMDAT ??_R3exception@std@@8
rdata$r	SEGMENT
??_R3exception@std@@8 DD 00H				; std::exception::`RTTI Class Hierarchy Descriptor'
	DD	00H
	DD	01H
	DD	FLAT:??_R2exception@std@@8
rdata$r	ENDS
;	COMDAT ??_R1A@?0A@EA@ios_base@std@@8
rdata$r	SEGMENT
??_R1A@?0A@EA@ios_base@std@@8 DD FLAT:??_R0?AVios_base@std@@@8 ; std::ios_base::`RTTI Base Class Descriptor at (0,-1,0,64)'
	DD	01H
	DD	00H
	DD	0ffffffffH
	DD	00H
	DD	040H
	DD	FLAT:??_R3ios_base@std@@8
rdata$r	ENDS
;	COMDAT __CT??_R0?AVruntime_error@std@@@8??0runtime_error@std@@QAE@ABV01@@Z12
xdata$x	SEGMENT
__CT??_R0?AVruntime_error@std@@@8??0runtime_error@std@@QAE@ABV01@@Z12 DD 00H
	DD	FLAT:??_R0?AVruntime_error@std@@@8
	DD	00H
	DD	0ffffffffH
	ORG $+4
	DD	0cH
	DD	FLAT:??0runtime_error@std@@QAE@ABV01@@Z
xdata$x	ENDS
;	COMDAT ??_7_Iostream_error_category2@std@@6B@
CONST	SEGMENT
??_7_Iostream_error_category2@std@@6B@ DD FLAT:??_R4_Iostream_error_category2@std@@6B@ ; std::_Iostream_error_category2::`vftable'
	DD	FLAT:??_E_Iostream_error_category2@std@@UAEPAXI@Z
	DD	FLAT:?name@_Iostream_error_category2@std@@UBEPBDXZ
	DD	FLAT:?message@_Iostream_error_category2@std@@UBE?AV?$basic_string@DU?$char_traits@D@std@@V?$allocator@D@2@@2@H@Z
	DD	FLAT:?default_error_condition@error_category@std@@UBE?AVerror_condition@2@H@Z
	DD	FLAT:?equivalent@error_category@std@@UBE_NABVerror_code@2@H@Z
	DD	FLAT:?equivalent@error_category@std@@UBE_NHABVerror_condition@2@@Z
CONST	ENDS
;	COMDAT ??_R2?$ctype@D@std@@8
rdata$r	SEGMENT
??_R2?$ctype@D@std@@8 DD FLAT:??_R1A@?0A@EA@?$ctype@D@std@@8 ; std::ctype<char>::`RTTI Base Class Array'
	DD	FLAT:??_R1A@?0A@EA@ctype_base@std@@8
	DD	FLAT:??_R1A@?0A@EA@facet@locale@std@@8
	DD	FLAT:??_R1A@?0A@EA@_Facet_base@std@@8
	DD	FLAT:??_R13?0A@EA@_Crt_new_delete@std@@8
rdata$r	ENDS
;	COMDAT ??_7exception@std@@6B@
CONST	SEGMENT
??_7exception@std@@6B@ DD FLAT:??_R4exception@std@@6B@	; std::exception::`vftable'
	DD	FLAT:??_Eexception@std@@UAEPAXI@Z
	DD	FLAT:?what@exception@std@@UBEPBDXZ
CONST	ENDS
;	COMDAT ??_7facet@locale@std@@6B@
CONST	SEGMENT
??_7facet@locale@std@@6B@ DD FLAT:??_R4facet@locale@std@@6B@ ; std::locale::facet::`vftable'
	DD	FLAT:??_Efacet@locale@std@@MAEPAXI@Z
	DD	FLAT:?_Incref@facet@locale@std@@UAEXXZ
	DD	FLAT:?_Decref@facet@locale@std@@UAEPAV_Facet_base@3@XZ
CONST	ENDS
;	COMDAT ??_7Exception@@6B@
CONST	SEGMENT
??_7Exception@@6B@ DD FLAT:??_R4Exception@@6B@		; Exception::`vftable'
	DD	FLAT:??_EException@@UAEPAXI@Z
	DD	FLAT:?what@Exception@@UBEPBDXZ
	DD	FLAT:?GetType@Exception@@UBEPBDXZ
CONST	ENDS
;	COMDAT ??_R3failure@ios_base@std@@8
rdata$r	SEGMENT
??_R3failure@ios_base@std@@8 DD 00H			; std::ios_base::failure::`RTTI Class Hierarchy Descriptor'
	DD	00H
	DD	05H
	DD	FLAT:??_R2failure@ios_base@std@@8
rdata$r	ENDS
;	COMDAT ??_R1A@?0A@EA@Exception@@8
rdata$r	SEGMENT
??_R1A@?0A@EA@Exception@@8 DD FLAT:??_R0?AVException@@@8 ; Exception::`RTTI Base Class Descriptor at (0,-1,0,64)'
	DD	01H
	DD	00H
	DD	0ffffffffH
	DD	00H
	DD	040H
	DD	FLAT:??_R3Exception@@8
rdata$r	ENDS
;	COMDAT ??_R0?AUctype_base@std@@@8
data$r	SEGMENT
??_R0?AUctype_base@std@@@8 DD FLAT:??_7type_info@@6B@	; std::ctype_base `RTTI Type Descriptor'
	DD	00H
	DB	'.?AUctype_base@std@@', 00H
data$r	ENDS
;	COMDAT ??_7?$basic_stringbuf@DU?$char_traits@D@std@@V?$allocator@D@2@@std@@6B@
CONST	SEGMENT
??_7?$basic_stringbuf@DU?$char_traits@D@std@@V?$allocator@D@2@@std@@6B@ DD FLAT:??_R4?$basic_stringbuf@DU?$char_traits@D@std@@V?$allocator@D@2@@std@@6B@ ; std::basic_stringbuf<char,std::char_traits<char>,std::allocator<char> >::`vftable'
	DD	FLAT:??_E?$basic_stringbuf@DU?$char_traits@D@std@@V?$allocator@D@2@@std@@UAEPAXI@Z
	DD	FLAT:?_Lock@?$basic_streambuf@DU?$char_traits@D@std@@@std@@UAEXXZ
	DD	FLAT:?_Unlock@?$basic_streambuf@DU?$char_traits@D@std@@@std@@UAEXXZ
	DD	FLAT:?overflow@?$basic_stringbuf@DU?$char_traits@D@std@@V?$allocator@D@2@@std@@MAEHH@Z
	DD	FLAT:?pbackfail@?$basic_stringbuf@DU?$char_traits@D@std@@V?$allocator@D@2@@std@@MAEHH@Z
	DD	FLAT:?showmanyc@?$basic_streambuf@DU?$char_traits@D@std@@@std@@MAE_JXZ
	DD	FLAT:?underflow@?$basic_stringbuf@DU?$char_traits@D@std@@V?$allocator@D@2@@std@@MAEHXZ
	DD	FLAT:?uflow@?$basic_streambuf@DU?$char_traits@D@std@@@std@@MAEHXZ
	DD	FLAT:?xsgetn@?$basic_streambuf@DU?$char_traits@D@std@@@std@@MAE_JPAD_J@Z
	DD	FLAT:?xsputn@?$basic_streambuf@DU?$char_traits@D@std@@@std@@MAE_JPBD_J@Z
	DD	FLAT:?seekoff@?$basic_stringbuf@DU?$char_traits@D@std@@V?$allocator@D@2@@std@@MAE?AV?$fpos@U_Mbstatet@@@2@_JHH@Z
	DD	FLAT:?seekpos@?$basic_stringbuf@DU?$char_traits@D@std@@V?$allocator@D@2@@std@@MAE?AV?$fpos@U_Mbstatet@@@2@V32@H@Z
	DD	FLAT:?setbuf@?$basic_streambuf@DU?$char_traits@D@std@@@std@@MAEPAV12@PAD_J@Z
	DD	FLAT:?sync@?$basic_streambuf@DU?$char_traits@D@std@@@std@@MAEHXZ
	DD	FLAT:?imbue@?$basic_streambuf@DU?$char_traits@D@std@@@std@@MAEXABVlocale@2@@Z
CONST	ENDS
;	COMDAT ??_R2failure@ios_base@std@@8
rdata$r	SEGMENT
??_R2failure@ios_base@std@@8 DD FLAT:??_R1A@?0A@EA@failure@ios_base@std@@8 ; std::ios_base::failure::`RTTI Base Class Array'
	DD	FLAT:??_R1A@?0A@EA@system_error@std@@8
	DD	FLAT:??_R1A@?0A@EA@_System_error@std@@8
	DD	FLAT:??_R1A@?0A@EA@runtime_error@std@@8
	DD	FLAT:??_R1A@?0A@EA@exception@std@@8
rdata$r	ENDS
;	COMDAT ??_7?$ctype@D@std@@6B@
CONST	SEGMENT
??_7?$ctype@D@std@@6B@ DD FLAT:??_R4?$ctype@D@std@@6B@	; std::ctype<char>::`vftable'
	DD	FLAT:??_E?$ctype@D@std@@MAEPAXI@Z
	DD	FLAT:?_Incref@facet@locale@std@@UAEXXZ
	DD	FLAT:?_Decref@facet@locale@std@@UAEPAV_Facet_base@3@XZ
	DD	FLAT:?do_tolower@?$ctype@D@std@@MBEPBDPADPBD@Z
	DD	FLAT:?do_tolower@?$ctype@D@std@@MBEDD@Z
	DD	FLAT:?do_toupper@?$ctype@D@std@@MBEPBDPADPBD@Z
	DD	FLAT:?do_toupper@?$ctype@D@std@@MBEDD@Z
	DD	FLAT:?do_widen@?$ctype@D@std@@MBEPBDPBD0PAD@Z
	DD	FLAT:?do_widen@?$ctype@D@std@@MBEDD@Z
	DD	FLAT:?do_narrow@?$ctype@D@std@@MBEPBDPBD0DPAD@Z
	DD	FLAT:?do_narrow@?$ctype@D@std@@MBEDDD@Z
CONST	ENDS
;	COMDAT __TI2?AVbad_cast@std@@
xdata$x	SEGMENT
__TI2?AVbad_cast@std@@ DD 00H
	DD	FLAT:??1bad_cast@std@@UAE@XZ
	DD	00H
	DD	FLAT:__CTA2?AVbad_cast@std@@
xdata$x	ENDS
;	COMDAT ??_R0?AVbad_cast@std@@@8
data$r	SEGMENT
??_R0?AVbad_cast@std@@@8 DD FLAT:??_7type_info@@6B@	; std::bad_cast `RTTI Type Descriptor'
	DD	00H
	DB	'.?AVbad_cast@std@@', 00H
data$r	ENDS
;	COMDAT __CT??_R0?AVsystem_error@std@@@8??0system_error@std@@QAE@ABV01@@Z20
xdata$x	SEGMENT
__CT??_R0?AVsystem_error@std@@@8??0system_error@std@@QAE@ABV01@@Z20 DD 00H
	DD	FLAT:??_R0?AVsystem_error@std@@@8
	DD	00H
	DD	0ffffffffH
	ORG $+4
	DD	014H
	DD	FLAT:??0system_error@std@@QAE@ABV01@@Z
xdata$x	ENDS
;	COMDAT __CT??_R0?AVbad_cast@std@@@8??0bad_cast@std@@QAE@ABV01@@Z12
xdata$x	SEGMENT
__CT??_R0?AVbad_cast@std@@@8??0bad_cast@std@@QAE@ABV01@@Z12 DD 00H
	DD	FLAT:??_R0?AVbad_cast@std@@@8
	DD	00H
	DD	0ffffffffH
	ORG $+4
	DD	0cH
	DD	FLAT:??0bad_cast@std@@QAE@ABV01@@Z
xdata$x	ENDS
;	COMDAT ??_R1A@?0A@EA@facet@locale@std@@8
rdata$r	SEGMENT
??_R1A@?0A@EA@facet@locale@std@@8 DD FLAT:??_R0?AVfacet@locale@std@@@8 ; std::locale::facet::`RTTI Base Class Descriptor at (0,-1,0,64)'
	DD	02H
	DD	00H
	DD	0ffffffffH
	DD	00H
	DD	040H
	DD	FLAT:??_R3facet@locale@std@@8
rdata$r	ENDS
;	COMDAT ??_R1A@?0A@EA@_Iostream_error_category2@std@@8
rdata$r	SEGMENT
??_R1A@?0A@EA@_Iostream_error_category2@std@@8 DD FLAT:??_R0?AV_Iostream_error_category2@std@@@8 ; std::_Iostream_error_category2::`RTTI Base Class Descriptor at (0,-1,0,64)'
	DD	01H
	DD	00H
	DD	0ffffffffH
	DD	00H
	DD	040H
	DD	FLAT:??_R3_Iostream_error_category2@std@@8
rdata$r	ENDS
;	COMDAT ??_R2error_category@std@@8
rdata$r	SEGMENT
??_R2error_category@std@@8 DD FLAT:??_R1A@?0A@EA@error_category@std@@8 ; std::error_category::`RTTI Base Class Array'
rdata$r	ENDS
;	COMDAT ??_R4_Iostream_error_category2@std@@6B@
rdata$r	SEGMENT
??_R4_Iostream_error_category2@std@@6B@ DD 00H		; std::_Iostream_error_category2::`RTTI Complete Object Locator'
	DD	00H
	DD	00H
	DD	FLAT:??_R0?AV_Iostream_error_category2@std@@@8
	DD	FLAT:??_R3_Iostream_error_category2@std@@8
rdata$r	ENDS
;	COMDAT ??_R3?$basic_ios@DU?$char_traits@D@std@@@std@@8
rdata$r	SEGMENT
??_R3?$basic_ios@DU?$char_traits@D@std@@@std@@8 DD 00H	; std::basic_ios<char,std::char_traits<char> >::`RTTI Class Hierarchy Descriptor'
	DD	00H
	DD	03H
	DD	FLAT:??_R2?$basic_ios@DU?$char_traits@D@std@@@std@@8
rdata$r	ENDS
;	COMDAT ??_7bad_cast@std@@6B@
CONST	SEGMENT
??_7bad_cast@std@@6B@ DD FLAT:??_R4bad_cast@std@@6B@	; std::bad_cast::`vftable'
	DD	FLAT:??_Ebad_cast@std@@UAEPAXI@Z
	DD	FLAT:?what@exception@std@@UBEPBDXZ
CONST	ENDS
;	COMDAT ??_R2?$basic_ostream@DU?$char_traits@D@std@@@std@@8
rdata$r	SEGMENT
??_R2?$basic_ostream@DU?$char_traits@D@std@@@std@@8 DD FLAT:??_R1A@?0A@EA@?$basic_ostream@DU?$char_traits@D@std@@@std@@8 ; std::basic_ostream<char,std::char_traits<char> >::`RTTI Base Class Array'
	DD	FLAT:??_R1A@A@3FA@?$basic_ios@DU?$char_traits@D@std@@@std@@8
	DD	FLAT:??_R1A@A@3EA@ios_base@std@@8
	DD	FLAT:??_R17A@3EA@?$_Iosb@H@std@@8
rdata$r	ENDS
;	COMDAT ??_R0?AV?$basic_ostringstream@DU?$char_traits@D@std@@V?$allocator@D@2@@std@@@8
data$r	SEGMENT
??_R0?AV?$basic_ostringstream@DU?$char_traits@D@std@@V?$allocator@D@2@@std@@@8 DD FLAT:??_7type_info@@6B@ ; std::basic_ostringstream<char,std::char_traits<char>,std::allocator<char> > `RTTI Type Descriptor'
	DD	00H
	DB	'.?AV?$basic_ostringstream@DU?$char_traits@D@std@@V?$allo'
	DB	'cator@D@2@@std@@', 00H
data$r	ENDS
;	COMDAT ??_R4failure@ios_base@std@@6B@
rdata$r	SEGMENT
??_R4failure@ios_base@std@@6B@ DD 00H			; std::ios_base::failure::`RTTI Complete Object Locator'
	DD	00H
	DD	00H
	DD	FLAT:??_R0?AVfailure@ios_base@std@@@8
	DD	FLAT:??_R3failure@ios_base@std@@8
rdata$r	ENDS
;	COMDAT ??_R2exception@std@@8
rdata$r	SEGMENT
??_R2exception@std@@8 DD FLAT:??_R1A@?0A@EA@exception@std@@8 ; std::exception::`RTTI Base Class Array'
rdata$r	ENDS
;	COMDAT ??_R2bad_cast@std@@8
rdata$r	SEGMENT
??_R2bad_cast@std@@8 DD FLAT:??_R1A@?0A@EA@bad_cast@std@@8 ; std::bad_cast::`RTTI Base Class Array'
	DD	FLAT:??_R1A@?0A@EA@exception@std@@8
rdata$r	ENDS
;	COMDAT ??_R3?$basic_stringbuf@DU?$char_traits@D@std@@V?$allocator@D@2@@std@@8
rdata$r	SEGMENT
??_R3?$basic_stringbuf@DU?$char_traits@D@std@@V?$allocator@D@2@@std@@8 DD 00H ; std::basic_stringbuf<char,std::char_traits<char>,std::allocator<char> >::`RTTI Class Hierarchy Descriptor'
	DD	00H
	DD	02H
	DD	FLAT:??_R2?$basic_stringbuf@DU?$char_traits@D@std@@V?$allocator@D@2@@std@@8
rdata$r	ENDS
;	COMDAT ??_7?$basic_ios@DU?$char_traits@D@std@@@std@@6B@
CONST	SEGMENT
??_7?$basic_ios@DU?$char_traits@D@std@@@std@@6B@ DD FLAT:??_R4?$basic_ios@DU?$char_traits@D@std@@@std@@6B@ ; std::basic_ios<char,std::char_traits<char> >::`vftable'
	DD	FLAT:??_E?$basic_ios@DU?$char_traits@D@std@@@std@@UAEPAXI@Z
CONST	ENDS
;	COMDAT ??_R1A@?0A@EA@?$basic_ostringstream@DU?$char_traits@D@std@@V?$allocator@D@2@@std@@8
rdata$r	SEGMENT
??_R1A@?0A@EA@?$basic_ostringstream@DU?$char_traits@D@std@@V?$allocator@D@2@@std@@8 DD FLAT:??_R0?AV?$basic_ostringstream@DU?$char_traits@D@std@@V?$allocator@D@2@@std@@@8 ; std::basic_ostringstream<char,std::char_traits<char>,std::allocator<char> >::`RTTI Base Class Descriptor at (0,-1,0,64)'
	DD	04H
	DD	00H
	DD	0ffffffffH
	DD	00H
	DD	040H
	DD	FLAT:??_R3?$basic_ostringstream@DU?$char_traits@D@std@@V?$allocator@D@2@@std@@8
rdata$r	ENDS
;	COMDAT ??_R4?$basic_ios@DU?$char_traits@D@std@@@std@@6B@
rdata$r	SEGMENT
??_R4?$basic_ios@DU?$char_traits@D@std@@@std@@6B@ DD 00H ; std::basic_ios<char,std::char_traits<char> >::`RTTI Complete Object Locator'
	DD	00H
	DD	00H
	DD	FLAT:??_R0?AV?$basic_ios@DU?$char_traits@D@std@@@std@@@8
	DD	FLAT:??_R3?$basic_ios@DU?$char_traits@D@std@@@std@@8
rdata$r	ENDS
;	COMDAT ??_R0?AV?$basic_streambuf@DU?$char_traits@D@std@@@std@@@8
data$r	SEGMENT
??_R0?AV?$basic_streambuf@DU?$char_traits@D@std@@@std@@@8 DD FLAT:??_7type_info@@6B@ ; std::basic_streambuf<char,std::char_traits<char> > `RTTI Type Descriptor'
	DD	00H
	DB	'.?AV?$basic_streambuf@DU?$char_traits@D@std@@@std@@', 00H
data$r	ENDS
;	COMDAT ??_7bad_alloc@std@@6B@
CONST	SEGMENT
??_7bad_alloc@std@@6B@ DD FLAT:??_R4bad_alloc@std@@6B@	; std::bad_alloc::`vftable'
	DD	FLAT:??_Ebad_alloc@std@@UAEPAXI@Z
	DD	FLAT:?what@exception@std@@UBEPBDXZ
CONST	ENDS
;	COMDAT ??_R3Exception@@8
rdata$r	SEGMENT
??_R3Exception@@8 DD 00H				; Exception::`RTTI Class Hierarchy Descriptor'
	DD	00H
	DD	02H
	DD	FLAT:??_R2Exception@@8
rdata$r	ENDS
;	COMDAT ??_R0?AV?$numpunct@D@std@@@8
data$r	SEGMENT
??_R0?AV?$numpunct@D@std@@@8 DD FLAT:??_7type_info@@6B@	; std::numpunct<char> `RTTI Type Descriptor'
	DD	00H
	DB	'.?AV?$numpunct@D@std@@', 00H
data$r	ENDS
;	COMDAT __CTA2?AVbad_cast@std@@
xdata$x	SEGMENT
__CTA2?AVbad_cast@std@@ DD 02H
	DD	FLAT:__CT??_R0?AVbad_cast@std@@@8??0bad_cast@std@@QAE@ABV01@@Z12
	DD	FLAT:__CT??_R0?AVexception@std@@@8??0exception@std@@QAE@ABV01@@Z12
xdata$x	ENDS
;	COMDAT ??_R0?AV_Iostream_error_category2@std@@@8
data$r	SEGMENT
??_R0?AV_Iostream_error_category2@std@@@8 DD FLAT:??_7type_info@@6B@ ; std::_Iostream_error_category2 `RTTI Type Descriptor'
	DD	00H
	DB	'.?AV_Iostream_error_category2@std@@', 00H
data$r	ENDS
;	COMDAT ??_R0?AV?$_Iosb@H@std@@@8
data$r	SEGMENT
??_R0?AV?$_Iosb@H@std@@@8 DD FLAT:??_7type_info@@6B@	; std::_Iosb<int> `RTTI Type Descriptor'
	DD	00H
	DB	'.?AV?$_Iosb@H@std@@', 00H
data$r	ENDS
;	COMDAT ??_R0?AU_Crt_new_delete@std@@@8
data$r	SEGMENT
??_R0?AU_Crt_new_delete@std@@@8 DD FLAT:??_7type_info@@6B@ ; std::_Crt_new_delete `RTTI Type Descriptor'
	DD	00H
	DB	'.?AU_Crt_new_delete@std@@', 00H
data$r	ENDS
;	COMDAT ??_R3_System_error@std@@8
rdata$r	SEGMENT
??_R3_System_error@std@@8 DD 00H			; std::_System_error::`RTTI Class Hierarchy Descriptor'
	DD	00H
	DD	03H
	DD	FLAT:??_R2_System_error@std@@8
rdata$r	ENDS
;	COMDAT __CT??_R0?AVbad_alloc@std@@@8??0bad_alloc@std@@QAE@ABV01@@Z12
xdata$x	SEGMENT
__CT??_R0?AVbad_alloc@std@@@8??0bad_alloc@std@@QAE@ABV01@@Z12 DD 010H
	DD	FLAT:??_R0?AVbad_alloc@std@@@8
	DD	00H
	DD	0ffffffffH
	ORG $+4
	DD	0cH
	DD	FLAT:??0bad_alloc@std@@QAE@ABV01@@Z
xdata$x	ENDS
;	COMDAT ??_7ctype_base@std@@6B@
CONST	SEGMENT
??_7ctype_base@std@@6B@ DD FLAT:??_R4ctype_base@std@@6B@ ; std::ctype_base::`vftable'
	DD	FLAT:??_Ectype_base@std@@UAEPAXI@Z
	DD	FLAT:?_Incref@facet@locale@std@@UAEXXZ
	DD	FLAT:?_Decref@facet@locale@std@@UAEPAV_Facet_base@3@XZ
CONST	ENDS
;	COMDAT ??_R0?AV_Facet_base@std@@@8
data$r	SEGMENT
??_R0?AV_Facet_base@std@@@8 DD FLAT:??_7type_info@@6B@	; std::_Facet_base `RTTI Type Descriptor'
	DD	00H
	DB	'.?AV_Facet_base@std@@', 00H
data$r	ENDS
;	COMDAT ??_R1A@?0A@EA@bad_alloc@std@@8
rdata$r	SEGMENT
??_R1A@?0A@EA@bad_alloc@std@@8 DD FLAT:??_R0?AVbad_alloc@std@@@8 ; std::bad_alloc::`RTTI Base Class Descriptor at (0,-1,0,64)'
	DD	01H
	DD	00H
	DD	0ffffffffH
	DD	00H
	DD	040H
	DD	FLAT:??_R3bad_alloc@std@@8
rdata$r	ENDS
;	COMDAT ??_R1A@?0A@EA@_Facet_base@std@@8
rdata$r	SEGMENT
??_R1A@?0A@EA@_Facet_base@std@@8 DD FLAT:??_R0?AV_Facet_base@std@@@8 ; std::_Facet_base::`RTTI Base Class Descriptor at (0,-1,0,64)'
	DD	00H
	DD	00H
	DD	0ffffffffH
	DD	00H
	DD	040H
	DD	FLAT:??_R3_Facet_base@std@@8
rdata$r	ENDS
;	COMDAT ??_R1A@?0A@EA@?$basic_streambuf@DU?$char_traits@D@std@@@std@@8
rdata$r	SEGMENT
??_R1A@?0A@EA@?$basic_streambuf@DU?$char_traits@D@std@@@std@@8 DD FLAT:??_R0?AV?$basic_streambuf@DU?$char_traits@D@std@@@std@@@8 ; std::basic_streambuf<char,std::char_traits<char> >::`RTTI Base Class Descriptor at (0,-1,0,64)'
	DD	00H
	DD	00H
	DD	0ffffffffH
	DD	00H
	DD	040H
	DD	FLAT:??_R3?$basic_streambuf@DU?$char_traits@D@std@@@std@@8
rdata$r	ENDS
;	COMDAT ??_R2Exception@@8
rdata$r	SEGMENT
??_R2Exception@@8 DD FLAT:??_R1A@?0A@EA@Exception@@8	; Exception::`RTTI Base Class Array'
	DD	FLAT:??_R1A@?0A@EA@exception@std@@8
rdata$r	ENDS
;	COMDAT ??_R4system_error@std@@6B@
rdata$r	SEGMENT
??_R4system_error@std@@6B@ DD 00H			; std::system_error::`RTTI Complete Object Locator'
	DD	00H
	DD	00H
	DD	FLAT:??_R0?AVsystem_error@std@@@8
	DD	FLAT:??_R3system_error@std@@8
rdata$r	ENDS
;	COMDAT ??_R4ios_base@std@@6B@
rdata$r	SEGMENT
??_R4ios_base@std@@6B@ DD 00H				; std::ios_base::`RTTI Complete Object Locator'
	DD	00H
	DD	00H
	DD	FLAT:??_R0?AVios_base@std@@@8
	DD	FLAT:??_R3ios_base@std@@8
rdata$r	ENDS
;	COMDAT ??_R1A@?0A@EA@exception@std@@8
rdata$r	SEGMENT
??_R1A@?0A@EA@exception@std@@8 DD FLAT:??_R0?AVexception@std@@@8 ; std::exception::`RTTI Base Class Descriptor at (0,-1,0,64)'
	DD	00H
	DD	00H
	DD	0ffffffffH
	DD	00H
	DD	040H
	DD	FLAT:??_R3exception@std@@8
rdata$r	ENDS
;	COMDAT ??_R17A@3EA@?$_Iosb@H@std@@8
rdata$r	SEGMENT
??_R17A@3EA@?$_Iosb@H@std@@8 DD FLAT:??_R0?AV?$_Iosb@H@std@@@8 ; std::_Iosb<int>::`RTTI Base Class Descriptor at (8,0,4,64)'
	DD	00H
	DD	08H
	DD	00H
	DD	04H
	DD	040H
	DD	FLAT:??_R3?$_Iosb@H@std@@8
rdata$r	ENDS
;	COMDAT ??_7bad_array_new_length@std@@6B@
CONST	SEGMENT
??_7bad_array_new_length@std@@6B@ DD FLAT:??_R4bad_array_new_length@std@@6B@ ; std::bad_array_new_length::`vftable'
	DD	FLAT:??_Ebad_array_new_length@std@@UAEPAXI@Z
	DD	FLAT:?what@exception@std@@UBEPBDXZ
CONST	ENDS
;	COMDAT __CTA3?AVbad_array_new_length@std@@
xdata$x	SEGMENT
__CTA3?AVbad_array_new_length@std@@ DD 03H
	DD	FLAT:__CT??_R0?AVbad_array_new_length@std@@@8??0bad_array_new_length@std@@QAE@ABV01@@Z12
	DD	FLAT:__CT??_R0?AVbad_alloc@std@@@8??0bad_alloc@std@@QAE@ABV01@@Z12
	DD	FLAT:__CT??_R0?AVexception@std@@@8??0exception@std@@QAE@ABV01@@Z12
xdata$x	ENDS
;	COMDAT ??_R13?0A@EA@_Crt_new_delete@std@@8
rdata$r	SEGMENT
??_R13?0A@EA@_Crt_new_delete@std@@8 DD FLAT:??_R0?AU_Crt_new_delete@std@@@8 ; std::_Crt_new_delete::`RTTI Base Class Descriptor at (4,-1,0,64)'
	DD	00H
	DD	04H
	DD	0ffffffffH
	DD	00H
	DD	040H
	DD	FLAT:??_R3_Crt_new_delete@std@@8
rdata$r	ENDS
;	COMDAT ??_R0?AVsystem_error@std@@@8
data$r	SEGMENT
??_R0?AVsystem_error@std@@@8 DD FLAT:??_7type_info@@6B@	; std::system_error `RTTI Type Descriptor'
	DD	00H
	DB	'.?AVsystem_error@std@@', 00H
data$r	ENDS
;	COMDAT ??_R2_System_error@std@@8
rdata$r	SEGMENT
??_R2_System_error@std@@8 DD FLAT:??_R1A@?0A@EA@_System_error@std@@8 ; std::_System_error::`RTTI Base Class Array'
	DD	FLAT:??_R1A@?0A@EA@runtime_error@std@@8
	DD	FLAT:??_R1A@?0A@EA@exception@std@@8
rdata$r	ENDS
;	COMDAT ??_7?$num_put@DV?$ostreambuf_iterator@DU?$char_traits@D@std@@@std@@@std@@6B@
CONST	SEGMENT
??_7?$num_put@DV?$ostreambuf_iterator@DU?$char_traits@D@std@@@std@@@std@@6B@ DD FLAT:??_R4?$num_put@DV?$ostreambuf_iterator@DU?$char_traits@D@std@@@std@@@std@@6B@ ; std::num_put<char,std::ostreambuf_iterator<char,std::char_traits<char> > >::`vftable'
	DD	FLAT:??_E?$num_put@DV?$ostreambuf_iterator@DU?$char_traits@D@std@@@std@@@std@@MAEPAXI@Z
	DD	FLAT:?_Incref@facet@locale@std@@UAEXXZ
	DD	FLAT:?_Decref@facet@locale@std@@UAEPAV_Facet_base@3@XZ
	DD	FLAT:?do_put@?$num_put@DV?$ostreambuf_iterator@DU?$char_traits@D@std@@@std@@@std@@MBE?AV?$ostreambuf_iterator@DU?$char_traits@D@std@@@2@V32@AAVios_base@2@DPBX@Z
	DD	FLAT:?do_put@?$num_put@DV?$ostreambuf_iterator@DU?$char_traits@D@std@@@std@@@std@@MBE?AV?$ostreambuf_iterator@DU?$char_traits@D@std@@@2@V32@AAVios_base@2@DO@Z
	DD	FLAT:?do_put@?$num_put@DV?$ostreambuf_iterator@DU?$char_traits@D@std@@@std@@@std@@MBE?AV?$ostreambuf_iterator@DU?$char_traits@D@std@@@2@V32@AAVios_base@2@DN@Z
	DD	FLAT:?do_put@?$num_put@DV?$ostreambuf_iterator@DU?$char_traits@D@std@@@std@@@std@@MBE?AV?$ostreambuf_iterator@DU?$char_traits@D@std@@@2@V32@AAVios_base@2@D_K@Z
	DD	FLAT:?do_put@?$num_put@DV?$ostreambuf_iterator@DU?$char_traits@D@std@@@std@@@std@@MBE?AV?$ostreambuf_iterator@DU?$char_traits@D@std@@@2@V32@AAVios_base@2@D_J@Z
	DD	FLAT:?do_put@?$num_put@DV?$ostreambuf_iterator@DU?$char_traits@D@std@@@std@@@std@@MBE?AV?$ostreambuf_iterator@DU?$char_traits@D@std@@@2@V32@AAVios_base@2@DK@Z
	DD	FLAT:?do_put@?$num_put@DV?$ostreambuf_iterator@DU?$char_traits@D@std@@@std@@@std@@MBE?AV?$ostreambuf_iterator@DU?$char_traits@D@std@@@2@V32@AAVios_base@2@DJ@Z
	DD	FLAT:?do_put@?$num_put@DV?$ostreambuf_iterator@DU?$char_traits@D@std@@@std@@@std@@MBE?AV?$ostreambuf_iterator@DU?$char_traits@D@std@@@2@V32@AAVios_base@2@D_N@Z
CONST	ENDS
;	COMDAT ??_R1A@?0A@EA@runtime_error@std@@8
rdata$r	SEGMENT
??_R1A@?0A@EA@runtime_error@std@@8 DD FLAT:??_R0?AVruntime_error@std@@@8 ; std::runtime_error::`RTTI Base Class Descriptor at (0,-1,0,64)'
	DD	01H
	DD	00H
	DD	0ffffffffH
	DD	00H
	DD	040H
	DD	FLAT:??_R3runtime_error@std@@8
rdata$r	ENDS
;	COMDAT ??_R3_Crt_new_delete@std@@8
rdata$r	SEGMENT
??_R3_Crt_new_delete@std@@8 DD 00H			; std::_Crt_new_delete::`RTTI Class Hierarchy Descriptor'
	DD	00H
	DD	01H
	DD	FLAT:??_R2_Crt_new_delete@std@@8
rdata$r	ENDS
;	COMDAT ??_R3?$basic_ostringstream@DU?$char_traits@D@std@@V?$allocator@D@2@@std@@8
rdata$r	SEGMENT
??_R3?$basic_ostringstream@DU?$char_traits@D@std@@V?$allocator@D@2@@std@@8 DD 00H ; std::basic_ostringstream<char,std::char_traits<char>,std::allocator<char> >::`RTTI Class Hierarchy Descriptor'
	DD	00H
	DD	05H
	DD	FLAT:??_R2?$basic_ostringstream@DU?$char_traits@D@std@@V?$allocator@D@2@@std@@8
rdata$r	ENDS
;	COMDAT ??_R0?AV?$ctype@D@std@@@8
data$r	SEGMENT
??_R0?AV?$ctype@D@std@@@8 DD FLAT:??_7type_info@@6B@	; std::ctype<char> `RTTI Type Descriptor'
	DD	00H
	DB	'.?AV?$ctype@D@std@@', 00H
data$r	ENDS
;	COMDAT ??_R2?$basic_stringbuf@DU?$char_traits@D@std@@V?$allocator@D@2@@std@@8
rdata$r	SEGMENT
??_R2?$basic_stringbuf@DU?$char_traits@D@std@@V?$allocator@D@2@@std@@8 DD FLAT:??_R1A@?0A@EA@?$basic_stringbuf@DU?$char_traits@D@std@@V?$allocator@D@2@@std@@8 ; std::basic_stringbuf<char,std::char_traits<char>,std::allocator<char> >::`RTTI Base Class Array'
	DD	FLAT:??_R1A@?0A@EA@?$basic_streambuf@DU?$char_traits@D@std@@@std@@8
rdata$r	ENDS
;	COMDAT ??_R0?AVerror_category@std@@@8
data$r	SEGMENT
??_R0?AVerror_category@std@@@8 DD FLAT:??_7type_info@@6B@ ; std::error_category `RTTI Type Descriptor'
	DD	00H
	DB	'.?AVerror_category@std@@', 00H
data$r	ENDS
;	COMDAT ??_7ios_base@std@@6B@
CONST	SEGMENT
??_7ios_base@std@@6B@ DD FLAT:??_R4ios_base@std@@6B@	; std::ios_base::`vftable'
	DD	FLAT:??_Eios_base@std@@UAEPAXI@Z
CONST	ENDS
;	COMDAT ??_R0?AVios_base@std@@@8
data$r	SEGMENT
??_R0?AVios_base@std@@@8 DD FLAT:??_7type_info@@6B@	; std::ios_base `RTTI Type Descriptor'
	DD	00H
	DB	'.?AVios_base@std@@', 00H
data$r	ENDS
;	COMDAT ??_R2bad_alloc@std@@8
rdata$r	SEGMENT
??_R2bad_alloc@std@@8 DD FLAT:??_R1A@?0A@EA@bad_alloc@std@@8 ; std::bad_alloc::`RTTI Base Class Array'
	DD	FLAT:??_R1A@?0A@EA@exception@std@@8
rdata$r	ENDS
;	COMDAT ??_R0?AV?$basic_stringbuf@DU?$char_traits@D@std@@V?$allocator@D@2@@std@@@8
data$r	SEGMENT
??_R0?AV?$basic_stringbuf@DU?$char_traits@D@std@@V?$allocator@D@2@@std@@@8 DD FLAT:??_7type_info@@6B@ ; std::basic_stringbuf<char,std::char_traits<char>,std::allocator<char> > `RTTI Type Descriptor'
	DD	00H
	DB	'.?AV?$basic_stringbuf@DU?$char_traits@D@std@@V?$allocato'
	DB	'r@D@2@@std@@', 00H
data$r	ENDS
;	COMDAT ??_R1A@?0A@EA@bad_cast@std@@8
rdata$r	SEGMENT
??_R1A@?0A@EA@bad_cast@std@@8 DD FLAT:??_R0?AVbad_cast@std@@@8 ; std::bad_cast::`RTTI Base Class Descriptor at (0,-1,0,64)'
	DD	01H
	DD	00H
	DD	0ffffffffH
	DD	00H
	DD	040H
	DD	FLAT:??_R3bad_cast@std@@8
rdata$r	ENDS
;	COMDAT ??_R3_Facet_base@std@@8
rdata$r	SEGMENT
??_R3_Facet_base@std@@8 DD 00H				; std::_Facet_base::`RTTI Class Hierarchy Descriptor'
	DD	00H
	DD	01H
	DD	FLAT:??_R2_Facet_base@std@@8
rdata$r	ENDS
;	COMDAT ??_R4_System_error@std@@6B@
rdata$r	SEGMENT
??_R4_System_error@std@@6B@ DD 00H			; std::_System_error::`RTTI Complete Object Locator'
	DD	00H
	DD	00H
	DD	FLAT:??_R0?AV_System_error@std@@@8
	DD	FLAT:??_R3_System_error@std@@8
rdata$r	ENDS
;	COMDAT ??_R4runtime_error@std@@6B@
rdata$r	SEGMENT
??_R4runtime_error@std@@6B@ DD 00H			; std::runtime_error::`RTTI Complete Object Locator'
	DD	00H
	DD	00H
	DD	FLAT:??_R0?AVruntime_error@std@@@8
	DD	FLAT:??_R3runtime_error@std@@8
rdata$r	ENDS
;	COMDAT ?_Iostream_error@?4??message@_Iostream_error_category2@std@@UBE?AV?$basic_string@DU?$char_traits@D@std@@V?$allocator@D@2@@3@H@Z@4QBDB
CONST	SEGMENT
?_Iostream_error@?4??message@_Iostream_error_category2@std@@UBE?AV?$basic_string@DU?$char_traits@D@std@@V?$allocator@D@2@@3@H@Z@4QBDB DB 069H ; `std::_Iostream_error_category2::message'::`5'::_Iostream_error
	DB	06fH
	DB	073H
	DB	074H
	DB	072H
	DB	065H
	DB	061H
	DB	06dH
	DB	020H
	DB	073H
	DB	074H
	DB	072H
	DB	065H
	DB	061H
	DB	06dH
	DB	020H
	DB	065H
	DB	072H
	DB	072H
	DB	06fH
	DB	072H
	DB	00H
CONST	ENDS
;	COMDAT ??_R2?$num_put@DV?$ostreambuf_iterator@DU?$char_traits@D@std@@@std@@@std@@8
rdata$r	SEGMENT
??_R2?$num_put@DV?$ostreambuf_iterator@DU?$char_traits@D@std@@@std@@@std@@8 DD FLAT:??_R1A@?0A@EA@?$num_put@DV?$ostreambuf_iterator@DU?$char_traits@D@std@@@std@@@std@@8 ; std::num_put<char,std::ostreambuf_iterator<char,std::char_traits<char> > >::`RTTI Base Class Array'
	DD	FLAT:??_R1A@?0A@EA@facet@locale@std@@8
	DD	FLAT:??_R1A@?0A@EA@_Facet_base@std@@8
	DD	FLAT:??_R13?0A@EA@_Crt_new_delete@std@@8
rdata$r	ENDS
;	COMDAT ??_7?$basic_ostringstream@DU?$char_traits@D@std@@V?$allocator@D@2@@std@@6B@
CONST	SEGMENT
??_7?$basic_ostringstream@DU?$char_traits@D@std@@V?$allocator@D@2@@std@@6B@ DD FLAT:??_R4?$basic_ostringstream@DU?$char_traits@D@std@@V?$allocator@D@2@@std@@6B@ ; std::basic_ostringstream<char,std::char_traits<char>,std::allocator<char> >::`vftable'
	DD	FLAT:??_E?$basic_ostringstream@DU?$char_traits@D@std@@V?$allocator@D@2@@std@@$4PPPPPPPM@A@AEPAXI@Z
CONST	ENDS
;	COMDAT ??_7?$numpunct@D@std@@6B@
CONST	SEGMENT
??_7?$numpunct@D@std@@6B@ DD FLAT:??_R4?$numpunct@D@std@@6B@ ; std::numpunct<char>::`vftable'
	DD	FLAT:??_E?$numpunct@D@std@@MAEPAXI@Z
	DD	FLAT:?_Incref@facet@locale@std@@UAEXXZ
	DD	FLAT:?_Decref@facet@locale@std@@UAEPAV_Facet_base@3@XZ
	DD	FLAT:?do_decimal_point@?$numpunct@D@std@@MBEDXZ
	DD	FLAT:?do_thousands_sep@?$numpunct@D@std@@MBEDXZ
	DD	FLAT:?do_grouping@?$numpunct@D@std@@MBE?AV?$basic_string@DU?$char_traits@D@std@@V?$allocator@D@2@@2@XZ
	DD	FLAT:?do_falsename@?$numpunct@D@std@@MBE?AV?$basic_string@DU?$char_traits@D@std@@V?$allocator@D@2@@2@XZ
	DD	FLAT:?do_truename@?$numpunct@D@std@@MBE?AV?$basic_string@DU?$char_traits@D@std@@V?$allocator@D@2@@2@XZ
CONST	ENDS
;	COMDAT ??_R3?$ctype@D@std@@8
rdata$r	SEGMENT
??_R3?$ctype@D@std@@8 DD 00H				; std::ctype<char>::`RTTI Class Hierarchy Descriptor'
	DD	01H
	DD	05H
	DD	FLAT:??_R2?$ctype@D@std@@8
rdata$r	ENDS
;	COMDAT ??_R0?AVbad_alloc@std@@@8
data$r	SEGMENT
??_R0?AVbad_alloc@std@@@8 DD FLAT:??_7type_info@@6B@	; std::bad_alloc `RTTI Type Descriptor'
	DD	00H
	DB	'.?AVbad_alloc@std@@', 00H
data$r	ENDS
;	COMDAT ??_R4?$basic_ostream@DU?$char_traits@D@std@@@std@@6B@
rdata$r	SEGMENT
??_R4?$basic_ostream@DU?$char_traits@D@std@@@std@@6B@ DD 00H ; std::basic_ostream<char,std::char_traits<char> >::`RTTI Complete Object Locator'
	DD	08H
	DD	04H
	DD	FLAT:??_R0?AV?$basic_ostream@DU?$char_traits@D@std@@@std@@@8
	DD	FLAT:??_R3?$basic_ostream@DU?$char_traits@D@std@@@std@@8
rdata$r	ENDS
;	COMDAT ??_R1A@?0A@EA@system_error@std@@8
rdata$r	SEGMENT
??_R1A@?0A@EA@system_error@std@@8 DD FLAT:??_R0?AVsystem_error@std@@@8 ; std::system_error::`RTTI Base Class Descriptor at (0,-1,0,64)'
	DD	03H
	DD	00H
	DD	0ffffffffH
	DD	00H
	DD	040H
	DD	FLAT:??_R3system_error@std@@8
rdata$r	ENDS
;	COMDAT ??_R4facet@locale@std@@6B@
rdata$r	SEGMENT
??_R4facet@locale@std@@6B@ DD 00H			; std::locale::facet::`RTTI Complete Object Locator'
	DD	00H
	DD	00H
	DD	FLAT:??_R0?AVfacet@locale@std@@@8
	DD	FLAT:??_R3facet@locale@std@@8
rdata$r	ENDS
;	COMDAT ??_R2system_error@std@@8
rdata$r	SEGMENT
??_R2system_error@std@@8 DD FLAT:??_R1A@?0A@EA@system_error@std@@8 ; std::system_error::`RTTI Base Class Array'
	DD	FLAT:??_R1A@?0A@EA@_System_error@std@@8
	DD	FLAT:??_R1A@?0A@EA@runtime_error@std@@8
	DD	FLAT:??_R1A@?0A@EA@exception@std@@8
rdata$r	ENDS
;	COMDAT ??_R2bad_array_new_length@std@@8
rdata$r	SEGMENT
??_R2bad_array_new_length@std@@8 DD FLAT:??_R1A@?0A@EA@bad_array_new_length@std@@8 ; std::bad_array_new_length::`RTTI Base Class Array'
	DD	FLAT:??_R1A@?0A@EA@bad_alloc@std@@8
	DD	FLAT:??_R1A@?0A@EA@exception@std@@8
rdata$r	ENDS
;	COMDAT ??_7?$basic_streambuf@DU?$char_traits@D@std@@@std@@6B@
CONST	SEGMENT
??_7?$basic_streambuf@DU?$char_traits@D@std@@@std@@6B@ DD FLAT:??_R4?$basic_streambuf@DU?$char_traits@D@std@@@std@@6B@ ; std::basic_streambuf<char,std::char_traits<char> >::`vftable'
	DD	FLAT:??_E?$basic_streambuf@DU?$char_traits@D@std@@@std@@UAEPAXI@Z
	DD	FLAT:?_Lock@?$basic_streambuf@DU?$char_traits@D@std@@@std@@UAEXXZ
	DD	FLAT:?_Unlock@?$basic_streambuf@DU?$char_traits@D@std@@@std@@UAEXXZ
	DD	FLAT:?overflow@?$basic_streambuf@DU?$char_traits@D@std@@@std@@MAEHH@Z
	DD	FLAT:?pbackfail@?$basic_streambuf@DU?$char_traits@D@std@@@std@@MAEHH@Z
	DD	FLAT:?showmanyc@?$basic_streambuf@DU?$char_traits@D@std@@@std@@MAE_JXZ
	DD	FLAT:?underflow@?$basic_streambuf@DU?$char_traits@D@std@@@std@@MAEHXZ
	DD	FLAT:?uflow@?$basic_streambuf@DU?$char_traits@D@std@@@std@@MAEHXZ
	DD	FLAT:?xsgetn@?$basic_streambuf@DU?$char_traits@D@std@@@std@@MAE_JPAD_J@Z
	DD	FLAT:?xsputn@?$basic_streambuf@DU?$char_traits@D@std@@@std@@MAE_JPBD_J@Z
	DD	FLAT:?seekoff@?$basic_streambuf@DU?$char_traits@D@std@@@std@@MAE?AV?$fpos@U_Mbstatet@@@2@_JHH@Z
	DD	FLAT:?seekpos@?$basic_streambuf@DU?$char_traits@D@std@@@std@@MAE?AV?$fpos@U_Mbstatet@@@2@V32@H@Z
	DD	FLAT:?setbuf@?$basic_streambuf@DU?$char_traits@D@std@@@std@@MAEPAV12@PAD_J@Z
	DD	FLAT:?sync@?$basic_streambuf@DU?$char_traits@D@std@@@std@@MAEHXZ
	DD	FLAT:?imbue@?$basic_streambuf@DU?$char_traits@D@std@@@std@@MAEXABVlocale@2@@Z
CONST	ENDS
;	COMDAT ??_R4Exception@@6B@
rdata$r	SEGMENT
??_R4Exception@@6B@ DD 00H				; Exception::`RTTI Complete Object Locator'
	DD	00H
	DD	00H
	DD	FLAT:??_R0?AVException@@@8
	DD	FLAT:??_R3Exception@@8
rdata$r	ENDS
;	COMDAT ??_R4exception@std@@6B@
rdata$r	SEGMENT
??_R4exception@std@@6B@ DD 00H				; std::exception::`RTTI Complete Object Locator'
	DD	00H
	DD	00H
	DD	FLAT:??_R0?AVexception@std@@@8
	DD	FLAT:??_R3exception@std@@8
rdata$r	ENDS
;	COMDAT ??_R0?AVruntime_error@std@@@8
data$r	SEGMENT
??_R0?AVruntime_error@std@@@8 DD FLAT:??_7type_info@@6B@ ; std::runtime_error `RTTI Type Descriptor'
	DD	00H
	DB	'.?AVruntime_error@std@@', 00H
data$r	ENDS
;	COMDAT ??_R0?AVfailure@ios_base@std@@@8
data$r	SEGMENT
??_R0?AVfailure@ios_base@std@@@8 DD FLAT:??_7type_info@@6B@ ; std::ios_base::failure `RTTI Type Descriptor'
	DD	00H
	DB	'.?AVfailure@ios_base@std@@', 00H
data$r	ENDS
;	COMDAT ??_R4?$basic_ostringstream@DU?$char_traits@D@std@@V?$allocator@D@2@@std@@6B@
rdata$r	SEGMENT
??_R4?$basic_ostringstream@DU?$char_traits@D@std@@V?$allocator@D@2@@std@@6B@ DD 00H ; std::basic_ostringstream<char,std::char_traits<char>,std::allocator<char> >::`RTTI Complete Object Locator'
	DD	050H
	DD	04H
	DD	FLAT:??_R0?AV?$basic_ostringstream@DU?$char_traits@D@std@@V?$allocator@D@2@@std@@@8
	DD	FLAT:??_R3?$basic_ostringstream@DU?$char_traits@D@std@@V?$allocator@D@2@@std@@8
rdata$r	ENDS
;	COMDAT ??_C@_0BI@CFPLBAOH@invalid?5string?5position@
CONST	SEGMENT
??_C@_0BI@CFPLBAOH@invalid?5string?5position@ DB 'invalid string position'
	DB	00H						; `string'
CONST	ENDS
;	COMDAT ??_C@_01LFCBOECM@?4@
CONST	SEGMENT
??_C@_01LFCBOECM@?4@ DB '.', 00H			; `string'
CONST	ENDS
;	COMDAT ??_C@_02OOPEBDOJ@pP@
CONST	SEGMENT
??_C@_02OOPEBDOJ@pP@ DB 'pP', 00H			; `string'
CONST	ENDS
;	COMDAT ??_C@_02MDKMJEGG@eE@
CONST	SEGMENT
??_C@_02MDKMJEGG@eE@ DB 'eE', 00H			; `string'
CONST	ENDS
;	COMDAT ??_C@_02EAOCLKAK@ld@
CONST	SEGMENT
??_C@_02EAOCLKAK@ld@ DB 'ld', 00H			; `string'
CONST	ENDS
;	COMDAT ??_C@_02BDDLJJBK@lu@
CONST	SEGMENT
??_C@_02BDDLJJBK@lu@ DB 'lu', 00H			; `string'
CONST	ENDS
;	COMDAT ??_C@_02HIKPPMOK@Ld@
CONST	SEGMENT
??_C@_02HIKPPMOK@Ld@ DB 'Ld', 00H			; `string'
CONST	ENDS
;	COMDAT ??_C@_02CLHGNPPK@Lu@
CONST	SEGMENT
??_C@_02CLHGNPPK@Lu@ DB 'Lu', 00H			; `string'
CONST	ENDS
;	COMDAT ??_C@_02BBAHNLBA@?$CFp@
CONST	SEGMENT
??_C@_02BBAHNLBA@?$CFp@ DB '%p', 00H			; `string'
CONST	ENDS
;	COMDAT ??_C@_07DLGLNFOL@?$FLFile?$FN?5@
CONST	SEGMENT
??_C@_07DLGLNFOL@?$FLFile?$FN?5@ DB '[File] ', 00H	; `string'
CONST	ENDS
;	COMDAT ??_C@_07OFNLNJMF@?$FLLine?$FN?5@
CONST	SEGMENT
??_C@_07OFNLNJMF@?$FLLine?$FN?5@ DB '[Line] ', 00H	; `string'
CONST	ENDS
;	COMDAT ??_C@_0BC@JDPAADN@Regular?5Exception@
CONST	SEGMENT
??_C@_0BC@JDPAADN@Regular?5Exception@ DB 'Regular Exception', 00H ; `string'
CONST	ENDS
;	COMDAT ??_C@_0BF@OOHOMBOF@ios_base?3?3eofbit?5set@
CONST	SEGMENT
??_C@_0BF@OOHOMBOF@ios_base?3?3eofbit?5set@ DB 'ios_base::eofbit set', 00H ; `string'
CONST	ENDS
;	COMDAT ??_C@_0BG@FMKFHCIL@ios_base?3?3failbit?5set@
CONST	SEGMENT
??_C@_0BG@FMKFHCIL@ios_base?3?3failbit?5set@ DB 'ios_base::failbit set', 00H ; `string'
CONST	ENDS
;	COMDAT ??_C@_0BF@PHHKMMFD@ios_base?3?3badbit?5set@
CONST	SEGMENT
??_C@_0BF@PHHKMMFD@ios_base?3?3badbit?5set@ DB 'ios_base::badbit set', 00H ; `string'
CONST	ENDS
;	COMDAT ??_C@_04LOAJBDKD@true@
CONST	SEGMENT
??_C@_04LOAJBDKD@true@ DB 'true', 00H			; `string'
CONST	ENDS
;	COMDAT ??_C@_05LAPONLG@false@
CONST	SEGMENT
??_C@_05LAPONLG@false@ DB 'false', 00H			; `string'
CONST	ENDS
;	COMDAT ??_C@_0BA@ELKIONDK@bad?5locale?5name@
CONST	SEGMENT
??_C@_0BA@ELKIONDK@bad?5locale?5name@ DB 'bad locale name', 00H ; `string'
CONST	ENDS
;	COMDAT ??_C@_08EPJLHIJG@bad?5cast@
CONST	SEGMENT
??_C@_08EPJLHIJG@bad?5cast@ DB 'bad cast', 00H		; `string'
CONST	ENDS
;	COMDAT ??_C@_08LLGCOLLL@iostream@
CONST	SEGMENT
??_C@_08LLGCOLLL@iostream@ DB 'iostream', 00H		; `string'
CONST	ENDS
;	COMDAT ??_C@_00CNPNBAHC@@
CONST	SEGMENT
??_C@_00CNPNBAHC@@ DB 00H				; `string'
CONST	ENDS
;	COMDAT ??_C@_02LMMGGCAJ@?3?5@
CONST	SEGMENT
??_C@_02LMMGGCAJ@?3?5@ DB ': ', 00H			; `string'
CONST	ENDS
;	COMDAT ??_C@_0BA@JFNIOLAK@string?5too?5long@
CONST	SEGMENT
??_C@_0BA@JFNIOLAK@string?5too?5long@ DB 'string too long', 00H ; `string'
CONST	ENDS
;	COMDAT ??_C@_0BF@KINCDENJ@bad?5array?5new?5length@
CONST	SEGMENT
??_C@_0BF@KINCDENJ@bad?5array?5new?5length@ DB 'bad array new length', 00H ; `string'
CONST	ENDS
;	COMDAT ??_C@_0BC@EOODALEL@Unknown?5exception@
CONST	SEGMENT
??_C@_0BC@EOODALEL@Unknown?5exception@ DB 'Unknown exception', 00H ; `string'
PUBLIC	??_E?$basic_ostringstream@DU?$char_traits@D@std@@V?$allocator@D@2@@std@@$4PPPPPPPM@A@AEPAXI@Z ; std::basic_ostringstream<char,std::char_traits<char>,std::allocator<char> >::`vector deleting destructor'
PUBLIC	??_E?$basic_ostream@DU?$char_traits@D@std@@@std@@$4PPPPPPPM@A@AEPAXI@Z ; std::basic_ostream<char,std::char_traits<char> >::`vector deleting destructor'
PUBLIC	??$forward@AAPAV_Facet_base@std@@@std@@YAAAPAV_Facet_base@0@AAPAV10@@Z ; std::forward<std::_Facet_base * &>
PUBLIC	??$?0AAPAV_Facet_base@std@@@?$_Compressed_pair@U?$default_delete@V_Facet_base@std@@@std@@PAV_Facet_base@2@$00@std@@QAE@U_Zero_then_variadic_args_t@1@AAPAV_Facet_base@1@@Z ; std::_Compressed_pair<std::default_delete<std::_Facet_base>,std::_Facet_base *,1>::_Compressed_pair<std::default_delete<std::_Facet_base>,std::_Facet_base *,1><std::_Facet_base * &>
PUBLIC	??$_Getvals@D@?$numpunct@D@std@@IAEXDPBUlconv@@U_Cvtvec@@@Z ; std::numpunct<char>::_Getvals<char>
PUBLIC	??$_Maklocchr@D@std@@YADDPADABU_Cvtvec@@@Z	; std::_Maklocchr<char>
PUBLIC	??$exchange@PAV_Facet_base@std@@PAV12@@std@@YAPAV_Facet_base@0@AAPAV10@$$QAPAV10@@Z ; std::exchange<std::_Facet_base *,std::_Facet_base *>
PUBLIC	??$_Allocate_manually_vector_aligned@U_Default_allocate_traits@std@@@std@@YAPAXI@Z ; std::_Allocate_manually_vector_aligned<std::_Default_allocate_traits>
PUBLIC	??$forward@ABQAD@std@@YAABQADABQAD@Z		; std::forward<char * const &>
PUBLIC	??$addressof@PAD@std@@YAPAPADAAPAD@Z		; std::addressof<char *>
PUBLIC	??$forward@V?$allocator@D@std@@@std@@YA$$QAV?$allocator@D@0@AAV10@@Z ; std::forward<std::allocator<char> >
PUBLIC	??$?0U?$default_delete@V_Facet_base@std@@@std@@$0A@@?$unique_ptr@V_Facet_base@std@@U?$default_delete@V_Facet_base@std@@@2@@std@@QAE@PAV_Facet_base@1@@Z ; std::unique_ptr<std::_Facet_base,std::default_delete<std::_Facet_base> >::unique_ptr<std::_Facet_base,std::default_delete<std::_Facet_base> ><std::default_delete<std::_Facet_base>,0>
PUBLIC	??$_Maklocstr@D@std@@YAPADPBDPADABU_Cvtvec@@@Z	; std::_Maklocstr<char>
PUBLIC	??1?$_Tidy_guard@V?$numpunct@D@std@@@std@@QAE@XZ ; std::_Tidy_guard<std::numpunct<char> >::~_Tidy_guard<std::numpunct<char> >
PUBLIC	?_Init@?$num_put@DV?$ostreambuf_iterator@DU?$char_traits@D@std@@@std@@@std@@IAEXABV_Locinfo@2@@Z ; std::num_put<char,std::ostreambuf_iterator<char,std::char_traits<char> > >::_Init
PUBLIC	?_Init@?$numpunct@D@std@@IAEXABV_Locinfo@2@_N@Z	; std::numpunct<char>::_Init
PUBLIC	??0_Bxty@?$_String_val@U?$_Simple_types@D@std@@@std@@QAE@XZ ; std::_String_val<std::_Simple_types<char> >::_Bxty::_Bxty
PUBLIC	?_Calculate_growth@?$basic_string@DU?$char_traits@D@std@@V?$allocator@D@2@@std@@CAIIII@Z ; std::basic_string<char,std::char_traits<char>,std::allocator<char> >::_Calculate_growth
PUBLIC	??0?$num_put@DV?$ostreambuf_iterator@DU?$char_traits@D@std@@@std@@@std@@QAE@ABV_Locinfo@1@I@Z ; std::num_put<char,std::ostreambuf_iterator<char,std::char_traits<char> > >::num_put<char,std::ostreambuf_iterator<char,std::char_traits<char> > >
PUBLIC	??0?$numpunct@D@std@@QAE@ABV_Locinfo@1@I_N@Z	; std::numpunct<char>::numpunct<char>
PUBLIC	??R?$default_delete@V_Facet_base@std@@@std@@QBEXPAV_Facet_base@1@@Z ; std::default_delete<std::_Facet_base>::operator()
PUBLIC	?_Get_first@?$_Compressed_pair@U?$default_delete@V_Facet_base@std@@@std@@PAV_Facet_base@2@$00@std@@QAEAAU?$default_delete@V_Facet_base@std@@@2@XZ ; std::_Compressed_pair<std::default_delete<std::_Facet_base>,std::_Facet_base *,1>::_Get_first
PUBLIC	?__autoclassinit2@?$numpunct@D@std@@QAEXI@Z	; std::numpunct<char>::__autoclassinit2
PUBLIC	??0?$_String_val@U?$_Simple_types@D@std@@@std@@QAE@XZ ; std::_String_val<std::_Simple_types<char> >::_String_val<std::_Simple_types<char> >
PUBLIC	?_Calculate_growth@?$basic_string@DU?$char_traits@D@std@@V?$allocator@D@2@@std@@ABEII@Z ; std::basic_string<char,std::char_traits<char>,std::allocator<char> >::_Calculate_growth
PUBLIC	?_Getcat@?$num_put@DV?$ostreambuf_iterator@DU?$char_traits@D@std@@@std@@@std@@SAIPAPBVfacet@locale@2@PBV42@@Z ; std::num_put<char,std::ostreambuf_iterator<char,std::char_traits<char> > >::_Getcat
PUBLIC	?_Getcat@?$numpunct@D@std@@SAIPAPBVfacet@locale@2@PBV42@@Z ; std::numpunct<char>::_Getcat
PUBLIC	??1?$unique_ptr@V_Facet_base@std@@U?$default_delete@V_Facet_base@std@@@2@@std@@QAE@XZ ; std::unique_ptr<std::_Facet_base,std::default_delete<std::_Facet_base> >::~unique_ptr<std::_Facet_base,std::default_delete<std::_Facet_base> >
PUBLIC	?release@?$unique_ptr@V_Facet_base@std@@U?$default_delete@V_Facet_base@std@@@2@@std@@QAEPAV_Facet_base@2@XZ ; std::unique_ptr<std::_Facet_base,std::default_delete<std::_Facet_base> >::release
PUBLIC	?__autoclassinit2@?$unique_ptr@V_Facet_base@std@@U?$default_delete@V_Facet_base@std@@@2@@std@@QAEXI@Z ; std::unique_ptr<std::_Facet_base,std::default_delete<std::_Facet_base> >::__autoclassinit2
PUBLIC	??$_Reallocate_grow_by@V<lambda_c1b8c41cb4019640539cfd828748c4d4>@@ID@?$basic_string@DU?$char_traits@D@std@@V?$allocator@D@2@@std@@AAEAAV01@IV<lambda_c1b8c41cb4019640539cfd828748c4d4>@@ID@Z ; std::basic_string<char,std::char_traits<char>,std::allocator<char> >::_Reallocate_grow_by<<lambda_c1b8c41cb4019640539cfd828748c4d4>,unsigned int,char>
PUBLIC	??$_Reallocate_grow_by@V<lambda_6607a66f2a10a1261ff9db96cba1015b>@@IID@?$basic_string@DU?$char_traits@D@std@@V?$allocator@D@2@@std@@AAEAAV01@IV<lambda_6607a66f2a10a1261ff9db96cba1015b>@@IID@Z ; std::basic_string<char,std::char_traits<char>,std::allocator<char> >::_Reallocate_grow_by<<lambda_6607a66f2a10a1261ff9db96cba1015b>,unsigned int,unsigned int,char>
PUBLIC	??$addressof@$$CBV?$_String_val@U?$_Simple_types@D@std@@@std@@@std@@YAPBV?$_String_val@U?$_Simple_types@D@std@@@0@ABV10@@Z ; std::addressof<std::_String_val<std::_Simple_types<char> > const >
PUBLIC	??$addressof@V?$_String_val@U?$_Simple_types@D@std@@@std@@@std@@YAPAV?$_String_val@U?$_Simple_types@D@std@@@0@AAV10@@Z ; std::addressof<std::_String_val<std::_Simple_types<char> > >
PUBLIC	??$_Deallocate@$07$0A@@std@@YAXPAXI@Z		; std::_Deallocate<8,0>
PUBLIC	??$_Allocate@$07U_Default_allocate_traits@std@@$0A@@std@@YAPAXI@Z ; std::_Allocate<8,std::_Default_allocate_traits,0>
PUBLIC	??$_Get_size_of_n@$00@std@@YAII@Z		; std::_Get_size_of_n<1>
PUBLIC	??$_Pocma@V?$allocator@D@std@@@std@@YAXAAV?$allocator@D@0@0@Z ; std::_Pocma<std::allocator<char> >
PUBLIC	??$_Construct_in_place@PADABQAD@std@@YAXAAPADABQAD@Z ; std::_Construct_in_place<char *,char * const &>
PUBLIC	??$min@I@std@@YAABIABI0@Z			; std::min<unsigned int>
PUBLIC	??$_Reallocate_grow_by@V<lambda_ab246b20b9526e2ef7792587e4298a77>@@PBDI@?$basic_string@DU?$char_traits@D@std@@V?$allocator@D@2@@std@@AAEAAV01@IV<lambda_ab246b20b9526e2ef7792587e4298a77>@@PBDI@Z ; std::basic_string<char,std::char_traits<char>,std::allocator<char> >::_Reallocate_grow_by<<lambda_ab246b20b9526e2ef7792587e4298a77>,char const *,unsigned int>
PUBLIC	??$_Reallocate_for@V<lambda_9366063389c5f42a00a5088cf24e69de>@@PBD@?$basic_string@DU?$char_traits@D@std@@V?$allocator@D@2@@std@@AAEAAV01@IV<lambda_9366063389c5f42a00a5088cf24e69de>@@PBD@Z ; std::basic_string<char,std::char_traits<char>,std::allocator<char> >::_Reallocate_for<<lambda_9366063389c5f42a00a5088cf24e69de>,char const *>
PUBLIC	??$_Reallocate_for@V<lambda_c6753c90be971fc9cc00b4f35f237a75>@@D@?$basic_string@DU?$char_traits@D@std@@V?$allocator@D@2@@std@@AAEAAV01@IV<lambda_c6753c90be971fc9cc00b4f35f237a75>@@D@Z ; std::basic_string<char,std::char_traits<char>,std::allocator<char> >::_Reallocate_for<<lambda_c6753c90be971fc9cc00b4f35f237a75>,char>
PUBLIC	??$_Destroy_in_place@PAD@std@@YAXAAPAD@Z	; std::_Destroy_in_place<char *>
PUBLIC	??$addressof@D@std@@YAPADAAD@Z			; std::addressof<char>
PUBLIC	??$move@AAV?$basic_string@DU?$char_traits@D@std@@V?$allocator@D@2@@std@@@std@@YA$$QAV?$basic_string@DU?$char_traits@D@std@@V?$allocator@D@2@@0@AAV10@@Z ; std::move<std::basic_string<char,std::char_traits<char>,std::allocator<char> > &>
PUBLIC	??$use_facet@V?$numpunct@D@std@@@std@@YAABV?$numpunct@D@0@ABVlocale@0@@Z ; std::use_facet<std::numpunct<char> >
PUBLIC	??$?0$$V@?$_Compressed_pair@V?$allocator@D@std@@V?$_String_val@U?$_Simple_types@D@std@@@2@$00@std@@QAE@U_Zero_then_variadic_args_t@1@@Z ; std::_Compressed_pair<std::allocator<char>,std::_String_val<std::_Simple_types<char> >,1>::_Compressed_pair<std::allocator<char>,std::_String_val<std::_Simple_types<char> >,1><>
PUBLIC	??$?0V?$allocator@D@std@@$$V@?$_Compressed_pair@V?$allocator@D@std@@V?$_String_val@U?$_Simple_types@D@std@@@2@$00@std@@QAE@U_One_then_variadic_args_t@1@$$QAV?$allocator@D@1@@Z ; std::_Compressed_pair<std::allocator<char>,std::_String_val<std::_Simple_types<char> >,1>::_Compressed_pair<std::allocator<char>,std::_String_val<std::_Simple_types<char> >,1><std::allocator<char> >
PUBLIC	??$move@AAV?$allocator@D@std@@@std@@YA$$QAV?$allocator@D@0@AAV10@@Z ; std::move<std::allocator<char> &>
PUBLIC	??$addressof@V?$basic_string@DU?$char_traits@D@std@@V?$allocator@D@2@@std@@@std@@YAPAV?$basic_string@DU?$char_traits@D@std@@V?$allocator@D@2@@0@AAV10@@Z ; std::addressof<std::basic_string<char,std::char_traits<char>,std::allocator<char> > >
PUBLIC	??$use_facet@V?$num_put@DV?$ostreambuf_iterator@DU?$char_traits@D@std@@@std@@@std@@@std@@YAABV?$num_put@DV?$ostreambuf_iterator@DU?$char_traits@D@std@@@std@@@0@ABVlocale@0@@Z ; std::use_facet<std::num_put<char,std::ostreambuf_iterator<char,std::char_traits<char> > > >
PUBLIC	??$_Unfancy@D@std@@YAPADPAD@Z			; std::_Unfancy<char>
PUBLIC	??$max@PAD@std@@YAABQADABQAD0@Z			; std::max<char *>
PUBLIC	??$_Adl_verify_range@PADPBD@std@@YAXABQADABQBD@Z ; std::_Adl_verify_range<char *,char const *>
PUBLIC	??$use_facet@V?$ctype@D@std@@@std@@YAABV?$ctype@D@0@ABVlocale@0@@Z ; std::use_facet<std::ctype<char> >
PUBLIC	??$_Adl_verify_range@PBDPBD@std@@YAXABQBD0@Z	; std::_Adl_verify_range<char const *,char const *>
PUBLIC	?_Xran@?$_String_val@U?$_Simple_types@D@std@@@std@@SAXXZ ; std::_String_val<std::_Simple_types<char> >::_Xran
PUBLIC	?_Check_offset@?$_String_val@U?$_Simple_types@D@std@@@std@@QBEXI@Z ; std::_String_val<std::_Simple_types<char> >::_Check_offset
PUBLIC	?sputc@?$basic_streambuf@DU?$char_traits@D@std@@@std@@QAEHD@Z ; std::basic_streambuf<char,std::char_traits<char> >::sputc
PUBLIC	?max_size@?$_Default_allocator_traits@V?$allocator@D@std@@@std@@SAIABV?$allocator@D@2@@Z ; std::_Default_allocator_traits<std::allocator<char> >::max_size
PUBLIC	??R<lambda_c1b8c41cb4019640539cfd828748c4d4>@@QBEXQADQBDIID@Z ; <lambda_c1b8c41cb4019640539cfd828748c4d4>::operator()
PUBLIC	?append@?$basic_string@DU?$char_traits@D@std@@V?$allocator@D@2@@std@@QAEAAV12@ID@Z ; std::basic_string<char,std::char_traits<char>,std::allocator<char> >::append
PUBLIC	??R<lambda_6607a66f2a10a1261ff9db96cba1015b>@@QBEXQADQBDIIID@Z ; <lambda_6607a66f2a10a1261ff9db96cba1015b>::operator()
PUBLIC	?insert@?$basic_string@DU?$char_traits@D@std@@V?$allocator@D@2@@std@@QAEAAV12@IID@Z ; std::basic_string<char,std::char_traits<char>,std::allocator<char> >::insert
PUBLIC	??A?$basic_string@DU?$char_traits@D@std@@V?$allocator@D@2@@std@@QBEABDI@Z ; std::basic_string<char,std::char_traits<char>,std::allocator<char> >::operator[]
PUBLIC	?_Eos@?$basic_string@DU?$char_traits@D@std@@V?$allocator@D@2@@std@@AAEXI@Z ; std::basic_string<char,std::char_traits<char>,std::allocator<char> >::_Eos
PUBLIC	??4?$ostreambuf_iterator@DU?$char_traits@D@std@@@std@@QAEAAV01@D@Z ; std::ostreambuf_iterator<char,std::char_traits<char> >::operator=
PUBLIC	??D?$ostreambuf_iterator@DU?$char_traits@D@std@@@std@@QAEAAV01@XZ ; std::ostreambuf_iterator<char,std::char_traits<char> >::operator*
PUBLIC	??E?$ostreambuf_iterator@DU?$char_traits@D@std@@@std@@QAEAAV01@XZ ; std::ostreambuf_iterator<char,std::char_traits<char> >::operator++
PUBLIC	?decimal_point@?$numpunct@D@std@@QBEDXZ		; std::numpunct<char>::decimal_point
PUBLIC	?thousands_sep@?$numpunct@D@std@@QBEDXZ		; std::numpunct<char>::thousands_sep
PUBLIC	?grouping@?$numpunct@D@std@@QBE?AV?$basic_string@DU?$char_traits@D@std@@V?$allocator@D@2@@2@XZ ; std::numpunct<char>::grouping
PUBLIC	?_Tidy@?$numpunct@D@std@@AAEXXZ			; std::numpunct<char>::_Tidy
PUBLIC	??_G?$numpunct@D@std@@MAEPAXI@Z			; std::numpunct<char>::`scalar deleting destructor'
PUBLIC	?move@?$_Narrow_char_traits@DH@std@@SAPADQADQBDI@Z ; std::_Narrow_char_traits<char,int>::move
PUBLIC	?assign@?$_Narrow_char_traits@DH@std@@SAPADQADID@Z ; std::_Narrow_char_traits<char,int>::assign
PUBLIC	?assign@?$_Narrow_char_traits@DH@std@@SAXAADABD@Z ; std::_Narrow_char_traits<char,int>::assign
PUBLIC	??0?$allocator@D@std@@QAE@XZ			; std::allocator<char>::allocator<char>
PUBLIC	?_Large_string_engaged@?$_String_val@U?$_Simple_types@D@std@@@std@@QBE_NXZ ; std::_String_val<std::_Simple_types<char> >::_Large_string_engaged
PUBLIC	?assign@?$basic_string@DU?$char_traits@D@std@@V?$allocator@D@2@@std@@QAEAAV12@$$QAV12@@Z ; std::basic_string<char,std::char_traits<char>,std::allocator<char> >::assign
PUBLIC	?_Memcpy_val_from@?$basic_string@DU?$char_traits@D@std@@V?$allocator@D@2@@std@@AAEXABV12@@Z ; std::basic_string<char,std::char_traits<char>,std::allocator<char> >::_Memcpy_val_from
PUBLIC	?max_size@?$basic_string@DU?$char_traits@D@std@@V?$allocator@D@2@@std@@QBEIXZ ; std::basic_string<char,std::char_traits<char>,std::allocator<char> >::max_size
PUBLIC	?resize@?$basic_string@DU?$char_traits@D@std@@V?$allocator@D@2@@std@@QAEXID@Z ; std::basic_string<char,std::char_traits<char>,std::allocator<char> >::resize
PUBLIC	?_Get_first@?$_Compressed_pair@V?$allocator@D@std@@V?$_String_val@U?$_Simple_types@D@std@@@2@$00@std@@QAEAAV?$allocator@D@2@XZ ; std::_Compressed_pair<std::allocator<char>,std::_String_val<std::_Simple_types<char> >,1>::_Get_first
PUBLIC	?_Get_first@?$_Compressed_pair@V?$allocator@D@std@@V?$_String_val@U?$_Simple_types@D@std@@@2@$00@std@@QBEABV?$allocator@D@2@XZ ; std::_Compressed_pair<std::allocator<char>,std::_String_val<std::_Simple_types<char> >,1>::_Get_first
PUBLIC	?setp@?$basic_streambuf@DU?$char_traits@D@std@@@std@@IAEXPAD0@Z ; std::basic_streambuf<char,std::char_traits<char> >::setp
PUBLIC	?_Ffmt@?$num_put@DV?$ostreambuf_iterator@DU?$char_traits@D@std@@@std@@@std@@ABAPADPADDH@Z ; std::num_put<char,std::ostreambuf_iterator<char,std::char_traits<char> > >::_Ffmt
PUBLIC	?_Fput@?$num_put@DV?$ostreambuf_iterator@DU?$char_traits@D@std@@@std@@@std@@ABA?AV?$ostreambuf_iterator@DU?$char_traits@D@std@@@2@V32@AAVios_base@2@DPBDI@Z ; std::num_put<char,std::ostreambuf_iterator<char,std::char_traits<char> > >::_Fput
PUBLIC	?_Ifmt@?$num_put@DV?$ostreambuf_iterator@DU?$char_traits@D@std@@@std@@@std@@ABAPADPADPBDH@Z ; std::num_put<char,std::ostreambuf_iterator<char,std::char_traits<char> > >::_Ifmt
PUBLIC	?_Iput@?$num_put@DV?$ostreambuf_iterator@DU?$char_traits@D@std@@@std@@@std@@ABA?AV?$ostreambuf_iterator@DU?$char_traits@D@std@@@2@V32@AAVios_base@2@DPADI@Z ; std::num_put<char,std::ostreambuf_iterator<char,std::char_traits<char> > >::_Iput
PUBLIC	?_Put@?$num_put@DV?$ostreambuf_iterator@DU?$char_traits@D@std@@@std@@@std@@ABA?AV?$ostreambuf_iterator@DU?$char_traits@D@std@@@2@V32@PBDI@Z ; std::num_put<char,std::ostreambuf_iterator<char,std::char_traits<char> > >::_Put
PUBLIC	?_Rep@?$num_put@DV?$ostreambuf_iterator@DU?$char_traits@D@std@@@std@@@std@@ABA?AV?$ostreambuf_iterator@DU?$char_traits@D@std@@@2@V32@DI@Z ; std::num_put<char,std::ostreambuf_iterator<char,std::char_traits<char> > >::_Rep
PUBLIC	?falsename@?$numpunct@D@std@@QBE?AV?$basic_string@DU?$char_traits@D@std@@V?$allocator@D@2@@2@XZ ; std::numpunct<char>::falsename
PUBLIC	?truename@?$numpunct@D@std@@QBE?AV?$basic_string@DU?$char_traits@D@std@@V?$allocator@D@2@@2@XZ ; std::numpunct<char>::truename
PUBLIC	??1?$numpunct@D@std@@MAE@XZ			; std::numpunct<char>::~numpunct<char>
PUBLIC	?do_decimal_point@?$numpunct@D@std@@MBEDXZ	; std::numpunct<char>::do_decimal_point
PUBLIC	?do_thousands_sep@?$numpunct@D@std@@MBEDXZ	; std::numpunct<char>::do_thousands_sep
PUBLIC	?do_grouping@?$numpunct@D@std@@MBE?AV?$basic_string@DU?$char_traits@D@std@@V?$allocator@D@2@@2@XZ ; std::numpunct<char>::do_grouping
PUBLIC	?do_falsename@?$numpunct@D@std@@MBE?AV?$basic_string@DU?$char_traits@D@std@@V?$allocator@D@2@@2@XZ ; std::numpunct<char>::do_falsename
PUBLIC	?do_truename@?$numpunct@D@std@@MBE?AV?$basic_string@DU?$char_traits@D@std@@V?$allocator@D@2@@2@XZ ; std::numpunct<char>::do_truename
PUBLIC	??_G?$num_put@DV?$ostreambuf_iterator@DU?$char_traits@D@std@@@std@@@std@@MAEPAXI@Z ; std::num_put<char,std::ostreambuf_iterator<char,std::char_traits<char> > >::`scalar deleting destructor'
PUBLIC	?length@?$_Narrow_char_traits@DH@std@@SAIQBD@Z	; std::_Narrow_char_traits<char,int>::length
PUBLIC	?copy@?$_Narrow_char_traits@DH@std@@SAPADQADQBDI@Z ; std::_Narrow_char_traits<char,int>::copy
PUBLIC	?eq@?$_Narrow_char_traits@DH@std@@SA_NABD0@Z	; std::_Narrow_char_traits<char,int>::eq
PUBLIC	?to_char_type@?$_Narrow_char_traits@DH@std@@SADABH@Z ; std::_Narrow_char_traits<char,int>::to_char_type
PUBLIC	?to_int_type@?$_Narrow_char_traits@DH@std@@SAHABD@Z ; std::_Narrow_char_traits<char,int>::to_int_type
PUBLIC	?eq_int_type@?$_Narrow_char_traits@DH@std@@SA_NABH0@Z ; std::_Narrow_char_traits<char,int>::eq_int_type
PUBLIC	?not_eof@?$_Narrow_char_traits@DH@std@@SAHABH@Z	; std::_Narrow_char_traits<char,int>::not_eof
PUBLIC	?eof@?$_Narrow_char_traits@DH@std@@SAHXZ	; std::_Narrow_char_traits<char,int>::eof
PUBLIC	?deallocate@?$allocator@D@std@@QAEXQADI@Z	; std::allocator<char>::deallocate
PUBLIC	??$max@I@std@@YAABIABI0@Z			; std::max<unsigned int>
PUBLIC	?allocate@?$allocator@D@std@@QAEPADI@Z		; std::allocator<char>::allocate
PUBLIC	?select_on_container_copy_construction@?$_Default_allocator_traits@V?$allocator@D@std@@@std@@SA?AV?$allocator@D@2@ABV32@@Z ; std::_Default_allocator_traits<std::allocator<char> >::select_on_container_copy_construction
PUBLIC	?_Myptr@?$_String_val@U?$_Simple_types@D@std@@@std@@QAEPADXZ ; std::_String_val<std::_Simple_types<char> >::_Myptr
PUBLIC	?_Myptr@?$_String_val@U?$_Simple_types@D@std@@@std@@QBEPBDXZ ; std::_String_val<std::_Simple_types<char> >::_Myptr
PUBLIC	??1_Bxty@?$_String_val@U?$_Simple_types@D@std@@@std@@QAE@XZ ; std::_String_val<std::_Simple_types<char> >::_Bxty::~_Bxty
PUBLIC	?_Move_assign@?$basic_string@DU?$char_traits@D@std@@V?$allocator@D@2@@std@@AAEXAAV12@U_Equal_allocators@2@@Z ; std::basic_string<char,std::char_traits<char>,std::allocator<char> >::_Move_assign
PUBLIC	?_Take_contents@?$basic_string@DU?$char_traits@D@std@@V?$allocator@D@2@@std@@AAEXAAV12@U?$integral_constant@_N$00@2@@Z ; std::basic_string<char,std::char_traits<char>,std::allocator<char> >::_Take_contents
PUBLIC	?_Construct_lv_contents@?$basic_string@DU?$char_traits@D@std@@V?$allocator@D@2@@std@@AAEXABV12@@Z ; std::basic_string<char,std::char_traits<char>,std::allocator<char> >::_Construct_lv_contents
PUBLIC	??R<lambda_ab246b20b9526e2ef7792587e4298a77>@@QBEXQADQBDI1I@Z ; <lambda_ab246b20b9526e2ef7792587e4298a77>::operator()
PUBLIC	?append@?$basic_string@DU?$char_traits@D@std@@V?$allocator@D@2@@std@@QAEAAV12@QBDI@Z ; std::basic_string<char,std::char_traits<char>,std::allocator<char> >::append
PUBLIC	??R<lambda_9366063389c5f42a00a5088cf24e69de>@@QBEXQADIQBD@Z ; <lambda_9366063389c5f42a00a5088cf24e69de>::operator()
PUBLIC	?assign@?$basic_string@DU?$char_traits@D@std@@V?$allocator@D@2@@std@@QAEAAV12@QBDI@Z ; std::basic_string<char,std::char_traits<char>,std::allocator<char> >::assign
PUBLIC	?assign@?$basic_string@DU?$char_traits@D@std@@V?$allocator@D@2@@std@@QAEAAV12@QBD@Z ; std::basic_string<char,std::char_traits<char>,std::allocator<char> >::assign
PUBLIC	??R<lambda_c6753c90be971fc9cc00b4f35f237a75>@@QBEXQADID@Z ; <lambda_c6753c90be971fc9cc00b4f35f237a75>::operator()
PUBLIC	?assign@?$basic_string@DU?$char_traits@D@std@@V?$allocator@D@2@@std@@QAEAAV12@ID@Z ; std::basic_string<char,std::char_traits<char>,std::allocator<char> >::assign
PUBLIC	?size@?$basic_string@DU?$char_traits@D@std@@V?$allocator@D@2@@std@@QBEIXZ ; std::basic_string<char,std::char_traits<char>,std::allocator<char> >::size
PUBLIC	?_Tidy_init@?$basic_string@DU?$char_traits@D@std@@V?$allocator@D@2@@std@@AAEXXZ ; std::basic_string<char,std::char_traits<char>,std::allocator<char> >::_Tidy_init
PUBLIC	?_Tidy_deallocate@?$basic_string@DU?$char_traits@D@std@@V?$allocator@D@2@@std@@AAEXXZ ; std::basic_string<char,std::char_traits<char>,std::allocator<char> >::_Tidy_deallocate
PUBLIC	?_Getal@?$basic_string@DU?$char_traits@D@std@@V?$allocator@D@2@@std@@AAEAAV?$allocator@D@2@XZ ; std::basic_string<char,std::char_traits<char>,std::allocator<char> >::_Getal
PUBLIC	?_Getal@?$basic_string@DU?$char_traits@D@std@@V?$allocator@D@2@@std@@ABEABV?$allocator@D@2@XZ ; std::basic_string<char,std::char_traits<char>,std::allocator<char> >::_Getal
PUBLIC	?_Tidy@?$_Yarn@D@std@@AAEXXZ			; std::_Yarn<char>::_Tidy
PUBLIC	?_Tidy@?$_Yarn@_W@std@@AAEXXZ			; std::_Yarn<wchar_t>::_Tidy
PUBLIC	??0?$fpos@U_Mbstatet@@@std@@QAE@_J@Z		; std::fpos<_Mbstatet>::fpos<_Mbstatet>
PUBLIC	??B?$fpos@U_Mbstatet@@@std@@QBE_JXZ		; std::fpos<_Mbstatet>::operator __int64
PUBLIC	?eback@?$basic_streambuf@DU?$char_traits@D@std@@@std@@IBEPADXZ ; std::basic_streambuf<char,std::char_traits<char> >::eback
PUBLIC	?gptr@?$basic_streambuf@DU?$char_traits@D@std@@@std@@IBEPADXZ ; std::basic_streambuf<char,std::char_traits<char> >::gptr
PUBLIC	?pptr@?$basic_streambuf@DU?$char_traits@D@std@@@std@@IBEPADXZ ; std::basic_streambuf<char,std::char_traits<char> >::pptr
PUBLIC	?egptr@?$basic_streambuf@DU?$char_traits@D@std@@@std@@IBEPADXZ ; std::basic_streambuf<char,std::char_traits<char> >::egptr
PUBLIC	?gbump@?$basic_streambuf@DU?$char_traits@D@std@@@std@@IAEXH@Z ; std::basic_streambuf<char,std::char_traits<char> >::gbump
PUBLIC	?setg@?$basic_streambuf@DU?$char_traits@D@std@@@std@@IAEXPAD00@Z ; std::basic_streambuf<char,std::char_traits<char> >::setg
PUBLIC	?epptr@?$basic_streambuf@DU?$char_traits@D@std@@@std@@IBEPADXZ ; std::basic_streambuf<char,std::char_traits<char> >::epptr
PUBLIC	?_Gninc@?$basic_streambuf@DU?$char_traits@D@std@@@std@@IAEPADXZ ; std::basic_streambuf<char,std::char_traits<char> >::_Gninc
PUBLIC	?_Gnavail@?$basic_streambuf@DU?$char_traits@D@std@@@std@@IBE_JXZ ; std::basic_streambuf<char,std::char_traits<char> >::_Gnavail
PUBLIC	?pbump@?$basic_streambuf@DU?$char_traits@D@std@@@std@@IAEXH@Z ; std::basic_streambuf<char,std::char_traits<char> >::pbump
PUBLIC	?setp@?$basic_streambuf@DU?$char_traits@D@std@@@std@@IAEXPAD00@Z ; std::basic_streambuf<char,std::char_traits<char> >::setp
PUBLIC	?_Pninc@?$basic_streambuf@DU?$char_traits@D@std@@@std@@IAEPADXZ ; std::basic_streambuf<char,std::char_traits<char> >::_Pninc
PUBLIC	?_Pnavail@?$basic_streambuf@DU?$char_traits@D@std@@@std@@IBE_JXZ ; std::basic_streambuf<char,std::char_traits<char> >::_Pnavail
PUBLIC	?_Tidy@?$basic_stringbuf@DU?$char_traits@D@std@@V?$allocator@D@2@@std@@IAEXXZ ; std::basic_stringbuf<char,std::char_traits<char>,std::allocator<char> >::_Tidy
PUBLIC	?pointer_to@?$pointer_traits@PAD@std@@SAPADAAD@Z ; std::pointer_traits<char *>::pointer_to
PUBLIC	??1?$num_put@DV?$ostreambuf_iterator@DU?$char_traits@D@std@@@std@@@std@@MAE@XZ ; std::num_put<char,std::ostreambuf_iterator<char,std::char_traits<char> > >::~num_put<char,std::ostreambuf_iterator<char,std::char_traits<char> > >
PUBLIC	?do_put@?$num_put@DV?$ostreambuf_iterator@DU?$char_traits@D@std@@@std@@@std@@MBE?AV?$ostreambuf_iterator@DU?$char_traits@D@std@@@2@V32@AAVios_base@2@D_N@Z ; std::num_put<char,std::ostreambuf_iterator<char,std::char_traits<char> > >::do_put
PUBLIC	?do_put@?$num_put@DV?$ostreambuf_iterator@DU?$char_traits@D@std@@@std@@@std@@MBE?AV?$ostreambuf_iterator@DU?$char_traits@D@std@@@2@V32@AAVios_base@2@DJ@Z ; std::num_put<char,std::ostreambuf_iterator<char,std::char_traits<char> > >::do_put
PUBLIC	?do_put@?$num_put@DV?$ostreambuf_iterator@DU?$char_traits@D@std@@@std@@@std@@MBE?AV?$ostreambuf_iterator@DU?$char_traits@D@std@@@2@V32@AAVios_base@2@DK@Z ; std::num_put<char,std::ostreambuf_iterator<char,std::char_traits<char> > >::do_put
PUBLIC	?do_put@?$num_put@DV?$ostreambuf_iterator@DU?$char_traits@D@std@@@std@@@std@@MBE?AV?$ostreambuf_iterator@DU?$char_traits@D@std@@@2@V32@AAVios_base@2@D_J@Z ; std::num_put<char,std::ostreambuf_iterator<char,std::char_traits<char> > >::do_put
PUBLIC	?do_put@?$num_put@DV?$ostreambuf_iterator@DU?$char_traits@D@std@@@std@@@std@@MBE?AV?$ostreambuf_iterator@DU?$char_traits@D@std@@@2@V32@AAVios_base@2@D_K@Z ; std::num_put<char,std::ostreambuf_iterator<char,std::char_traits<char> > >::do_put
PUBLIC	?do_put@?$num_put@DV?$ostreambuf_iterator@DU?$char_traits@D@std@@@std@@@std@@MBE?AV?$ostreambuf_iterator@DU?$char_traits@D@std@@@2@V32@AAVios_base@2@DN@Z ; std::num_put<char,std::ostreambuf_iterator<char,std::char_traits<char> > >::do_put
PUBLIC	?do_put@?$num_put@DV?$ostreambuf_iterator@DU?$char_traits@D@std@@@std@@@std@@MBE?AV?$ostreambuf_iterator@DU?$char_traits@D@std@@@2@V32@AAVios_base@2@DO@Z ; std::num_put<char,std::ostreambuf_iterator<char,std::char_traits<char> > >::do_put
PUBLIC	?do_put@?$num_put@DV?$ostreambuf_iterator@DU?$char_traits@D@std@@@std@@@std@@MBE?AV?$ostreambuf_iterator@DU?$char_traits@D@std@@@2@V32@AAVios_base@2@DPBX@Z ; std::num_put<char,std::ostreambuf_iterator<char,std::char_traits<char> > >::do_put
PUBLIC	??1?$_String_val@U?$_Simple_types@D@std@@@std@@QAE@XZ ; std::_String_val<std::_Simple_types<char> >::~_String_val<std::_Simple_types<char> >
PUBLIC	??_D?$basic_ostream@DU?$char_traits@D@std@@@std@@QAEXXZ ; std::basic_ostream<char,std::char_traits<char> >::`vbase destructor'
PUBLIC	??1?$_Compressed_pair@V?$allocator@D@std@@V?$_String_val@U?$_Simple_types@D@std@@@2@$00@std@@QAE@XZ ; std::_Compressed_pair<std::allocator<char>,std::_String_val<std::_Simple_types<char> >,1>::~_Compressed_pair<std::allocator<char>,std::_String_val<std::_Simple_types<char> >,1>
PUBLIC	??_G?$basic_ios@DU?$char_traits@D@std@@@std@@UAEPAXI@Z ; std::basic_ios<char,std::char_traits<char> >::`scalar deleting destructor'
PUBLIC	??_G?$basic_ostream@DU?$char_traits@D@std@@@std@@UAEPAXI@Z ; std::basic_ostream<char,std::char_traits<char> >::`scalar deleting destructor'
PUBLIC	??_G?$basic_ostringstream@DU?$char_traits@D@std@@V?$allocator@D@2@@std@@UAEPAXI@Z ; std::basic_ostringstream<char,std::char_traits<char>,std::allocator<char> >::`scalar deleting destructor'
PUBLIC	??_Glocale@std@@QAEPAXI@Z			; std::locale::`scalar deleting destructor'
PUBLIC	??_G?$basic_streambuf@DU?$char_traits@D@std@@@std@@UAEPAXI@Z ; std::basic_streambuf<char,std::char_traits<char> >::`scalar deleting destructor'
PUBLIC	??_G?$basic_stringbuf@DU?$char_traits@D@std@@V?$allocator@D@2@@std@@UAEPAXI@Z ; std::basic_stringbuf<char,std::char_traits<char>,std::allocator<char> >::`scalar deleting destructor'
PUBLIC	??0?$basic_string@DU?$char_traits@D@std@@V?$allocator@D@2@@std@@QAE@ABV01@@Z ; std::basic_string<char,std::char_traits<char>,std::allocator<char> >::basic_string<char,std::char_traits<char>,std::allocator<char> >
PUBLIC	??0?$basic_string@DU?$char_traits@D@std@@V?$allocator@D@2@@std@@QAE@XZ ; std::basic_string<char,std::char_traits<char>,std::allocator<char> >::basic_string<char,std::char_traits<char>,std::allocator<char> >
PUBLIC	??0?$basic_string@DU?$char_traits@D@std@@V?$allocator@D@2@@std@@QAE@QBDI@Z ; std::basic_string<char,std::char_traits<char>,std::allocator<char> >::basic_string<char,std::char_traits<char>,std::allocator<char> >
PUBLIC	??0?$basic_string@DU?$char_traits@D@std@@V?$allocator@D@2@@std@@QAE@QBD@Z ; std::basic_string<char,std::char_traits<char>,std::allocator<char> >::basic_string<char,std::char_traits<char>,std::allocator<char> >
PUBLIC	??0?$basic_string@DU?$char_traits@D@std@@V?$allocator@D@2@@std@@QAE@ID@Z ; std::basic_string<char,std::char_traits<char>,std::allocator<char> >::basic_string<char,std::char_traits<char>,std::allocator<char> >
PUBLIC	??0?$basic_string@DU?$char_traits@D@std@@V?$allocator@D@2@@std@@QAE@$$QAV01@@Z ; std::basic_string<char,std::char_traits<char>,std::allocator<char> >::basic_string<char,std::char_traits<char>,std::allocator<char> >
PUBLIC	??4?$basic_string@DU?$char_traits@D@std@@V?$allocator@D@2@@std@@QAEAAV01@$$QAV01@@Z ; std::basic_string<char,std::char_traits<char>,std::allocator<char> >::operator=
PUBLIC	??1?$basic_string@DU?$char_traits@D@std@@V?$allocator@D@2@@std@@QAE@XZ ; std::basic_string<char,std::char_traits<char>,std::allocator<char> >::~basic_string<char,std::char_traits<char>,std::allocator<char> >
PUBLIC	?append@?$basic_string@DU?$char_traits@D@std@@V?$allocator@D@2@@std@@QAEAAV12@ABV12@@Z ; std::basic_string<char,std::char_traits<char>,std::allocator<char> >::append
PUBLIC	??A?$basic_string@DU?$char_traits@D@std@@V?$allocator@D@2@@std@@QAEAADI@Z ; std::basic_string<char,std::char_traits<char>,std::allocator<char> >::operator[]
PUBLIC	?c_str@?$basic_string@DU?$char_traits@D@std@@V?$allocator@D@2@@std@@QBEPBDXZ ; std::basic_string<char,std::char_traits<char>,std::allocator<char> >::c_str
PUBLIC	?empty@?$basic_string@DU?$char_traits@D@std@@V?$allocator@D@2@@std@@QBE_NXZ ; std::basic_string<char,std::char_traits<char>,std::allocator<char> >::empty
PUBLIC	??0?$_Yarn@D@std@@QAE@XZ			; std::_Yarn<char>::_Yarn<char>
PUBLIC	??1?$_Yarn@D@std@@QAE@XZ			; std::_Yarn<char>::~_Yarn<char>
PUBLIC	?c_str@?$_Yarn@D@std@@QBEPBDXZ			; std::_Yarn<char>::c_str
PUBLIC	??0?$_Yarn@_W@std@@QAE@XZ			; std::_Yarn<wchar_t>::_Yarn<wchar_t>
PUBLIC	??1?$_Yarn@_W@std@@QAE@XZ			; std::_Yarn<wchar_t>::~_Yarn<wchar_t>
PUBLIC	??1?$basic_ios@DU?$char_traits@D@std@@@std@@UAE@XZ ; std::basic_ios<char,std::char_traits<char> >::~basic_ios<char,std::char_traits<char> >
PUBLIC	??1?$basic_ostream@DU?$char_traits@D@std@@@std@@UAE@XZ ; std::basic_ostream<char,std::char_traits<char> >::~basic_ostream<char,std::char_traits<char> >
PUBLIC	??1?$basic_ostringstream@DU?$char_traits@D@std@@V?$allocator@D@2@@std@@UAE@XZ ; std::basic_ostringstream<char,std::char_traits<char>,std::allocator<char> >::~basic_ostringstream<char,std::char_traits<char>,std::allocator<char> >
PUBLIC	??1?$basic_streambuf@DU?$char_traits@D@std@@@std@@UAE@XZ ; std::basic_streambuf<char,std::char_traits<char> >::~basic_streambuf<char,std::char_traits<char> >
PUBLIC	?_Lock@?$basic_streambuf@DU?$char_traits@D@std@@@std@@UAEXXZ ; std::basic_streambuf<char,std::char_traits<char> >::_Lock
PUBLIC	?_Unlock@?$basic_streambuf@DU?$char_traits@D@std@@@std@@UAEXXZ ; std::basic_streambuf<char,std::char_traits<char> >::_Unlock
PUBLIC	?overflow@?$basic_streambuf@DU?$char_traits@D@std@@@std@@MAEHH@Z ; std::basic_streambuf<char,std::char_traits<char> >::overflow
PUBLIC	?pbackfail@?$basic_streambuf@DU?$char_traits@D@std@@@std@@MAEHH@Z ; std::basic_streambuf<char,std::char_traits<char> >::pbackfail
PUBLIC	?showmanyc@?$basic_streambuf@DU?$char_traits@D@std@@@std@@MAE_JXZ ; std::basic_streambuf<char,std::char_traits<char> >::showmanyc
PUBLIC	?underflow@?$basic_streambuf@DU?$char_traits@D@std@@@std@@MAEHXZ ; std::basic_streambuf<char,std::char_traits<char> >::underflow
PUBLIC	?uflow@?$basic_streambuf@DU?$char_traits@D@std@@@std@@MAEHXZ ; std::basic_streambuf<char,std::char_traits<char> >::uflow
PUBLIC	?xsgetn@?$basic_streambuf@DU?$char_traits@D@std@@@std@@MAE_JPAD_J@Z ; std::basic_streambuf<char,std::char_traits<char> >::xsgetn
PUBLIC	?xsputn@?$basic_streambuf@DU?$char_traits@D@std@@@std@@MAE_JPBD_J@Z ; std::basic_streambuf<char,std::char_traits<char> >::xsputn
PUBLIC	?seekoff@?$basic_streambuf@DU?$char_traits@D@std@@@std@@MAE?AV?$fpos@U_Mbstatet@@@2@_JHH@Z ; std::basic_streambuf<char,std::char_traits<char> >::seekoff
PUBLIC	?seekpos@?$basic_streambuf@DU?$char_traits@D@std@@@std@@MAE?AV?$fpos@U_Mbstatet@@@2@V32@H@Z ; std::basic_streambuf<char,std::char_traits<char> >::seekpos
PUBLIC	?setbuf@?$basic_streambuf@DU?$char_traits@D@std@@@std@@MAEPAV12@PAD_J@Z ; std::basic_streambuf<char,std::char_traits<char> >::setbuf
PUBLIC	?sync@?$basic_streambuf@DU?$char_traits@D@std@@@std@@MAEHXZ ; std::basic_streambuf<char,std::char_traits<char> >::sync
PUBLIC	?imbue@?$basic_streambuf@DU?$char_traits@D@std@@@std@@MAEXABVlocale@2@@Z ; std::basic_streambuf<char,std::char_traits<char> >::imbue
PUBLIC	??1?$basic_stringbuf@DU?$char_traits@D@std@@V?$allocator@D@2@@std@@UAE@XZ ; std::basic_stringbuf<char,std::char_traits<char>,std::allocator<char> >::~basic_stringbuf<char,std::char_traits<char>,std::allocator<char> >
PUBLIC	?overflow@?$basic_stringbuf@DU?$char_traits@D@std@@V?$allocator@D@2@@std@@MAEHH@Z ; std::basic_stringbuf<char,std::char_traits<char>,std::allocator<char> >::overflow
PUBLIC	?pbackfail@?$basic_stringbuf@DU?$char_traits@D@std@@V?$allocator@D@2@@std@@MAEHH@Z ; std::basic_stringbuf<char,std::char_traits<char>,std::allocator<char> >::pbackfail
PUBLIC	?underflow@?$basic_stringbuf@DU?$char_traits@D@std@@V?$allocator@D@2@@std@@MAEHXZ ; std::basic_stringbuf<char,std::char_traits<char>,std::allocator<char> >::underflow
PUBLIC	?seekoff@?$basic_stringbuf@DU?$char_traits@D@std@@V?$allocator@D@2@@std@@MAE?AV?$fpos@U_Mbstatet@@@2@_JHH@Z ; std::basic_stringbuf<char,std::char_traits<char>,std::allocator<char> >::seekoff
PUBLIC	?seekpos@?$basic_stringbuf@DU?$char_traits@D@std@@V?$allocator@D@2@@std@@MAE?AV?$fpos@U_Mbstatet@@@2@V32@H@Z ; std::basic_stringbuf<char,std::char_traits<char>,std::allocator<char> >::seekpos
PUBLIC	??_D?$basic_ostringstream@DU?$char_traits@D@std@@V?$allocator@D@2@@std@@QAEXXZ ; std::basic_ostringstream<char,std::char_traits<char>,std::allocator<char> >::`vbase destructor'
PUBLIC	??1Exception@@UAE@XZ				; Exception::~Exception
PUBLIC	??_GException@@UAEPAXI@Z			; Exception::`scalar deleting destructor'
PUBLIC	??_Gios_base@std@@UAEPAXI@Z			; std::ios_base::`scalar deleting destructor'
PUBLIC	??1failure@ios_base@std@@UAE@XZ			; std::ios_base::failure::~failure
PUBLIC	??_Gfailure@ios_base@std@@UAEPAXI@Z		; std::ios_base::failure::`scalar deleting destructor'
PUBLIC	??1ios_base@std@@UAE@XZ				; std::ios_base::~ios_base
PUBLIC	?getloc@ios_base@std@@QBE?AVlocale@2@XZ		; std::ios_base::getloc
PUBLIC	?width@ios_base@std@@QAE_J_J@Z			; std::ios_base::width
PUBLIC	?width@ios_base@std@@QBE_JXZ			; std::ios_base::width
PUBLIC	?precision@ios_base@std@@QBE_JXZ		; std::ios_base::precision
PUBLIC	?flags@ios_base@std@@QBEHXZ			; std::ios_base::flags
PUBLIC	??_G?$ctype@D@std@@MAEPAXI@Z			; std::ctype<char>::`scalar deleting destructor'
PUBLIC	?do_narrow@?$ctype@D@std@@MBEPBDPBD0DPAD@Z	; std::ctype<char>::do_narrow
PUBLIC	?do_narrow@?$ctype@D@std@@MBEDDD@Z		; std::ctype<char>::do_narrow
PUBLIC	?do_widen@?$ctype@D@std@@MBEPBDPBD0PAD@Z	; std::ctype<char>::do_widen
PUBLIC	?do_widen@?$ctype@D@std@@MBEDD@Z		; std::ctype<char>::do_widen
PUBLIC	?do_toupper@?$ctype@D@std@@MBEPBDPADPBD@Z	; std::ctype<char>::do_toupper
PUBLIC	?do_toupper@?$ctype@D@std@@MBEDD@Z		; std::ctype<char>::do_toupper
PUBLIC	?do_tolower@?$ctype@D@std@@MBEPBDPADPBD@Z	; std::ctype<char>::do_tolower
PUBLIC	?do_tolower@?$ctype@D@std@@MBEDD@Z		; std::ctype<char>::do_tolower
PUBLIC	?_Tidy@?$ctype@D@std@@IAEXXZ			; std::ctype<char>::_Tidy
PUBLIC	?_Init@?$ctype@D@std@@IAEXABV_Locinfo@2@@Z	; std::ctype<char>::_Init
PUBLIC	??1?$ctype@D@std@@MAE@XZ			; std::ctype<char>::~ctype<char>
PUBLIC	?_Getcat@?$ctype@D@std@@SAIPAPBVfacet@locale@2@PBV42@@Z ; std::ctype<char>::_Getcat
PUBLIC	??0?$ctype@D@std@@QAE@ABV_Locinfo@1@I@Z		; std::ctype<char>::ctype<char>
PUBLIC	?widen@?$ctype@D@std@@QBEPBDPBD0PAD@Z		; std::ctype<char>::widen
PUBLIC	?widen@?$ctype@D@std@@QBEDD@Z			; std::ctype<char>::widen
PUBLIC	??_Gctype_base@std@@UAEPAXI@Z			; std::ctype_base::`scalar deleting destructor'
PUBLIC	??1ctype_base@std@@UAE@XZ			; std::ctype_base::~ctype_base
PUBLIC	??0ctype_base@std@@QAE@I@Z			; std::ctype_base::ctype_base
PUBLIC	??0_Facet_base@std@@QAE@XZ			; std::_Facet_base::_Facet_base
PUBLIC	??_Gfacet@locale@std@@MAEPAXI@Z			; std::locale::facet::`scalar deleting destructor'
PUBLIC	?_Getfacet@locale@std@@QBEPBVfacet@12@I@Z	; std::locale::_Getfacet
PUBLIC	?c_str@locale@std@@QBEPBDXZ			; std::locale::c_str
PUBLIC	??1locale@std@@QAE@XZ				; std::locale::~locale
PUBLIC	??0locale@std@@QAE@XZ				; std::locale::locale
PUBLIC	??0locale@std@@QAE@ABV01@@Z			; std::locale::locale
PUBLIC	??1facet@locale@std@@MAE@XZ			; std::locale::facet::~facet
PUBLIC	??0facet@locale@std@@IAE@I@Z			; std::locale::facet::facet
PUBLIC	?_Decref@facet@locale@std@@UAEPAV_Facet_base@3@XZ ; std::locale::facet::_Decref
PUBLIC	?_Incref@facet@locale@std@@UAEXXZ		; std::locale::facet::_Incref
PUBLIC	??Bid@locale@std@@QAEIXZ			; std::locale::id::operator unsigned int
PUBLIC	??0id@locale@std@@QAE@I@Z			; std::locale::id::id
PUBLIC	?_Gettrue@_Locinfo@std@@QBEPBDXZ		; std::_Locinfo::_Gettrue
PUBLIC	?_Getfalse@_Locinfo@std@@QBEPBDXZ		; std::_Locinfo::_Getfalse
PUBLIC	?_Getlconv@_Locinfo@std@@QBEPBUlconv@@XZ	; std::_Locinfo::_Getlconv
PUBLIC	?_Getcvt@_Locinfo@std@@QBE?AU_Cvtvec@@XZ	; std::_Locinfo::_Getcvt
PUBLIC	?_Getctype@_Locinfo@std@@QBE?AU_Ctypevec@@XZ	; std::_Locinfo::_Getctype
PUBLIC	??1_Locinfo@std@@QAE@XZ				; std::_Locinfo::~_Locinfo
PUBLIC	??0_Locinfo@std@@QAE@PBD@Z			; std::_Locinfo::_Locinfo
PUBLIC	??_G_Facet_base@std@@UAEPAXI@Z			; std::_Facet_base::`scalar deleting destructor'
PUBLIC	??1_Facet_base@std@@UAE@XZ			; std::_Facet_base::~_Facet_base
PUBLIC	??0bad_cast@std@@QAE@ABV01@@Z			; std::bad_cast::bad_cast
PUBLIC	?_Throw_bad_cast@std@@YAXXZ			; std::_Throw_bad_cast
PUBLIC	??1bad_cast@std@@UAE@XZ				; std::bad_cast::~bad_cast
PUBLIC	??_Gbad_cast@std@@UAEPAXI@Z			; std::bad_cast::`scalar deleting destructor'
PUBLIC	??0bad_cast@std@@QAE@XZ				; std::bad_cast::bad_cast
PUBLIC	??1_Iostream_error_category2@std@@UAE@XZ	; std::_Iostream_error_category2::~_Iostream_error_category2
PUBLIC	??_G_Iostream_error_category2@std@@UAEPAXI@Z	; std::_Iostream_error_category2::`scalar deleting destructor'
PUBLIC	??1system_error@std@@UAE@XZ			; std::system_error::~system_error
PUBLIC	??_Gsystem_error@std@@UAEPAXI@Z			; std::system_error::`scalar deleting destructor'
PUBLIC	??1_System_error@std@@UAE@XZ			; std::_System_error::~_System_error
PUBLIC	??_G_System_error@std@@UAEPAXI@Z		; std::_System_error::`scalar deleting destructor'
PUBLIC	??1error_category@std@@UAE@XZ			; std::error_category::~error_category
PUBLIC	??0runtime_error@std@@QAE@ABV01@@Z		; std::runtime_error::runtime_error
PUBLIC	??1runtime_error@std@@UAE@XZ			; std::runtime_error::~runtime_error
PUBLIC	??_Gruntime_error@std@@UAEPAXI@Z		; std::runtime_error::`scalar deleting destructor'
PUBLIC	?_Xlen_string@std@@YAXXZ			; std::_Xlen_string
PUBLIC	?_Release@_Fake_proxy_ptr_impl@std@@QAEXXZ	; std::_Fake_proxy_ptr_impl::_Release
PUBLIC	??0_Fake_proxy_ptr_impl@std@@QAE@ABU_Fake_allocator@1@ABU_Container_base0@1@@Z ; std::_Fake_proxy_ptr_impl::_Fake_proxy_ptr_impl
PUBLIC	?_Alloc_proxy@_Container_base0@std@@QAEXABU_Fake_allocator@2@@Z ; std::_Container_base0::_Alloc_proxy
PUBLIC	?_Orphan_all@_Container_base0@std@@QAEXXZ	; std::_Container_base0::_Orphan_all
PUBLIC	??$_Convert_size@I@std@@YAII@Z			; std::_Convert_size<unsigned int>
PUBLIC	?_Adjust_manually_vector_aligned@std@@YAXAAPAXAAI@Z ; std::_Adjust_manually_vector_aligned
PUBLIC	?_Allocate@_Default_allocate_traits@std@@SAPAXI@Z ; std::_Default_allocate_traits::_Allocate
PUBLIC	?max@?$numeric_limits@H@std@@SAHXZ		; std::numeric_limits<int>::max
PUBLIC	_sprintf_s
PUBLIC	__vsprintf_s_l
PUBLIC	___local_stdio_printf_options
PUBLIC	??0bad_alloc@std@@QAE@ABV01@@Z			; std::bad_alloc::bad_alloc
PUBLIC	??0bad_array_new_length@std@@QAE@ABV01@@Z	; std::bad_array_new_length::bad_array_new_length
PUBLIC	?_Throw_bad_array_new_length@std@@YAXXZ		; std::_Throw_bad_array_new_length
PUBLIC	??1bad_array_new_length@std@@UAE@XZ		; std::bad_array_new_length::~bad_array_new_length
PUBLIC	??_Gbad_array_new_length@std@@UAEPAXI@Z		; std::bad_array_new_length::`scalar deleting destructor'
PUBLIC	??0bad_array_new_length@std@@QAE@XZ		; std::bad_array_new_length::bad_array_new_length
PUBLIC	??1bad_alloc@std@@UAE@XZ			; std::bad_alloc::~bad_alloc
PUBLIC	??_Gbad_alloc@std@@UAEPAXI@Z			; std::bad_alloc::`scalar deleting destructor'
PUBLIC	??0bad_alloc@std@@AAE@QBD@Z			; std::bad_alloc::bad_alloc
PUBLIC	??_Gexception@std@@UAEPAXI@Z			; std::exception::`scalar deleting destructor'
PUBLIC	?what@exception@std@@UBEPBDXZ			; std::exception::what
PUBLIC	??1exception@std@@UAE@XZ			; std::exception::~exception
PUBLIC	??0exception@std@@QAE@ABV01@@Z			; std::exception::exception
PUBLIC	??0exception@std@@QAE@QBDH@Z			; std::exception::exception
PUBLIC	??0exception@std@@QAE@QBD@Z			; std::exception::exception
PUBLIC	??0exception@std@@QAE@XZ			; std::exception::exception
PUBLIC	_frexpl
PUBLIC	_fabsl
PUBLIC	??2@YAPAXIPAX@Z					; operator new
PUBLIC	?id@?$num_put@DV?$ostreambuf_iterator@DU?$char_traits@D@std@@@std@@@std@@2V0locale@2@A ; std::num_put<char,std::ostreambuf_iterator<char,std::char_traits<char> > >::id
PUBLIC	?id@?$numpunct@D@std@@2V0locale@2@A		; std::numpunct<char>::id
EXTRN	??_Ebad_cast@std@@UAEPAXI@Z:PROC		; std::bad_cast::`vector deleting destructor'
EXTRN	??_Efacet@locale@std@@MAEPAXI@Z:PROC		; std::locale::facet::`vector deleting destructor'
EXTRN	??_E?$basic_streambuf@DU?$char_traits@D@std@@@std@@UAEPAXI@Z:PROC ; std::basic_streambuf<char,std::char_traits<char> >::`vector deleting destructor'
EXTRN	??_E?$basic_ostringstream@DU?$char_traits@D@std@@V?$allocator@D@2@@std@@UAEPAXI@Z:PROC ; std::basic_ostringstream<char,std::char_traits<char>,std::allocator<char> >::`vector deleting destructor'
EXTRN	??_E?$num_put@DV?$ostreambuf_iterator@DU?$char_traits@D@std@@@std@@@std@@MAEPAXI@Z:PROC ; std::num_put<char,std::ostreambuf_iterator<char,std::char_traits<char> > >::`vector deleting destructor'
EXTRN	??_E_System_error@std@@UAEPAXI@Z:PROC		; std::_System_error::`vector deleting destructor'
EXTRN	??_E?$basic_stringbuf@DU?$char_traits@D@std@@V?$allocator@D@2@@std@@UAEPAXI@Z:PROC ; std::basic_stringbuf<char,std::char_traits<char>,std::allocator<char> >::`vector deleting destructor'
EXTRN	??_Eexception@std@@UAEPAXI@Z:PROC		; std::exception::`vector deleting destructor'
EXTRN	??_Efailure@ios_base@std@@UAEPAXI@Z:PROC	; std::ios_base::failure::`vector deleting destructor'
EXTRN	??_Eios_base@std@@UAEPAXI@Z:PROC		; std::ios_base::`vector deleting destructor'
EXTRN	??_Ebad_alloc@std@@UAEPAXI@Z:PROC		; std::bad_alloc::`vector deleting destructor'
EXTRN	??_E?$ctype@D@std@@MAEPAXI@Z:PROC		; std::ctype<char>::`vector deleting destructor'
EXTRN	??_Esystem_error@std@@UAEPAXI@Z:PROC		; std::system_error::`vector deleting destructor'
EXTRN	??_Eruntime_error@std@@UAEPAXI@Z:PROC		; std::runtime_error::`vector deleting destructor'
EXTRN	??_Ebad_array_new_length@std@@UAEPAXI@Z:PROC	; std::bad_array_new_length::`vector deleting destructor'
EXTRN	??_E?$numpunct@D@std@@MAEPAXI@Z:PROC		; std::numpunct<char>::`vector deleting destructor'
EXTRN	??_E?$basic_ostream@DU?$char_traits@D@std@@@std@@UAEPAXI@Z:PROC ; std::basic_ostream<char,std::char_traits<char> >::`vector deleting destructor'
EXTRN	??_E_Iostream_error_category2@std@@UAEPAXI@Z:PROC ; std::_Iostream_error_category2::`vector deleting destructor'
EXTRN	??_Ectype_base@std@@UAEPAXI@Z:PROC		; std::ctype_base::`vector deleting destructor'
EXTRN	??_E_Facet_base@std@@UAEPAXI@Z:PROC		; std::_Facet_base::`vector deleting destructor'
EXTRN	??_E?$basic_ios@DU?$char_traits@D@std@@@std@@UAEPAXI@Z:PROC ; std::basic_ios<char,std::char_traits<char> >::`vector deleting destructor'
EXTRN	??_EException@@UAEPAXI@Z:PROC			; Exception::`vector deleting destructor'
;	COMDAT ?id@?$num_put@DV?$ostreambuf_iterator@DU?$char_traits@D@std@@@std@@@std@@2V0locale@2@A
_BSS	SEGMENT
?id@?$num_put@DV?$ostreambuf_iterator@DU?$char_traits@D@std@@@std@@@std@@2V0locale@2@A DD 01H DUP (?) ; std::num_put<char,std::ostreambuf_iterator<char,std::char_traits<char> > >::id
_BSS	ENDS
;	COMDAT ?id@?$numpunct@D@std@@2V0locale@2@A
_BSS	SEGMENT
?id@?$numpunct@D@std@@2V0locale@2@A DD 01H DUP (?)	; std::numpunct<char>::id
_BSS	ENDS
CRT$XCU	ENDS
;	COMDAT xdata$x
xdata$x	SEGMENT
__ehfuncinfo$??0_Locinfo@std@@QAE@PBD@Z DD 019930522H
	DD	07H
	DD	FLAT:__unwindtable$??0_Locinfo@std@@QAE@PBD@Z
	DD	2 DUP(00H)
	DD	2 DUP(00H)
	DD	00H
	DD	01H
__unwindtable$??0_Locinfo@std@@QAE@PBD@Z DD 0ffffffffH
	DD	FLAT:__unwindfunclet$??0_Locinfo@std@@QAE@PBD@Z$0
	DD	00H
	DD	FLAT:__unwindfunclet$??0_Locinfo@std@@QAE@PBD@Z$1
	DD	01H
	DD	FLAT:__unwindfunclet$??0_Locinfo@std@@QAE@PBD@Z$2
	DD	02H
	DD	FLAT:__unwindfunclet$??0_Locinfo@std@@QAE@PBD@Z$3
	DD	03H
	DD	FLAT:__unwindfunclet$??0_Locinfo@std@@QAE@PBD@Z$4
	DD	04H
	DD	FLAT:__unwindfunclet$??0_Locinfo@std@@QAE@PBD@Z$5
	DD	05H
	DD	FLAT:__unwindfunclet$??0_Locinfo@std@@QAE@PBD@Z$6
xdata$x	ENDS
;	COMDAT xdata$x
xdata$x	SEGMENT
__ehfuncinfo$??1_Locinfo@std@@QAE@XZ DD 019930522H
	DD	00H
	DD	00H
	DD	2 DUP(00H)
	DD	2 DUP(00H)
	DD	00H
	DD	05H
xdata$x	ENDS
;	COMDAT xdata$x
xdata$x	SEGMENT
__ehfuncinfo$??0locale@std@@QAE@XZ DD 019930522H
	DD	00H
	DD	00H
	DD	2 DUP(00H)
	DD	2 DUP(00H)
	DD	00H
	DD	05H
xdata$x	ENDS
;	COMDAT xdata$x
xdata$x	SEGMENT
__ehfuncinfo$?_Getcat@?$ctype@D@std@@SAIPAPBVfacet@locale@2@PBV42@@Z DD 019930522H
	DD	01H
	DD	FLAT:__unwindtable$?_Getcat@?$ctype@D@std@@SAIPAPBVfacet@locale@2@PBV42@@Z
	DD	2 DUP(00H)
	DD	2 DUP(00H)
	DD	00H
	DD	01H
__unwindtable$?_Getcat@?$ctype@D@std@@SAIPAPBVfacet@locale@2@PBV42@@Z DD 0ffffffffH
	DD	FLAT:__unwindfunclet$?_Getcat@?$ctype@D@std@@SAIPAPBVfacet@locale@2@PBV42@@Z$0
xdata$x	ENDS
;	COMDAT xdata$x
xdata$x	SEGMENT
__ehfuncinfo$??1ios_base@std@@UAE@XZ DD 019930522H
	DD	00H
	DD	00H
	DD	2 DUP(00H)
	DD	2 DUP(00H)
	DD	00H
	DD	05H
xdata$x	ENDS
;	COMDAT xdata$x
xdata$x	SEGMENT
__ehfuncinfo$??_Gios_base@std@@UAEPAXI@Z DD 019930522H
	DD	01H
	DD	FLAT:__unwindtable$??_Gios_base@std@@UAEPAXI@Z
	DD	2 DUP(00H)
	DD	2 DUP(00H)
	DD	00H
	DD	05H
__unwindtable$??_Gios_base@std@@UAEPAXI@Z DD 0ffffffffH
	DD	FLAT:___std_terminate
xdata$x	ENDS
;	COMDAT xdata$x
xdata$x	SEGMENT
__ehfuncinfo$??_D?$basic_ostringstream@DU?$char_traits@D@std@@V?$allocator@D@2@@std@@QAEXXZ DD 019930522H
	DD	01H
	DD	FLAT:__unwindtable$??_D?$basic_ostringstream@DU?$char_traits@D@std@@V?$allocator@D@2@@std@@QAEXXZ
	DD	2 DUP(00H)
	DD	2 DUP(00H)
	DD	00H
	DD	05H
__unwindtable$??_D?$basic_ostringstream@DU?$char_traits@D@std@@V?$allocator@D@2@@std@@QAEXXZ DD 0ffffffffH
	DD	FLAT:___std_terminate
xdata$x	ENDS
;	COMDAT xdata$x
xdata$x	SEGMENT
__ehfuncinfo$??1?$basic_ios@DU?$char_traits@D@std@@@std@@UAE@XZ DD 019930522H
	DD	01H
	DD	FLAT:__unwindtable$??1?$basic_ios@DU?$char_traits@D@std@@@std@@UAE@XZ
	DD	2 DUP(00H)
	DD	2 DUP(00H)
	DD	00H
	DD	05H
__unwindtable$??1?$basic_ios@DU?$char_traits@D@std@@@std@@UAE@XZ DD 0ffffffffH
	DD	FLAT:___std_terminate
xdata$x	ENDS
;	COMDAT xdata$x
xdata$x	SEGMENT
__ehfuncinfo$??_G?$basic_ostringstream@DU?$char_traits@D@std@@V?$allocator@D@2@@std@@UAEPAXI@Z DD 019930522H
	DD	01H
	DD	FLAT:__unwindtable$??_G?$basic_ostringstream@DU?$char_traits@D@std@@V?$allocator@D@2@@std@@UAEPAXI@Z
	DD	2 DUP(00H)
	DD	2 DUP(00H)
	DD	00H
	DD	05H
__unwindtable$??_G?$basic_ostringstream@DU?$char_traits@D@std@@V?$allocator@D@2@@std@@UAEPAXI@Z DD 0ffffffffH
	DD	FLAT:___std_terminate
xdata$x	ENDS
;	COMDAT xdata$x
xdata$x	SEGMENT
__ehfuncinfo$??_G?$basic_ostream@DU?$char_traits@D@std@@@std@@UAEPAXI@Z DD 019930522H
	DD	01H
	DD	FLAT:__unwindtable$??_G?$basic_ostream@DU?$char_traits@D@std@@@std@@UAEPAXI@Z
	DD	2 DUP(00H)
	DD	2 DUP(00H)
	DD	00H
	DD	05H
__unwindtable$??_G?$basic_ostream@DU?$char_traits@D@std@@@std@@UAEPAXI@Z DD 0ffffffffH
	DD	FLAT:___std_terminate
xdata$x	ENDS
;	COMDAT xdata$x
xdata$x	SEGMENT
__ehfuncinfo$??_G?$basic_ios@DU?$char_traits@D@std@@@std@@UAEPAXI@Z DD 019930522H
	DD	01H
	DD	FLAT:__unwindtable$??_G?$basic_ios@DU?$char_traits@D@std@@@std@@UAEPAXI@Z
	DD	2 DUP(00H)
	DD	2 DUP(00H)
	DD	00H
	DD	05H
__unwindtable$??_G?$basic_ios@DU?$char_traits@D@std@@@std@@UAEPAXI@Z DD 0ffffffffH
	DD	FLAT:___std_terminate
xdata$x	ENDS
;	COMDAT xdata$x
xdata$x	SEGMENT
__ehfuncinfo$??_D?$basic_ostream@DU?$char_traits@D@std@@@std@@QAEXXZ DD 019930522H
	DD	01H
	DD	FLAT:__unwindtable$??_D?$basic_ostream@DU?$char_traits@D@std@@@std@@QAEXXZ
	DD	2 DUP(00H)
	DD	2 DUP(00H)
	DD	00H
	DD	05H
__unwindtable$??_D?$basic_ostream@DU?$char_traits@D@std@@@std@@QAEXXZ DD 0ffffffffH
	DD	FLAT:___std_terminate
xdata$x	ENDS
;	COMDAT xdata$x
xdata$x	SEGMENT
__ehfuncinfo$?do_put@?$num_put@DV?$ostreambuf_iterator@DU?$char_traits@D@std@@@std@@@std@@MBE?AV?$ostreambuf_iterator@DU?$char_traits@D@std@@@2@V32@AAVios_base@2@DO@Z DD 019930522H
	DD	01H
	DD	FLAT:__unwindtable$?do_put@?$num_put@DV?$ostreambuf_iterator@DU?$char_traits@D@std@@@std@@@std@@MBE?AV?$ostreambuf_iterator@DU?$char_traits@D@std@@@2@V32@AAVios_base@2@DO@Z
	DD	2 DUP(00H)
	DD	2 DUP(00H)
	DD	00H
	DD	01H
__unwindtable$?do_put@?$num_put@DV?$ostreambuf_iterator@DU?$char_traits@D@std@@@std@@@std@@MBE?AV?$ostreambuf_iterator@DU?$char_traits@D@std@@@2@V32@AAVios_base@2@DO@Z DD 0ffffffffH
	DD	FLAT:__unwindfunclet$?do_put@?$num_put@DV?$ostreambuf_iterator@DU?$char_traits@D@std@@@std@@@std@@MBE?AV?$ostreambuf_iterator@DU?$char_traits@D@std@@@2@V32@AAVios_base@2@DO@Z$0
xdata$x	ENDS
;	COMDAT xdata$x
xdata$x	SEGMENT
__ehfuncinfo$?do_put@?$num_put@DV?$ostreambuf_iterator@DU?$char_traits@D@std@@@std@@@std@@MBE?AV?$ostreambuf_iterator@DU?$char_traits@D@std@@@2@V32@AAVios_base@2@DN@Z DD 019930522H
	DD	01H
	DD	FLAT:__unwindtable$?do_put@?$num_put@DV?$ostreambuf_iterator@DU?$char_traits@D@std@@@std@@@std@@MBE?AV?$ostreambuf_iterator@DU?$char_traits@D@std@@@2@V32@AAVios_base@2@DN@Z
	DD	2 DUP(00H)
	DD	2 DUP(00H)
	DD	00H
	DD	01H
__unwindtable$?do_put@?$num_put@DV?$ostreambuf_iterator@DU?$char_traits@D@std@@@std@@@std@@MBE?AV?$ostreambuf_iterator@DU?$char_traits@D@std@@@2@V32@AAVios_base@2@DN@Z DD 0ffffffffH
	DD	FLAT:__unwindfunclet$?do_put@?$num_put@DV?$ostreambuf_iterator@DU?$char_traits@D@std@@@std@@@std@@MBE?AV?$ostreambuf_iterator@DU?$char_traits@D@std@@@2@V32@AAVios_base@2@DN@Z$0
xdata$x	ENDS
;	COMDAT xdata$x
xdata$x	SEGMENT
__ehfuncinfo$?do_put@?$num_put@DV?$ostreambuf_iterator@DU?$char_traits@D@std@@@std@@@std@@MBE?AV?$ostreambuf_iterator@DU?$char_traits@D@std@@@2@V32@AAVios_base@2@D_N@Z DD 019930522H
	DD	02H
	DD	FLAT:__unwindtable$?do_put@?$num_put@DV?$ostreambuf_iterator@DU?$char_traits@D@std@@@std@@@std@@MBE?AV?$ostreambuf_iterator@DU?$char_traits@D@std@@@2@V32@AAVios_base@2@D_N@Z
	DD	2 DUP(00H)
	DD	2 DUP(00H)
	DD	00H
	DD	01H
__unwindtable$?do_put@?$num_put@DV?$ostreambuf_iterator@DU?$char_traits@D@std@@@std@@@std@@MBE?AV?$ostreambuf_iterator@DU?$char_traits@D@std@@@2@V32@AAVios_base@2@D_N@Z DD 0ffffffffH
	DD	FLAT:__unwindfunclet$?do_put@?$num_put@DV?$ostreambuf_iterator@DU?$char_traits@D@std@@@std@@@std@@MBE?AV?$ostreambuf_iterator@DU?$char_traits@D@std@@@2@V32@AAVios_base@2@D_N@Z$0
	DD	0ffffffffH
	DD	FLAT:__unwindfunclet$?do_put@?$num_put@DV?$ostreambuf_iterator@DU?$char_traits@D@std@@@std@@@std@@MBE?AV?$ostreambuf_iterator@DU?$char_traits@D@std@@@2@V32@AAVios_base@2@D_N@Z$1
xdata$x	ENDS
;	COMDAT xdata$x
xdata$x	SEGMENT
__ehfuncinfo$?_Iput@?$num_put@DV?$ostreambuf_iterator@DU?$char_traits@D@std@@@std@@@std@@ABA?AV?$ostreambuf_iterator@DU?$char_traits@D@std@@@2@V32@AAVios_base@2@DPADI@Z DD 019930522H
	DD	04H
	DD	FLAT:__unwindtable$?_Iput@?$num_put@DV?$ostreambuf_iterator@DU?$char_traits@D@std@@@std@@@std@@ABA?AV?$ostreambuf_iterator@DU?$char_traits@D@std@@@2@V32@AAVios_base@2@DPADI@Z
	DD	2 DUP(00H)
	DD	2 DUP(00H)
	DD	00H
	DD	01H
__unwindtable$?_Iput@?$num_put@DV?$ostreambuf_iterator@DU?$char_traits@D@std@@@std@@@std@@ABA?AV?$ostreambuf_iterator@DU?$char_traits@D@std@@@2@V32@AAVios_base@2@DPADI@Z DD 0ffffffffH
	DD	FLAT:__unwindfunclet$?_Iput@?$num_put@DV?$ostreambuf_iterator@DU?$char_traits@D@std@@@std@@@std@@ABA?AV?$ostreambuf_iterator@DU?$char_traits@D@std@@@2@V32@AAVios_base@2@DPADI@Z$0
	DD	0ffffffffH
	DD	FLAT:__unwindfunclet$?_Iput@?$num_put@DV?$ostreambuf_iterator@DU?$char_traits@D@std@@@std@@@std@@ABA?AV?$ostreambuf_iterator@DU?$char_traits@D@std@@@2@V32@AAVios_base@2@DPADI@Z$1
	DD	01H
	DD	FLAT:__unwindfunclet$?_Iput@?$num_put@DV?$ostreambuf_iterator@DU?$char_traits@D@std@@@std@@@std@@ABA?AV?$ostreambuf_iterator@DU?$char_traits@D@std@@@2@V32@AAVios_base@2@DPADI@Z$2
	DD	01H
	DD	FLAT:__unwindfunclet$?_Iput@?$num_put@DV?$ostreambuf_iterator@DU?$char_traits@D@std@@@std@@@std@@ABA?AV?$ostreambuf_iterator@DU?$char_traits@D@std@@@2@V32@AAVios_base@2@DPADI@Z$3
xdata$x	ENDS
;	COMDAT xdata$x
xdata$x	SEGMENT
__ehfuncinfo$?_Fput@?$num_put@DV?$ostreambuf_iterator@DU?$char_traits@D@std@@@std@@@std@@ABA?AV?$ostreambuf_iterator@DU?$char_traits@D@std@@@2@V32@AAVios_base@2@DPBDI@Z DD 019930522H
	DD	04H
	DD	FLAT:__unwindtable$?_Fput@?$num_put@DV?$ostreambuf_iterator@DU?$char_traits@D@std@@@std@@@std@@ABA?AV?$ostreambuf_iterator@DU?$char_traits@D@std@@@2@V32@AAVios_base@2@DPBDI@Z
	DD	2 DUP(00H)
	DD	2 DUP(00H)
	DD	00H
	DD	01H
__unwindtable$?_Fput@?$num_put@DV?$ostreambuf_iterator@DU?$char_traits@D@std@@@std@@@std@@ABA?AV?$ostreambuf_iterator@DU?$char_traits@D@std@@@2@V32@AAVios_base@2@DPBDI@Z DD 0ffffffffH
	DD	FLAT:__unwindfunclet$?_Fput@?$num_put@DV?$ostreambuf_iterator@DU?$char_traits@D@std@@@std@@@std@@ABA?AV?$ostreambuf_iterator@DU?$char_traits@D@std@@@2@V32@AAVios_base@2@DPBDI@Z$0
	DD	0ffffffffH
	DD	FLAT:__unwindfunclet$?_Fput@?$num_put@DV?$ostreambuf_iterator@DU?$char_traits@D@std@@@std@@@std@@ABA?AV?$ostreambuf_iterator@DU?$char_traits@D@std@@@2@V32@AAVios_base@2@DPBDI@Z$1
	DD	01H
	DD	FLAT:__unwindfunclet$?_Fput@?$num_put@DV?$ostreambuf_iterator@DU?$char_traits@D@std@@@std@@@std@@ABA?AV?$ostreambuf_iterator@DU?$char_traits@D@std@@@2@V32@AAVios_base@2@DPBDI@Z$2
	DD	01H
	DD	FLAT:__unwindfunclet$?_Fput@?$num_put@DV?$ostreambuf_iterator@DU?$char_traits@D@std@@@std@@@std@@ABA?AV?$ostreambuf_iterator@DU?$char_traits@D@std@@@2@V32@AAVios_base@2@DPBDI@Z$3
xdata$x	ENDS
;	COMDAT xdata$x
xdata$x	SEGMENT
__ehfuncinfo$??$use_facet@V?$ctype@D@std@@@std@@YAABV?$ctype@D@0@ABVlocale@0@@Z DD 019930522H
	DD	03H
	DD	FLAT:__unwindtable$??$use_facet@V?$ctype@D@std@@@std@@YAABV?$ctype@D@0@ABVlocale@0@@Z
	DD	2 DUP(00H)
	DD	2 DUP(00H)
	DD	00H
	DD	01H
__unwindtable$??$use_facet@V?$ctype@D@std@@@std@@YAABV?$ctype@D@0@ABVlocale@0@@Z DD 0ffffffffH
	DD	FLAT:__unwindfunclet$??$use_facet@V?$ctype@D@std@@@std@@YAABV?$ctype@D@0@ABVlocale@0@@Z$0
	DD	00H
	DD	FLAT:__unwindfunclet$??$use_facet@V?$ctype@D@std@@@std@@YAABV?$ctype@D@0@ABVlocale@0@@Z$2
	DD	00H
	DD	FLAT:__unwindfunclet$??$use_facet@V?$ctype@D@std@@@std@@YAABV?$ctype@D@0@ABVlocale@0@@Z$1
xdata$x	ENDS
;	COMDAT xdata$x
xdata$x	SEGMENT
__ehfuncinfo$??$use_facet@V?$num_put@DV?$ostreambuf_iterator@DU?$char_traits@D@std@@@std@@@std@@@std@@YAABV?$num_put@DV?$ostreambuf_iterator@DU?$char_traits@D@std@@@std@@@0@ABVlocale@0@@Z DD 019930522H
	DD	03H
	DD	FLAT:__unwindtable$??$use_facet@V?$num_put@DV?$ostreambuf_iterator@DU?$char_traits@D@std@@@std@@@std@@@std@@YAABV?$num_put@DV?$ostreambuf_iterator@DU?$char_traits@D@std@@@std@@@0@ABVlocale@0@@Z
	DD	2 DUP(00H)
	DD	2 DUP(00H)
	DD	00H
	DD	01H
__unwindtable$??$use_facet@V?$num_put@DV?$ostreambuf_iterator@DU?$char_traits@D@std@@@std@@@std@@@std@@YAABV?$num_put@DV?$ostreambuf_iterator@DU?$char_traits@D@std@@@std@@@0@ABVlocale@0@@Z DD 0ffffffffH
	DD	FLAT:__unwindfunclet$??$use_facet@V?$num_put@DV?$ostreambuf_iterator@DU?$char_traits@D@std@@@std@@@std@@@std@@YAABV?$num_put@DV?$ostreambuf_iterator@DU?$char_traits@D@std@@@std@@@0@ABVlocale@0@@Z$0
	DD	00H
	DD	FLAT:__unwindfunclet$??$use_facet@V?$num_put@DV?$ostreambuf_iterator@DU?$char_traits@D@std@@@std@@@std@@@std@@YAABV?$num_put@DV?$ostreambuf_iterator@DU?$char_traits@D@std@@@std@@@0@ABVlocale@0@@Z$2
	DD	00H
	DD	FLAT:__unwindfunclet$??$use_facet@V?$num_put@DV?$ostreambuf_iterator@DU?$char_traits@D@std@@@std@@@std@@@std@@YAABV?$num_put@DV?$ostreambuf_iterator@DU?$char_traits@D@std@@@std@@@0@ABVlocale@0@@Z$1
xdata$x	ENDS
;	COMDAT xdata$x
xdata$x	SEGMENT
__ehfuncinfo$??$use_facet@V?$numpunct@D@std@@@std@@YAABV?$numpunct@D@0@ABVlocale@0@@Z DD 019930522H
	DD	07H
	DD	FLAT:__unwindtable$??$use_facet@V?$numpunct@D@std@@@std@@YAABV?$numpunct@D@0@ABVlocale@0@@Z
	DD	2 DUP(00H)
	DD	2 DUP(00H)
	DD	00H
	DD	01H
__unwindtable$??$use_facet@V?$numpunct@D@std@@@std@@YAABV?$numpunct@D@0@ABVlocale@0@@Z DD 0ffffffffH
	DD	FLAT:__unwindfunclet$??$use_facet@V?$numpunct@D@std@@@std@@YAABV?$numpunct@D@0@ABVlocale@0@@Z$0
	DD	00H
	DD	FLAT:__unwindfunclet$??$use_facet@V?$numpunct@D@std@@@std@@YAABV?$numpunct@D@0@ABVlocale@0@@Z$2
	DD	01H
	DD	FLAT:__unwindfunclet$??$use_facet@V?$numpunct@D@std@@@std@@YAABV?$numpunct@D@0@ABVlocale@0@@Z$3
	DD	02H
	DD	FLAT:__unwindfunclet$??$use_facet@V?$numpunct@D@std@@@std@@YAABV?$numpunct@D@0@ABVlocale@0@@Z$4
	DD	03H
	DD	FLAT:__unwindfunclet$??$use_facet@V?$numpunct@D@std@@@std@@YAABV?$numpunct@D@0@ABVlocale@0@@Z$5
	DD	00H
	DD	FLAT:__unwindfunclet$??$use_facet@V?$numpunct@D@std@@@std@@YAABV?$numpunct@D@0@ABVlocale@0@@Z$3
	DD	00H
	DD	FLAT:__unwindfunclet$??$use_facet@V?$numpunct@D@std@@@std@@YAABV?$numpunct@D@0@ABVlocale@0@@Z$1
xdata$x	ENDS
;	COMDAT xdata$x
xdata$x	SEGMENT
__ehfuncinfo$?_Getcat@?$numpunct@D@std@@SAIPAPBVfacet@locale@2@PBV42@@Z DD 019930522H
	DD	05H
	DD	FLAT:__unwindtable$?_Getcat@?$numpunct@D@std@@SAIPAPBVfacet@locale@2@PBV42@@Z
	DD	2 DUP(00H)
	DD	2 DUP(00H)
	DD	00H
	DD	01H
__unwindtable$?_Getcat@?$numpunct@D@std@@SAIPAPBVfacet@locale@2@PBV42@@Z DD 0ffffffffH
	DD	FLAT:__unwindfunclet$?_Getcat@?$numpunct@D@std@@SAIPAPBVfacet@locale@2@PBV42@@Z$0
	DD	00H
	DD	FLAT:__unwindfunclet$?_Getcat@?$numpunct@D@std@@SAIPAPBVfacet@locale@2@PBV42@@Z$1
	DD	01H
	DD	FLAT:__unwindfunclet$?_Getcat@?$numpunct@D@std@@SAIPAPBVfacet@locale@2@PBV42@@Z$2
	DD	02H
	DD	FLAT:__unwindfunclet$?_Getcat@?$numpunct@D@std@@SAIPAPBVfacet@locale@2@PBV42@@Z$3
	DD	0ffffffffH
	DD	FLAT:__unwindfunclet$?_Getcat@?$numpunct@D@std@@SAIPAPBVfacet@locale@2@PBV42@@Z$1
xdata$x	ENDS
;	COMDAT xdata$x
xdata$x	SEGMENT
__ehfuncinfo$?_Getcat@?$num_put@DV?$ostreambuf_iterator@DU?$char_traits@D@std@@@std@@@std@@SAIPAPBVfacet@locale@2@PBV42@@Z DD 019930522H
	DD	01H
	DD	FLAT:__unwindtable$?_Getcat@?$num_put@DV?$ostreambuf_iterator@DU?$char_traits@D@std@@@std@@@std@@SAIPAPBVfacet@locale@2@PBV42@@Z
	DD	2 DUP(00H)
	DD	2 DUP(00H)
	DD	00H
	DD	01H
__unwindtable$?_Getcat@?$num_put@DV?$ostreambuf_iterator@DU?$char_traits@D@std@@@std@@@std@@SAIPAPBVfacet@locale@2@PBV42@@Z DD 0ffffffffH
	DD	FLAT:__unwindfunclet$?_Getcat@?$num_put@DV?$ostreambuf_iterator@DU?$char_traits@D@std@@@std@@@std@@SAIPAPBVfacet@locale@2@PBV42@@Z$0
xdata$x	ENDS
;	COMDAT xdata$x
xdata$x	SEGMENT
__ehfuncinfo$??0?$numpunct@D@std@@QAE@ABV_Locinfo@1@I_N@Z DD 019930522H
	DD	02H
	DD	FLAT:__unwindtable$??0?$numpunct@D@std@@QAE@ABV_Locinfo@1@I_N@Z
	DD	2 DUP(00H)
	DD	2 DUP(00H)
	DD	00H
	DD	01H
__unwindtable$??0?$numpunct@D@std@@QAE@ABV_Locinfo@1@I_N@Z DD 0ffffffffH
	DD	FLAT:__unwindfunclet$??0?$numpunct@D@std@@QAE@ABV_Locinfo@1@I_N@Z$0
	DD	00H
	DD	FLAT:__unwindfunclet$??0?$numpunct@D@std@@QAE@ABV_Locinfo@1@I_N@Z$1
xdata$x	ENDS
;	COMDAT xdata$x
xdata$x	SEGMENT
__ehfuncinfo$?_Init@?$numpunct@D@std@@IAEXABV_Locinfo@2@_N@Z DD 019930522H
	DD	01H
	DD	FLAT:__unwindtable$?_Init@?$numpunct@D@std@@IAEXABV_Locinfo@2@_N@Z
	DD	2 DUP(00H)
	DD	2 DUP(00H)
	DD	00H
	DD	01H
__unwindtable$?_Init@?$numpunct@D@std@@IAEXABV_Locinfo@2@_N@Z DD 0ffffffffH
	DD	FLAT:__unwindfunclet$?_Init@?$numpunct@D@std@@IAEXABV_Locinfo@2@_N@Z$0
; Function compile flags: /Ogtp
;	COMDAT ??2@YAPAXIPAX@Z
_TEXT	SEGMENT
__Size$ = 8						; size = 4
__Where$ = 12						; size = 4
??2@YAPAXIPAX@Z PROC					; operator new, COMDAT
; File C:\Program Files (x86)\Microsoft Visual Studio\2019\Community\VC\Tools\MSVC\14.27.29110\include\vcruntime_new.h
; Line 167
	push	ebp
	mov	ebp, esp
; Line 169
	mov	eax, DWORD PTR __Where$[ebp]
; Line 170
	pop	ebp
	ret	0
??2@YAPAXIPAX@Z ENDP					; operator new
_TEXT	ENDS
; Function compile flags: /Ogtp
;	COMDAT _fabsl
_TEXT	SEGMENT
tv68 = -8						; size = 8
__X$ = 8						; size = 8
_fabsl	PROC						; COMDAT
; File C:\Program Files (x86)\Windows Kits\10\Include\10.0.18362.0\ucrt\corecrt_math.h
; Line 842
	push	ebp
	mov	ebp, esp
	sub	esp, 8
; Line 843
	movsd	xmm0, QWORD PTR __X$[ebp]
	andps	xmm0, QWORD PTR __xmm@7fffffffffffffff7fffffffffffffff
	movsd	QWORD PTR tv68[ebp], xmm0
	fld	QWORD PTR tv68[ebp]
; Line 844
	mov	esp, ebp
	pop	ebp
	ret	0
_fabsl	ENDP
_TEXT	ENDS
; Function compile flags: /Ogtp
;	COMDAT _frexpl
_TEXT	SEGMENT
__X$ = 8						; size = 8
__Y$ = 16						; size = 4
_frexpl	PROC						; COMDAT
; File C:\Program Files (x86)\Windows Kits\10\Include\10.0.18362.0\ucrt\corecrt_math.h
; Line 863
	push	ebp
	mov	ebp, esp
; Line 864
	push	DWORD PTR __Y$[ebp]
	movsd	xmm0, QWORD PTR __X$[ebp]
	sub	esp, 8
	movsd	QWORD PTR [esp], xmm0
	call	_frexp
	add	esp, 12					; 0000000cH
; Line 865
	pop	ebp
	ret	0
_frexpl	ENDP
_TEXT	ENDS
; Function compile flags: /Ogtp
;	COMDAT ??0exception@std@@QAE@XZ
_TEXT	SEGMENT
??0exception@std@@QAE@XZ PROC				; std::exception::exception, COMDAT
; _this$ = ecx
; File C:\Program Files (x86)\Microsoft Visual Studio\2019\Community\VC\Tools\MSVC\14.27.29110\include\vcruntime_exception.h
; Line 54
	xorps	xmm0, xmm0
	mov	DWORD PTR [ecx], OFFSET ??_7exception@std@@6B@
	movq	QWORD PTR [ecx+4], xmm0
; Line 55
	mov	eax, ecx
	ret	0
??0exception@std@@QAE@XZ ENDP				; std::exception::exception
_TEXT	ENDS
; Function compile flags: /Ogtp
;	COMDAT ??0exception@std@@QAE@QBD@Z
_TEXT	SEGMENT
__InitData$ = -12					; size = 8
__$ArrayPad$ = -4					; size = 4
__Message$ = 8						; size = 4
??0exception@std@@QAE@QBD@Z PROC			; std::exception::exception, COMDAT
; _this$ = ecx
; File C:\Program Files (x86)\Microsoft Visual Studio\2019\Community\VC\Tools\MSVC\14.27.29110\include\vcruntime_exception.h
; Line 59
	push	ebp
	mov	ebp, esp
	sub	esp, 12					; 0000000cH
	mov	eax, DWORD PTR ___security_cookie
	xor	eax, ebp
	mov	DWORD PTR __$ArrayPad$[ebp], eax
	mov	edx, DWORD PTR __Message$[ebp]
; Line 61
	lea	eax, DWORD PTR __InitData$[ebp]
	push	esi
	mov	esi, ecx
	mov	DWORD PTR __InitData$[ebp], edx
	lea	ecx, DWORD PTR [esi+4]
	mov	BYTE PTR __InitData$[ebp+4], 1
	push	ecx
	xorps	xmm0, xmm0
	mov	DWORD PTR [esi], OFFSET ??_7exception@std@@6B@
	push	eax
	movq	QWORD PTR [ecx], xmm0
	call	___std_exception_copy
; Line 62
	mov	ecx, DWORD PTR __$ArrayPad$[ebp]
	add	esp, 8
	mov	eax, esi
	xor	ecx, ebp
	pop	esi
	call	@__security_check_cookie@4
	mov	esp, ebp
	pop	ebp
	ret	4
??0exception@std@@QAE@QBD@Z ENDP			; std::exception::exception
_TEXT	ENDS
; Function compile flags: /Ogtp
;	COMDAT ??0exception@std@@QAE@QBDH@Z
_TEXT	SEGMENT
__Message$ = 8						; size = 4
___formal$ = 12						; size = 4
??0exception@std@@QAE@QBDH@Z PROC			; std::exception::exception, COMDAT
; _this$ = ecx
; File C:\Program Files (x86)\Microsoft Visual Studio\2019\Community\VC\Tools\MSVC\14.27.29110\include\vcruntime_exception.h
; Line 66
	push	ebp
	mov	ebp, esp
; Line 67
	mov	eax, DWORD PTR __Message$[ebp]
	xorps	xmm0, xmm0
	mov	DWORD PTR [ecx], OFFSET ??_7exception@std@@6B@
	movq	QWORD PTR [ecx+4], xmm0
	mov	DWORD PTR [ecx+4], eax
; Line 68
	mov	eax, ecx
	pop	ebp
	ret	8
??0exception@std@@QAE@QBDH@Z ENDP			; std::exception::exception
_TEXT	ENDS
; Function compile flags: /Ogtp
;	COMDAT ??0exception@std@@QAE@ABV01@@Z
_TEXT	SEGMENT
__Other$ = 8						; size = 4
??0exception@std@@QAE@ABV01@@Z PROC			; std::exception::exception, COMDAT
; _this$ = ecx
; File C:\Program Files (x86)\Microsoft Visual Studio\2019\Community\VC\Tools\MSVC\14.27.29110\include\vcruntime_exception.h
; Line 72
	push	ebp
	mov	ebp, esp
	push	esi
	mov	esi, ecx
	xorps	xmm0, xmm0
	lea	eax, DWORD PTR [esi+4]
; Line 73
	push	eax
	mov	DWORD PTR [esi], OFFSET ??_7exception@std@@6B@
	movq	QWORD PTR [eax], xmm0
	mov	eax, DWORD PTR __Other$[ebp]
	add	eax, 4
	push	eax
	call	___std_exception_copy
	add	esp, 8
; Line 74
	mov	eax, esi
	pop	esi
	pop	ebp
	ret	4
??0exception@std@@QAE@ABV01@@Z ENDP			; std::exception::exception
_TEXT	ENDS
; Function compile flags: /Ogtp
;	COMDAT ??1exception@std@@UAE@XZ
_TEXT	SEGMENT
??1exception@std@@UAE@XZ PROC				; std::exception::~exception, COMDAT
; _this$ = ecx
; File C:\Program Files (x86)\Microsoft Visual Studio\2019\Community\VC\Tools\MSVC\14.27.29110\include\vcruntime_exception.h
; Line 90
	lea	eax, DWORD PTR [ecx+4]
	mov	DWORD PTR [ecx], OFFSET ??_7exception@std@@6B@
	push	eax
	call	___std_exception_destroy
	pop	ecx
; Line 91
	ret	0
??1exception@std@@UAE@XZ ENDP				; std::exception::~exception
_TEXT	ENDS
; Function compile flags: /Ogtp
;	COMDAT ??_Gexception@std@@UAEPAXI@Z
_TEXT	SEGMENT
___flags$ = 8						; size = 4
??_Gexception@std@@UAEPAXI@Z PROC			; std::exception::`scalar deleting destructor', COMDAT
; _this$ = ecx
	push	ebp
	mov	ebp, esp
; File C:\Program Files (x86)\Microsoft Visual Studio\2019\Community\VC\Tools\MSVC\14.27.29110\include\vcruntime_exception.h
; Line 89
	push	esi
	mov	esi, ecx
; Line 90
	lea	eax, DWORD PTR [esi+4]
	mov	DWORD PTR [esi], OFFSET ??_7exception@std@@6B@
	push	eax
	call	___std_exception_destroy
	add	esp, 4
	test	BYTE PTR ___flags$[ebp], 1
	je	SHORT $LN6@scalar
	push	12					; 0000000cH
	push	esi
	call	??3@YAXPAXI@Z				; operator delete
	add	esp, 8
$LN6@scalar:
	mov	eax, esi
	pop	esi
	pop	ebp
	ret	4
??_Gexception@std@@UAEPAXI@Z ENDP			; std::exception::`scalar deleting destructor'
_TEXT	ENDS
; Function compile flags: /Ogtp
;	COMDAT ??0bad_alloc@std@@AAE@QBD@Z
_TEXT	SEGMENT
__Message$ = 8						; size = 4
??0bad_alloc@std@@AAE@QBD@Z PROC			; std::bad_alloc::bad_alloc, COMDAT
; _this$ = ecx
; File C:\Program Files (x86)\Microsoft Visual Studio\2019\Community\VC\Tools\MSVC\14.27.29110\include\vcruntime_exception.h
; Line 130
	push	ebp
	mov	ebp, esp
; Line 67
	mov	eax, DWORD PTR __Message$[ebp]
	xorps	xmm0, xmm0
; Line 65
	movq	QWORD PTR [ecx+4], xmm0
; Line 67
	mov	DWORD PTR [ecx+4], eax
; Line 131
	mov	eax, ecx
	mov	DWORD PTR [ecx], OFFSET ??_7bad_alloc@std@@6B@
	pop	ebp
	ret	4
??0bad_alloc@std@@AAE@QBD@Z ENDP			; std::bad_alloc::bad_alloc
_TEXT	ENDS
; Function compile flags: /Ogtp
;	COMDAT ??_Gbad_alloc@std@@UAEPAXI@Z
_TEXT	SEGMENT
___flags$ = 8						; size = 4
??_Gbad_alloc@std@@UAEPAXI@Z PROC			; std::bad_alloc::`scalar deleting destructor', COMDAT
; _this$ = ecx
	push	ebp
	mov	ebp, esp
; File C:\Program Files (x86)\Microsoft Visual Studio\2019\Community\VC\Tools\MSVC\14.27.29110\include\vcruntime_exception.h
; Line 89
	push	esi
	mov	esi, ecx
; Line 90
	lea	eax, DWORD PTR [esi+4]
	mov	DWORD PTR [esi], OFFSET ??_7exception@std@@6B@
	push	eax
	call	___std_exception_destroy
	add	esp, 4
	test	BYTE PTR ___flags$[ebp], 1
	je	SHORT $LN9@scalar
	push	12					; 0000000cH
	push	esi
	call	??3@YAXPAXI@Z				; operator delete
	add	esp, 8
$LN9@scalar:
	mov	eax, esi
	pop	esi
	pop	ebp
	ret	4
??_Gbad_alloc@std@@UAEPAXI@Z ENDP			; std::bad_alloc::`scalar deleting destructor'
_TEXT	ENDS
; Function compile flags: /Ogtp
;	COMDAT ??1bad_alloc@std@@UAE@XZ
_TEXT	SEGMENT
??1bad_alloc@std@@UAE@XZ PROC				; std::bad_alloc::~bad_alloc, COMDAT
; _this$ = ecx
; File C:\Program Files (x86)\Microsoft Visual Studio\2019\Community\VC\Tools\MSVC\14.27.29110\include\vcruntime_exception.h
; Line 90
	lea	eax, DWORD PTR [ecx+4]
	mov	DWORD PTR [ecx], OFFSET ??_7exception@std@@6B@
	push	eax
	call	___std_exception_destroy
	pop	ecx
	ret	0
??1bad_alloc@std@@UAE@XZ ENDP				; std::bad_alloc::~bad_alloc
_TEXT	ENDS
; Function compile flags: /Ogtp
;	COMDAT ??0bad_array_new_length@std@@QAE@XZ
_TEXT	SEGMENT
??0bad_array_new_length@std@@QAE@XZ PROC		; std::bad_array_new_length::bad_array_new_length, COMDAT
; _this$ = ecx
; File C:\Program Files (x86)\Microsoft Visual Studio\2019\Community\VC\Tools\MSVC\14.27.29110\include\vcruntime_exception.h
; Line 141
	xorps	xmm0, xmm0
; Line 142
	mov	eax, ecx
; Line 65
	movq	QWORD PTR [ecx+4], xmm0
; Line 67
	mov	DWORD PTR [ecx+4], OFFSET ??_C@_0BF@KINCDENJ@bad?5array?5new?5length@
; Line 141
	mov	DWORD PTR [ecx], OFFSET ??_7bad_array_new_length@std@@6B@
; Line 142
	ret	0
??0bad_array_new_length@std@@QAE@XZ ENDP		; std::bad_array_new_length::bad_array_new_length
_TEXT	ENDS
; Function compile flags: /Ogtp
;	COMDAT ??_Gbad_array_new_length@std@@UAEPAXI@Z
_TEXT	SEGMENT
___flags$ = 8						; size = 4
??_Gbad_array_new_length@std@@UAEPAXI@Z PROC		; std::bad_array_new_length::`scalar deleting destructor', COMDAT
; _this$ = ecx
	push	ebp
	mov	ebp, esp
; File C:\Program Files (x86)\Microsoft Visual Studio\2019\Community\VC\Tools\MSVC\14.27.29110\include\vcruntime_exception.h
; Line 89
	push	esi
	mov	esi, ecx
; Line 90
	lea	eax, DWORD PTR [esi+4]
	mov	DWORD PTR [esi], OFFSET ??_7exception@std@@6B@
	push	eax
	call	___std_exception_destroy
	add	esp, 4
	test	BYTE PTR ___flags$[ebp], 1
	je	SHORT $LN12@scalar
	push	12					; 0000000cH
	push	esi
	call	??3@YAXPAXI@Z				; operator delete
	add	esp, 8
$LN12@scalar:
	mov	eax, esi
	pop	esi
	pop	ebp
	ret	4
??_Gbad_array_new_length@std@@UAEPAXI@Z ENDP		; std::bad_array_new_length::`scalar deleting destructor'
_TEXT	ENDS
; Function compile flags: /Ogtp
;	COMDAT ??1bad_array_new_length@std@@UAE@XZ
_TEXT	SEGMENT
??1bad_array_new_length@std@@UAE@XZ PROC		; std::bad_array_new_length::~bad_array_new_length, COMDAT
; _this$ = ecx
; File C:\Program Files (x86)\Microsoft Visual Studio\2019\Community\VC\Tools\MSVC\14.27.29110\include\vcruntime_exception.h
; Line 90
	lea	eax, DWORD PTR [ecx+4]
	mov	DWORD PTR [ecx], OFFSET ??_7exception@std@@6B@
	push	eax
	call	___std_exception_destroy
	pop	ecx
	ret	0
??1bad_array_new_length@std@@UAE@XZ ENDP		; std::bad_array_new_length::~bad_array_new_length
_TEXT	ENDS
; Function compile flags: /Ogtp
;	COMDAT ?_Throw_bad_array_new_length@std@@YAXXZ
_TEXT	SEGMENT
$T1 = -12						; size = 12
?_Throw_bad_array_new_length@std@@YAXXZ PROC		; std::_Throw_bad_array_new_length, COMDAT
; File C:\Program Files (x86)\Microsoft Visual Studio\2019\Community\VC\Tools\MSVC\14.27.29110\include\exception
; Line 320
	push	ebp
	mov	ebp, esp
	sub	esp, 12					; 0000000cH
; Line 321
	lea	ecx, DWORD PTR $T1[ebp]
	call	??0bad_array_new_length@std@@QAE@XZ	; std::bad_array_new_length::bad_array_new_length
	push	OFFSET __TI3?AVbad_array_new_length@std@@
	lea	eax, DWORD PTR $T1[ebp]
	push	eax
	call	__CxxThrowException@8
$LN3@Throw_bad_:
	int	3
?_Throw_bad_array_new_length@std@@YAXXZ ENDP		; std::_Throw_bad_array_new_length
_TEXT	ENDS
; Function compile flags: /Ogtp
;	COMDAT ??0bad_array_new_length@std@@QAE@ABV01@@Z
_TEXT	SEGMENT
___that$ = 8						; size = 4
??0bad_array_new_length@std@@QAE@ABV01@@Z PROC		; std::bad_array_new_length::bad_array_new_length, COMDAT
; _this$ = ecx
	push	ebp
	mov	ebp, esp
; File C:\Program Files (x86)\Microsoft Visual Studio\2019\Community\VC\Tools\MSVC\14.27.29110\include\vcruntime_exception.h
; Line 72
	push	esi
	mov	esi, ecx
	xorps	xmm0, xmm0
; Line 71
	lea	eax, DWORD PTR [esi+4]
; Line 73
	push	eax
	mov	DWORD PTR [esi], OFFSET ??_7exception@std@@6B@
	movq	QWORD PTR [eax], xmm0
	mov	eax, DWORD PTR ___that$[ebp]
	add	eax, 4
	push	eax
	call	___std_exception_copy
	add	esp, 8
	mov	DWORD PTR [esi], OFFSET ??_7bad_array_new_length@std@@6B@
	mov	eax, esi
	pop	esi
	pop	ebp
	ret	4
??0bad_array_new_length@std@@QAE@ABV01@@Z ENDP		; std::bad_array_new_length::bad_array_new_length
_TEXT	ENDS
; Function compile flags: /Ogtp
;	COMDAT ??0bad_alloc@std@@QAE@ABV01@@Z
_TEXT	SEGMENT
___that$ = 8						; size = 4
??0bad_alloc@std@@QAE@ABV01@@Z PROC			; std::bad_alloc::bad_alloc, COMDAT
; _this$ = ecx
	push	ebp
	mov	ebp, esp
; File C:\Program Files (x86)\Microsoft Visual Studio\2019\Community\VC\Tools\MSVC\14.27.29110\include\vcruntime_exception.h
; Line 72
	push	esi
	mov	esi, ecx
	xorps	xmm0, xmm0
; Line 71
	lea	eax, DWORD PTR [esi+4]
; Line 73
	push	eax
	mov	DWORD PTR [esi], OFFSET ??_7exception@std@@6B@
	movq	QWORD PTR [eax], xmm0
	mov	eax, DWORD PTR ___that$[ebp]
	add	eax, 4
	push	eax
	call	___std_exception_copy
	add	esp, 8
	mov	DWORD PTR [esi], OFFSET ??_7bad_alloc@std@@6B@
	mov	eax, esi
	pop	esi
	pop	ebp
	ret	4
??0bad_alloc@std@@QAE@ABV01@@Z ENDP			; std::bad_alloc::bad_alloc
_TEXT	ENDS
; Function compile flags: /Ogtp
;	COMDAT ___local_stdio_printf_options
_TEXT	SEGMENT
___local_stdio_printf_options PROC			; COMDAT
; File C:\Program Files (x86)\Windows Kits\10\Include\10.0.18362.0\ucrt\corecrt_stdio_config.h
; Line 88
	mov	eax, OFFSET ?_OptionsStorage@?1??__local_stdio_printf_options@@9@4_KA ; `__local_stdio_printf_options'::`2'::_OptionsStorage
; Line 89
	ret	0
___local_stdio_printf_options ENDP
_TEXT	ENDS
; Function compile flags: /Ogtp
;	COMDAT __vsprintf_s_l
_TEXT	SEGMENT
__Buffer$ = 8						; size = 4
__BufferCount$ = 12					; size = 4
__Format$ = 16						; size = 4
__Locale$ = 20						; size = 4
__ArgList$ = 24						; size = 4
__vsprintf_s_l PROC					; COMDAT
; File C:\Program Files (x86)\Windows Kits\10\Include\10.0.18362.0\ucrt\stdio.h
; Line 1497
	push	ebp
	mov	ebp, esp
	and	esp, -8					; fffffff8H
; Line 1498
	push	DWORD PTR __ArgList$[ebp]
	push	DWORD PTR __Locale$[ebp]
	push	DWORD PTR __Format$[ebp]
	push	DWORD PTR __BufferCount$[ebp]
	push	DWORD PTR __Buffer$[ebp]
	call	___local_stdio_printf_options
	push	DWORD PTR [eax+4]
	push	DWORD PTR [eax]
	call	___stdio_common_vsprintf_s
; Line 1502
	or	ecx, -1
	add	esp, 28					; 0000001cH
	test	eax, eax
	cmovs	eax, ecx
; Line 1503
	mov	esp, ebp
	pop	ebp
	ret	0
__vsprintf_s_l ENDP
_TEXT	ENDS
; Function compile flags: /Ogtp
;	COMDAT _sprintf_s
_TEXT	SEGMENT
__Buffer$ = 8						; size = 4
__BufferCount$ = 12					; size = 4
__Format$ = 16						; size = 4
_sprintf_s PROC						; COMDAT
; File C:\Program Files (x86)\Windows Kits\10\Include\10.0.18362.0\ucrt\stdio.h
; Line 1841
	push	ebp
	mov	ebp, esp
	push	ecx
	mov	eax, DWORD PTR __Buffer$[ebp]
; Line 1845
	lea	ecx, DWORD PTR __Format$[ebp+4]
	push	ecx
	push	0
	push	DWORD PTR __Format$[ebp]
	push	DWORD PTR __BufferCount$[ebp]
	push	eax
	call	__vsprintf_s_l
	add	esp, 20					; 00000014H
; Line 1848
	pop	ecx
	pop	ebp
	ret	0
_sprintf_s ENDP
_TEXT	ENDS
; Function compile flags: /Ogtp
;	COMDAT ?max@?$numeric_limits@H@std@@SAHXZ
_TEXT	SEGMENT
?max@?$numeric_limits@H@std@@SAHXZ PROC			; std::numeric_limits<int>::max, COMDAT
; File C:\Program Files (x86)\Microsoft Visual Studio\2019\Community\VC\Tools\MSVC\14.27.29110\include\limits
; Line 555
	mov	eax, 2147483647				; 7fffffffH
; Line 556
	ret	0
?max@?$numeric_limits@H@std@@SAHXZ ENDP			; std::numeric_limits<int>::max
_TEXT	ENDS
; Function compile flags: /Ogtp
;	COMDAT ?_Allocate@_Default_allocate_traits@std@@SAPAXI@Z
_TEXT	SEGMENT
__Bytes$ = 8						; size = 4
?_Allocate@_Default_allocate_traits@std@@SAPAXI@Z PROC	; std::_Default_allocate_traits::_Allocate, COMDAT
; File C:\Program Files (x86)\Microsoft Visual Studio\2019\Community\VC\Tools\MSVC\14.27.29110\include\xmemory
; Line 76
	push	ebp
	mov	ebp, esp
; Line 78
	pop	ebp
; Line 77
	jmp	??2@YAPAXI@Z				; operator new
?_Allocate@_Default_allocate_traits@std@@SAPAXI@Z ENDP	; std::_Default_allocate_traits::_Allocate
_TEXT	ENDS
; Function compile flags: /Ogtp
;	COMDAT ?_Adjust_manually_vector_aligned@std@@YAXAAPAXAAI@Z
_TEXT	SEGMENT
__Ptr$ = 8						; size = 4
__Bytes$ = 12						; size = 4
?_Adjust_manually_vector_aligned@std@@YAXAAPAXAAI@Z PROC ; std::_Adjust_manually_vector_aligned, COMDAT
; File C:\Program Files (x86)\Microsoft Visual Studio\2019\Community\VC\Tools\MSVC\14.27.29110\include\xmemory
; Line 132
	push	ebp
	mov	ebp, esp
; Line 134
	mov	eax, DWORD PTR __Bytes$[ebp]
; Line 137
	mov	ecx, DWORD PTR __Ptr$[ebp]
	add	DWORD PTR [eax], 35			; 00000023H
	mov	eax, DWORD PTR [ecx]
	mov	edx, DWORD PTR [eax-4]
; Line 150
	sub	eax, edx
; Line 151
	add	eax, -4					; fffffffcH
	cmp	eax, 31					; 0000001fH
	ja	SHORT $LN7@Adjust_man
; Line 152
	mov	DWORD PTR [ecx], edx
; Line 153
	pop	ebp
	ret	0
$LN7@Adjust_man:
; Line 151
	jmp	__invalid_parameter_noinfo_noreturn
?_Adjust_manually_vector_aligned@std@@YAXAAPAXAAI@Z ENDP ; std::_Adjust_manually_vector_aligned
_TEXT	ENDS
; Function compile flags: /Ogtp
;	COMDAT ??$_Convert_size@I@std@@YAII@Z
_TEXT	SEGMENT
__Len$ = 8						; size = 4
??$_Convert_size@I@std@@YAII@Z PROC			; std::_Convert_size<unsigned int>, COMDAT
; File C:\Program Files (x86)\Microsoft Visual Studio\2019\Community\VC\Tools\MSVC\14.27.29110\include\xmemory
; Line 990
	push	ebp
	mov	ebp, esp
; Line 992
	mov	eax, DWORD PTR __Len$[ebp]
; Line 993
	pop	ebp
	ret	0
??$_Convert_size@I@std@@YAII@Z ENDP			; std::_Convert_size<unsigned int>
_TEXT	ENDS
; Function compile flags: /Ogtp
;	COMDAT ?_Orphan_all@_Container_base0@std@@QAEXXZ
_TEXT	SEGMENT
?_Orphan_all@_Container_base0@std@@QAEXXZ PROC		; std::_Container_base0::_Orphan_all, COMDAT
; _this$ = ecx
; File C:\Program Files (x86)\Microsoft Visual Studio\2019\Community\VC\Tools\MSVC\14.27.29110\include\xmemory
; Line 1065
	ret	0
?_Orphan_all@_Container_base0@std@@QAEXXZ ENDP		; std::_Container_base0::_Orphan_all
_TEXT	ENDS
; Function compile flags: /Ogtp
;	COMDAT ?_Alloc_proxy@_Container_base0@std@@QAEXABU_Fake_allocator@2@@Z
_TEXT	SEGMENT
___formal$ = 8						; size = 4
?_Alloc_proxy@_Container_base0@std@@QAEXABU_Fake_allocator@2@@Z PROC ; std::_Container_base0::_Alloc_proxy, COMDAT
; _this$ = ecx
; File C:\Program Files (x86)\Microsoft Visual Studio\2019\Community\VC\Tools\MSVC\14.27.29110\include\xmemory
; Line 1067
	ret	4
?_Alloc_proxy@_Container_base0@std@@QAEXABU_Fake_allocator@2@@Z ENDP ; std::_Container_base0::_Alloc_proxy
_TEXT	ENDS
; Function compile flags: /Ogtp
;	COMDAT ??0_Fake_proxy_ptr_impl@std@@QAE@ABU_Fake_allocator@1@ABU_Container_base0@1@@Z
_TEXT	SEGMENT
___formal$ = 8						; size = 4
___formal$ = 12						; size = 4
??0_Fake_proxy_ptr_impl@std@@QAE@ABU_Fake_allocator@1@ABU_Container_base0@1@@Z PROC ; std::_Fake_proxy_ptr_impl::_Fake_proxy_ptr_impl, COMDAT
; _this$ = ecx
; File C:\Program Files (x86)\Microsoft Visual Studio\2019\Community\VC\Tools\MSVC\14.27.29110\include\xmemory
; Line 1256
	mov	eax, ecx
	ret	8
??0_Fake_proxy_ptr_impl@std@@QAE@ABU_Fake_allocator@1@ABU_Container_base0@1@@Z ENDP ; std::_Fake_proxy_ptr_impl::_Fake_proxy_ptr_impl
_TEXT	ENDS
; Function compile flags: /Ogtp
;	COMDAT ?_Release@_Fake_proxy_ptr_impl@std@@QAEXXZ
_TEXT	SEGMENT
?_Release@_Fake_proxy_ptr_impl@std@@QAEXXZ PROC		; std::_Fake_proxy_ptr_impl::_Release, COMDAT
; _this$ = ecx
; File C:\Program Files (x86)\Microsoft Visual Studio\2019\Community\VC\Tools\MSVC\14.27.29110\include\xmemory
; Line 1259
	ret	0
?_Release@_Fake_proxy_ptr_impl@std@@QAEXXZ ENDP		; std::_Fake_proxy_ptr_impl::_Release
_TEXT	ENDS
; Function compile flags: /Ogtp
;	COMDAT ?_Xlen_string@std@@YAXXZ
_TEXT	SEGMENT
?_Xlen_string@std@@YAXXZ PROC				; std::_Xlen_string, COMDAT
; File C:\Program Files (x86)\Microsoft Visual Studio\2019\Community\VC\Tools\MSVC\14.27.29110\include\xstring
; Line 2201
	push	OFFSET ??_C@_0BA@JFNIOLAK@string?5too?5long@
	call	?_Xlength_error@std@@YAXPBD@Z		; std::_Xlength_error
$LN3@Xlen_strin:
	int	3
?_Xlen_string@std@@YAXXZ ENDP				; std::_Xlen_string
_TEXT	ENDS
; Function compile flags: /Ogtp
;	COMDAT ??_Gruntime_error@std@@UAEPAXI@Z
_TEXT	SEGMENT
___flags$ = 8						; size = 4
??_Gruntime_error@std@@UAEPAXI@Z PROC			; std::runtime_error::`scalar deleting destructor', COMDAT
; _this$ = ecx
	push	ebp
	mov	ebp, esp
; File C:\Program Files (x86)\Microsoft Visual Studio\2019\Community\VC\Tools\MSVC\14.27.29110\include\vcruntime_exception.h
; Line 89
	push	esi
	mov	esi, ecx
; Line 90
	lea	eax, DWORD PTR [esi+4]
	mov	DWORD PTR [esi], OFFSET ??_7exception@std@@6B@
	push	eax
	call	___std_exception_destroy
	add	esp, 4
	test	BYTE PTR ___flags$[ebp], 1
	je	SHORT $LN9@scalar
	push	12					; 0000000cH
	push	esi
	call	??3@YAXPAXI@Z				; operator delete
	add	esp, 8
$LN9@scalar:
	mov	eax, esi
	pop	esi
	pop	ebp
	ret	4
??_Gruntime_error@std@@UAEPAXI@Z ENDP			; std::runtime_error::`scalar deleting destructor'
_TEXT	ENDS
; Function compile flags: /Ogtp
;	COMDAT ??1runtime_error@std@@UAE@XZ
_TEXT	SEGMENT
??1runtime_error@std@@UAE@XZ PROC			; std::runtime_error::~runtime_error, COMDAT
; _this$ = ecx
; File C:\Program Files (x86)\Microsoft Visual Studio\2019\Community\VC\Tools\MSVC\14.27.29110\include\vcruntime_exception.h
; Line 90
	lea	eax, DWORD PTR [ecx+4]
	mov	DWORD PTR [ecx], OFFSET ??_7exception@std@@6B@
	push	eax
	call	___std_exception_destroy
	pop	ecx
	ret	0
??1runtime_error@std@@UAE@XZ ENDP			; std::runtime_error::~runtime_error
_TEXT	ENDS
; Function compile flags: /Ogtp
;	COMDAT ??0runtime_error@std@@QAE@ABV01@@Z
_TEXT	SEGMENT
___that$ = 8						; size = 4
??0runtime_error@std@@QAE@ABV01@@Z PROC			; std::runtime_error::runtime_error, COMDAT
; _this$ = ecx
	push	ebp
	mov	ebp, esp
; File C:\Program Files (x86)\Microsoft Visual Studio\2019\Community\VC\Tools\MSVC\14.27.29110\include\vcruntime_exception.h
; Line 72
	push	esi
	mov	esi, ecx
	xorps	xmm0, xmm0
; Line 71
	lea	eax, DWORD PTR [esi+4]
; Line 73
	push	eax
	mov	DWORD PTR [esi], OFFSET ??_7exception@std@@6B@
	movq	QWORD PTR [eax], xmm0
	mov	eax, DWORD PTR ___that$[ebp]
	add	eax, 4
	push	eax
	call	___std_exception_copy
	add	esp, 8
	mov	DWORD PTR [esi], OFFSET ??_7runtime_error@std@@6B@
	mov	eax, esi
	pop	esi
	pop	ebp
	ret	4
??0runtime_error@std@@QAE@ABV01@@Z ENDP			; std::runtime_error::runtime_error
_TEXT	ENDS
; Function compile flags: /Ogtp
;	COMDAT ??1error_category@std@@UAE@XZ
_TEXT	SEGMENT
??1error_category@std@@UAE@XZ PROC			; std::error_category::~error_category, COMDAT
; _this$ = ecx
; File C:\Program Files (x86)\Microsoft Visual Studio\2019\Community\VC\Tools\MSVC\14.27.29110\include\system_error
; Line 115
	ret	0
??1error_category@std@@UAE@XZ ENDP			; std::error_category::~error_category
_TEXT	ENDS
; Function compile flags: /Ogtp
;	COMDAT ??_G_System_error@std@@UAEPAXI@Z
_TEXT	SEGMENT
___flags$ = 8						; size = 4
??_G_System_error@std@@UAEPAXI@Z PROC			; std::_System_error::`scalar deleting destructor', COMDAT
; _this$ = ecx
	push	ebp
	mov	ebp, esp
; File C:\Program Files (x86)\Microsoft Visual Studio\2019\Community\VC\Tools\MSVC\14.27.29110\include\vcruntime_exception.h
; Line 89
	push	esi
	mov	esi, ecx
; Line 90
	lea	eax, DWORD PTR [esi+4]
	mov	DWORD PTR [esi], OFFSET ??_7exception@std@@6B@
	push	eax
	call	___std_exception_destroy
	add	esp, 4
	test	BYTE PTR ___flags$[ebp], 1
	je	SHORT $LN12@scalar
	push	20					; 00000014H
	push	esi
	call	??3@YAXPAXI@Z				; operator delete
	add	esp, 8
$LN12@scalar:
	mov	eax, esi
	pop	esi
	pop	ebp
	ret	4
??_G_System_error@std@@UAEPAXI@Z ENDP			; std::_System_error::`scalar deleting destructor'
_TEXT	ENDS
; Function compile flags: /Ogtp
;	COMDAT ??1_System_error@std@@UAE@XZ
_TEXT	SEGMENT
??1_System_error@std@@UAE@XZ PROC			; std::_System_error::~_System_error, COMDAT
; _this$ = ecx
; File C:\Program Files (x86)\Microsoft Visual Studio\2019\Community\VC\Tools\MSVC\14.27.29110\include\vcruntime_exception.h
; Line 90
	lea	eax, DWORD PTR [ecx+4]
	mov	DWORD PTR [ecx], OFFSET ??_7exception@std@@6B@
	push	eax
	call	___std_exception_destroy
	pop	ecx
	ret	0
??1_System_error@std@@UAE@XZ ENDP			; std::_System_error::~_System_error
_TEXT	ENDS
; Function compile flags: /Ogtp
;	COMDAT ??_Gsystem_error@std@@UAEPAXI@Z
_TEXT	SEGMENT
___flags$ = 8						; size = 4
??_Gsystem_error@std@@UAEPAXI@Z PROC			; std::system_error::`scalar deleting destructor', COMDAT
; _this$ = ecx
	push	ebp
	mov	ebp, esp
; File C:\Program Files (x86)\Microsoft Visual Studio\2019\Community\VC\Tools\MSVC\14.27.29110\include\vcruntime_exception.h
; Line 89
	push	esi
	mov	esi, ecx
; Line 90
	lea	eax, DWORD PTR [esi+4]
	mov	DWORD PTR [esi], OFFSET ??_7exception@std@@6B@
	push	eax
	call	___std_exception_destroy
	add	esp, 4
	test	BYTE PTR ___flags$[ebp], 1
	je	SHORT $LN15@scalar
	push	20					; 00000014H
	push	esi
	call	??3@YAXPAXI@Z				; operator delete
	add	esp, 8
$LN15@scalar:
	mov	eax, esi
	pop	esi
	pop	ebp
	ret	4
??_Gsystem_error@std@@UAEPAXI@Z ENDP			; std::system_error::`scalar deleting destructor'
_TEXT	ENDS
; Function compile flags: /Ogtp
;	COMDAT ??1system_error@std@@UAE@XZ
_TEXT	SEGMENT
??1system_error@std@@UAE@XZ PROC			; std::system_error::~system_error, COMDAT
; _this$ = ecx
; File C:\Program Files (x86)\Microsoft Visual Studio\2019\Community\VC\Tools\MSVC\14.27.29110\include\vcruntime_exception.h
; Line 90
	lea	eax, DWORD PTR [ecx+4]
	mov	DWORD PTR [ecx], OFFSET ??_7exception@std@@6B@
	push	eax
	call	___std_exception_destroy
	pop	ecx
	ret	0
??1system_error@std@@UAE@XZ ENDP			; std::system_error::~system_error
_TEXT	ENDS
; Function compile flags: /Ogtp
;	COMDAT ??_G_Iostream_error_category2@std@@UAEPAXI@Z
_TEXT	SEGMENT
___flags$ = 8						; size = 4
??_G_Iostream_error_category2@std@@UAEPAXI@Z PROC	; std::_Iostream_error_category2::`scalar deleting destructor', COMDAT
; _this$ = ecx
	push	ebp
	mov	ebp, esp
	test	BYTE PTR ___flags$[ebp], 1
	push	esi
	mov	esi, ecx
	je	SHORT $LN4@scalar
	push	8
	push	esi
	call	??3@YAXPAXI@Z				; operator delete
	add	esp, 8
$LN4@scalar:
	mov	eax, esi
	pop	esi
	pop	ebp
	ret	4
??_G_Iostream_error_category2@std@@UAEPAXI@Z ENDP	; std::_Iostream_error_category2::`scalar deleting destructor'
_TEXT	ENDS
; Function compile flags: /Ogtp
;	COMDAT ??1_Iostream_error_category2@std@@UAE@XZ
_TEXT	SEGMENT
??1_Iostream_error_category2@std@@UAE@XZ PROC		; std::_Iostream_error_category2::~_Iostream_error_category2, COMDAT
; _this$ = ecx
	ret	0
??1_Iostream_error_category2@std@@UAE@XZ ENDP		; std::_Iostream_error_category2::~_Iostream_error_category2
_TEXT	ENDS
; Function compile flags: /Ogtp
;	COMDAT ??0bad_cast@std@@QAE@XZ
_TEXT	SEGMENT
??0bad_cast@std@@QAE@XZ PROC				; std::bad_cast::bad_cast, COMDAT
; _this$ = ecx
; File C:\Program Files (x86)\Microsoft Visual Studio\2019\Community\VC\Tools\MSVC\14.27.29110\include\vcruntime_typeinfo.h
; Line 135
	xorps	xmm0, xmm0
; Line 136
	mov	eax, ecx
; File C:\Program Files (x86)\Microsoft Visual Studio\2019\Community\VC\Tools\MSVC\14.27.29110\include\vcruntime_exception.h
; Line 65
	movq	QWORD PTR [ecx+4], xmm0
; Line 67
	mov	DWORD PTR [ecx+4], OFFSET ??_C@_08EPJLHIJG@bad?5cast@
; File C:\Program Files (x86)\Microsoft Visual Studio\2019\Community\VC\Tools\MSVC\14.27.29110\include\vcruntime_typeinfo.h
; Line 135
	mov	DWORD PTR [ecx], OFFSET ??_7bad_cast@std@@6B@
; Line 136
	ret	0
??0bad_cast@std@@QAE@XZ ENDP				; std::bad_cast::bad_cast
_TEXT	ENDS
; Function compile flags: /Ogtp
;	COMDAT ??_Gbad_cast@std@@UAEPAXI@Z
_TEXT	SEGMENT
___flags$ = 8						; size = 4
??_Gbad_cast@std@@UAEPAXI@Z PROC			; std::bad_cast::`scalar deleting destructor', COMDAT
; _this$ = ecx
	push	ebp
	mov	ebp, esp
; File C:\Program Files (x86)\Microsoft Visual Studio\2019\Community\VC\Tools\MSVC\14.27.29110\include\vcruntime_exception.h
; Line 89
	push	esi
	mov	esi, ecx
; Line 90
	lea	eax, DWORD PTR [esi+4]
	mov	DWORD PTR [esi], OFFSET ??_7exception@std@@6B@
	push	eax
	call	___std_exception_destroy
	add	esp, 4
	test	BYTE PTR ___flags$[ebp], 1
	je	SHORT $LN9@scalar
	push	12					; 0000000cH
	push	esi
	call	??3@YAXPAXI@Z				; operator delete
	add	esp, 8
$LN9@scalar:
	mov	eax, esi
	pop	esi
	pop	ebp
	ret	4
??_Gbad_cast@std@@UAEPAXI@Z ENDP			; std::bad_cast::`scalar deleting destructor'
_TEXT	ENDS
; Function compile flags: /Ogtp
;	COMDAT ??1bad_cast@std@@UAE@XZ
_TEXT	SEGMENT
??1bad_cast@std@@UAE@XZ PROC				; std::bad_cast::~bad_cast, COMDAT
; _this$ = ecx
; File C:\Program Files (x86)\Microsoft Visual Studio\2019\Community\VC\Tools\MSVC\14.27.29110\include\vcruntime_exception.h
; Line 90
	lea	eax, DWORD PTR [ecx+4]
	mov	DWORD PTR [ecx], OFFSET ??_7exception@std@@6B@
	push	eax
	call	___std_exception_destroy
	pop	ecx
	ret	0
??1bad_cast@std@@UAE@XZ ENDP				; std::bad_cast::~bad_cast
_TEXT	ENDS
; Function compile flags: /Ogtp
;	COMDAT ?_Throw_bad_cast@std@@YAXXZ
_TEXT	SEGMENT
$T1 = -12						; size = 12
?_Throw_bad_cast@std@@YAXXZ PROC			; std::_Throw_bad_cast, COMDAT
; File C:\Program Files (x86)\Microsoft Visual Studio\2019\Community\VC\Tools\MSVC\14.27.29110\include\typeinfo
; Line 64
	push	ebp
	mov	ebp, esp
	sub	esp, 12					; 0000000cH
; Line 65
	lea	ecx, DWORD PTR $T1[ebp]
	call	??0bad_cast@std@@QAE@XZ			; std::bad_cast::bad_cast
	push	OFFSET __TI2?AVbad_cast@std@@
	lea	eax, DWORD PTR $T1[ebp]
	push	eax
	call	__CxxThrowException@8
$LN3@Throw_bad_:
	int	3
?_Throw_bad_cast@std@@YAXXZ ENDP			; std::_Throw_bad_cast
_TEXT	ENDS
; Function compile flags: /Ogtp
;	COMDAT ??0bad_cast@std@@QAE@ABV01@@Z
_TEXT	SEGMENT
___that$ = 8						; size = 4
??0bad_cast@std@@QAE@ABV01@@Z PROC			; std::bad_cast::bad_cast, COMDAT
; _this$ = ecx
	push	ebp
	mov	ebp, esp
; File C:\Program Files (x86)\Microsoft Visual Studio\2019\Community\VC\Tools\MSVC\14.27.29110\include\vcruntime_exception.h
; Line 72
	push	esi
	mov	esi, ecx
	xorps	xmm0, xmm0
; Line 71
	lea	eax, DWORD PTR [esi+4]
; Line 73
	push	eax
	mov	DWORD PTR [esi], OFFSET ??_7exception@std@@6B@
	movq	QWORD PTR [eax], xmm0
	mov	eax, DWORD PTR ___that$[ebp]
	add	eax, 4
	push	eax
	call	___std_exception_copy
	add	esp, 8
	mov	DWORD PTR [esi], OFFSET ??_7bad_cast@std@@6B@
	mov	eax, esi
	pop	esi
	pop	ebp
	ret	4
??0bad_cast@std@@QAE@ABV01@@Z ENDP			; std::bad_cast::bad_cast
_TEXT	ENDS
; Function compile flags: /Ogtp
;	COMDAT ??1_Facet_base@std@@UAE@XZ
_TEXT	SEGMENT
??1_Facet_base@std@@UAE@XZ PROC				; std::_Facet_base::~_Facet_base, COMDAT
; _this$ = ecx
; File C:\Program Files (x86)\Microsoft Visual Studio\2019\Community\VC\Tools\MSVC\14.27.29110\include\xfacet
; Line 28
	mov	DWORD PTR [ecx], OFFSET ??_7_Facet_base@std@@6B@
	ret	0
??1_Facet_base@std@@UAE@XZ ENDP				; std::_Facet_base::~_Facet_base
_TEXT	ENDS
; Function compile flags: /Ogtp
;	COMDAT ??_G_Facet_base@std@@UAEPAXI@Z
_TEXT	SEGMENT
___flags$ = 8						; size = 4
??_G_Facet_base@std@@UAEPAXI@Z PROC			; std::_Facet_base::`scalar deleting destructor', COMDAT
; _this$ = ecx
	push	ebp
	mov	ebp, esp
	test	BYTE PTR ___flags$[ebp], 1
	push	esi
	mov	esi, ecx
	mov	DWORD PTR [esi], OFFSET ??_7_Facet_base@std@@6B@
	je	SHORT $LN4@scalar
	push	4
	push	esi
	call	??3@YAXPAXI@Z				; operator delete
	add	esp, 8
$LN4@scalar:
	mov	eax, esi
	pop	esi
	pop	ebp
	ret	4
??_G_Facet_base@std@@UAEPAXI@Z ENDP			; std::_Facet_base::`scalar deleting destructor'
_TEXT	ENDS
; Function compile flags: /Ogtp
;	COMDAT ??0_Locinfo@std@@QAE@PBD@Z
_TEXT	SEGMENT
_this$ = -16						; size = 4
__$EHRec$ = -12						; size = 12
__Pch$ = 8						; size = 4
??0_Locinfo@std@@QAE@PBD@Z PROC				; std::_Locinfo::_Locinfo, COMDAT
; _this$ = ecx
; File C:\Program Files (x86)\Microsoft Visual Studio\2019\Community\VC\Tools\MSVC\14.27.29110\include\xlocinfo
; Line 155
	push	ebp
	mov	ebp, esp
	push	-1
	push	__ehhandler$??0_Locinfo@std@@QAE@PBD@Z
	mov	eax, DWORD PTR fs:0
	push	eax
	push	ecx
	push	esi
	mov	eax, DWORD PTR ___security_cookie
	xor	eax, ebp
	push	eax
	lea	eax, DWORD PTR __$EHRec$[ebp]
	mov	DWORD PTR fs:0, eax
	mov	esi, ecx
	mov	DWORD PTR _this$[ebp], esi
; Line 152
	push	0
	call	??0_Lockit@std@@QAE@H@Z			; std::_Lockit::_Lockit
	mov	DWORD PTR __$EHRec$[ebp+8], 0
; Line 59
	mov	DWORD PTR [esi+4], 0
	mov	BYTE PTR [esi+8], 0
	mov	DWORD PTR [esi+12], 0
	mov	BYTE PTR [esi+16], 0
	xor	eax, eax
	mov	DWORD PTR [esi+20], 0
	mov	WORD PTR [esi+24], ax
	mov	DWORD PTR [esi+28], eax
	mov	WORD PTR [esi+32], ax
	mov	DWORD PTR [esi+36], eax
	mov	BYTE PTR [esi+40], al
	mov	DWORD PTR [esi+44], eax
	mov	BYTE PTR [esi+48], al
; Line 156
	mov	eax, DWORD PTR __Pch$[ebp]
	mov	BYTE PTR __$EHRec$[ebp+8], 6
	test	eax, eax
	je	SHORT $LN2@Locinfo
; Line 157
	push	eax
	push	esi
	call	?_Locinfo_ctor@_Locinfo@std@@SAXPAV12@PBD@Z ; std::_Locinfo::_Locinfo_ctor
	add	esp, 8
; Line 162
	mov	eax, esi
	mov	ecx, DWORD PTR __$EHRec$[ebp]
	mov	DWORD PTR fs:0, ecx
	pop	ecx
	pop	esi
	mov	esp, ebp
	pop	ebp
	ret	4
$LN2@Locinfo:
; Line 161
	push	OFFSET ??_C@_0BA@ELKIONDK@bad?5locale?5name@
	call	?_Xruntime_error@std@@YAXPBD@Z		; std::_Xruntime_error
$LN24@Locinfo:
	int	3
_TEXT	ENDS
;	COMDAT text$x
text$x	SEGMENT
__unwindfunclet$??0_Locinfo@std@@QAE@PBD@Z$0:
	mov	ecx, DWORD PTR _this$[ebp]
	jmp	??1_Lockit@std@@QAE@XZ			; std::_Lockit::~_Lockit
__unwindfunclet$??0_Locinfo@std@@QAE@PBD@Z$1:
	mov	ecx, DWORD PTR _this$[ebp]
	add	ecx, 4
	jmp	??1?$_Yarn@D@std@@QAE@XZ		; std::_Yarn<char>::~_Yarn<char>
__unwindfunclet$??0_Locinfo@std@@QAE@PBD@Z$2:
	mov	ecx, DWORD PTR _this$[ebp]
	add	ecx, 12					; 0000000cH
	jmp	??1?$_Yarn@D@std@@QAE@XZ		; std::_Yarn<char>::~_Yarn<char>
__unwindfunclet$??0_Locinfo@std@@QAE@PBD@Z$3:
	mov	ecx, DWORD PTR _this$[ebp]
	add	ecx, 20					; 00000014H
	jmp	??1?$_Yarn@_W@std@@QAE@XZ		; std::_Yarn<wchar_t>::~_Yarn<wchar_t>
__unwindfunclet$??0_Locinfo@std@@QAE@PBD@Z$4:
	mov	ecx, DWORD PTR _this$[ebp]
	add	ecx, 28					; 0000001cH
	jmp	??1?$_Yarn@_W@std@@QAE@XZ		; std::_Yarn<wchar_t>::~_Yarn<wchar_t>
__unwindfunclet$??0_Locinfo@std@@QAE@PBD@Z$5:
	mov	ecx, DWORD PTR _this$[ebp]
	add	ecx, 36					; 00000024H
	jmp	??1?$_Yarn@D@std@@QAE@XZ		; std::_Yarn<char>::~_Yarn<char>
__unwindfunclet$??0_Locinfo@std@@QAE@PBD@Z$6:
	mov	ecx, DWORD PTR _this$[ebp]
	add	ecx, 44					; 0000002cH
	jmp	??1?$_Yarn@D@std@@QAE@XZ		; std::_Yarn<char>::~_Yarn<char>
	int	3
	int	3
	int	3
	int	3
	int	3
__ehhandler$??0_Locinfo@std@@QAE@PBD@Z:
	npad	1
	npad	1
	mov	edx, DWORD PTR [esp+8]
	lea	eax, DWORD PTR [edx+12]
	mov	ecx, DWORD PTR [edx-12]
	xor	ecx, eax
	call	@__security_check_cookie@4
	mov	eax, OFFSET __ehfuncinfo$??0_Locinfo@std@@QAE@PBD@Z
	jmp	___CxxFrameHandler3
text$x	ENDS
??0_Locinfo@std@@QAE@PBD@Z ENDP				; std::_Locinfo::_Locinfo
; Function compile flags: /Ogtp
;	COMDAT ??1_Locinfo@std@@QAE@XZ
_TEXT	SEGMENT
__$EHRec$ = -12						; size = 12
??1_Locinfo@std@@QAE@XZ PROC				; std::_Locinfo::~_Locinfo, COMDAT
; _this$ = ecx
; File C:\Program Files (x86)\Microsoft Visual Studio\2019\Community\VC\Tools\MSVC\14.27.29110\include\xlocinfo
; Line 178
	push	ebp
	mov	ebp, esp
	push	-1
	push	__ehhandler$??1_Locinfo@std@@QAE@XZ
	mov	eax, DWORD PTR fs:0
	push	eax
	push	esi
	mov	eax, DWORD PTR ___security_cookie
	xor	eax, ebp
	push	eax
	lea	eax, DWORD PTR __$EHRec$[ebp]
	mov	DWORD PTR fs:0, eax
	mov	esi, ecx
; Line 179
	push	esi
	call	?_Locinfo_dtor@_Locinfo@std@@SAXPAV12@@Z ; std::_Locinfo::_Locinfo_dtor
; Line 122
	mov	eax, DWORD PTR [esi+44]
; Line 179
	add	esp, 4
; Line 122
	test	eax, eax
	je	SHORT $LN6@Locinfo
; Line 126
	push	eax
	call	_free
	add	esp, 4
$LN6@Locinfo:
; Line 130
	mov	DWORD PTR [esi+44], 0
; Line 122
	mov	eax, DWORD PTR [esi+36]
	test	eax, eax
	je	SHORT $LN11@Locinfo
; Line 126
	push	eax
	call	_free
	add	esp, 4
$LN11@Locinfo:
; Line 130
	mov	DWORD PTR [esi+36], 0
; Line 122
	mov	eax, DWORD PTR [esi+28]
	test	eax, eax
	je	SHORT $LN16@Locinfo
; Line 126
	push	eax
	call	_free
	add	esp, 4
$LN16@Locinfo:
; Line 130
	mov	DWORD PTR [esi+28], 0
; Line 122
	mov	eax, DWORD PTR [esi+20]
	test	eax, eax
	je	SHORT $LN21@Locinfo
; Line 126
	push	eax
	call	_free
	add	esp, 4
$LN21@Locinfo:
; Line 130
	mov	DWORD PTR [esi+20], 0
; Line 122
	mov	eax, DWORD PTR [esi+12]
	test	eax, eax
	je	SHORT $LN26@Locinfo
; Line 126
	push	eax
	call	_free
	add	esp, 4
$LN26@Locinfo:
; Line 130
	mov	DWORD PTR [esi+12], 0
; Line 122
	mov	eax, DWORD PTR [esi+4]
	test	eax, eax
	je	SHORT $LN31@Locinfo
; Line 126
	push	eax
	call	_free
	add	esp, 4
$LN31@Locinfo:
; Line 180
	mov	ecx, esi
; Line 130
	mov	DWORD PTR [esi+4], 0
; Line 180
	call	??1_Lockit@std@@QAE@XZ			; std::_Lockit::~_Lockit
	mov	ecx, DWORD PTR __$EHRec$[ebp]
	mov	DWORD PTR fs:0, ecx
	pop	ecx
	pop	esi
	mov	esp, ebp
	pop	ebp
	ret	0
	int	3
	int	3
	int	3
	int	3
	int	3
_TEXT	ENDS
;	COMDAT text$x
text$x	SEGMENT
__ehhandler$??1_Locinfo@std@@QAE@XZ:
	npad	1
	npad	1
	mov	edx, DWORD PTR [esp+8]
	lea	eax, DWORD PTR [edx+12]
	mov	ecx, DWORD PTR [edx-8]
	xor	ecx, eax
	call	@__security_check_cookie@4
	mov	eax, OFFSET __ehfuncinfo$??1_Locinfo@std@@QAE@XZ
	jmp	___CxxFrameHandler3
text$x	ENDS
??1_Locinfo@std@@QAE@XZ ENDP				; std::_Locinfo::~_Locinfo
; Function compile flags: /Ogtp
;	COMDAT ?_Getctype@_Locinfo@std@@QBE?AU_Ctypevec@@XZ
_TEXT	SEGMENT
$T1 = -20						; size = 16
___$ReturnUdt$ = 8					; size = 4
?_Getctype@_Locinfo@std@@QBE?AU_Ctypevec@@XZ PROC	; std::_Locinfo::_Getctype, COMDAT
; _this$ = ecx
; File C:\Program Files (x86)\Microsoft Visual Studio\2019\Community\VC\Tools\MSVC\14.27.29110\include\xlocinfo
; Line 198
	push	ebp
	mov	ebp, esp
	sub	esp, 20					; 00000014H
; Line 199
	lea	eax, DWORD PTR $T1[ebp]
	push	eax
	call	__Getctype
	add	esp, 4
	movups	xmm0, XMMWORD PTR [eax]
	mov	eax, DWORD PTR ___$ReturnUdt$[ebp]
	movups	XMMWORD PTR [eax], xmm0
; Line 200
	mov	esp, ebp
	pop	ebp
	ret	4
?_Getctype@_Locinfo@std@@QBE?AU_Ctypevec@@XZ ENDP	; std::_Locinfo::_Getctype
_TEXT	ENDS
; Function compile flags: /Ogtp
;	COMDAT ?_Getcvt@_Locinfo@std@@QBE?AU_Cvtvec@@XZ
_TEXT	SEGMENT
$T1 = -44						; size = 44
___$ReturnUdt$ = 8					; size = 4
?_Getcvt@_Locinfo@std@@QBE?AU_Cvtvec@@XZ PROC		; std::_Locinfo::_Getcvt, COMDAT
; _this$ = ecx
; File C:\Program Files (x86)\Microsoft Visual Studio\2019\Community\VC\Tools\MSVC\14.27.29110\include\xlocinfo
; Line 202
	push	ebp
	mov	ebp, esp
	sub	esp, 44					; 0000002cH
; Line 203
	lea	eax, DWORD PTR $T1[ebp]
	push	eax
	call	__Getcvt
	mov	edx, DWORD PTR ___$ReturnUdt$[ebp]
	add	esp, 4
	movups	xmm0, XMMWORD PTR [eax]
	mov	ecx, DWORD PTR [eax+40]
	movups	XMMWORD PTR [edx], xmm0
	movups	xmm0, XMMWORD PTR [eax+16]
	movups	XMMWORD PTR [edx+16], xmm0
	movq	xmm0, QWORD PTR [eax+32]
	mov	eax, edx
	movq	QWORD PTR [edx+32], xmm0
	mov	DWORD PTR [edx+40], ecx
; Line 204
	mov	esp, ebp
	pop	ebp
	ret	4
?_Getcvt@_Locinfo@std@@QBE?AU_Cvtvec@@XZ ENDP		; std::_Locinfo::_Getcvt
_TEXT	ENDS
; Function compile flags: /Ogtp
;	COMDAT ?_Getlconv@_Locinfo@std@@QBEPBUlconv@@XZ
_TEXT	SEGMENT
?_Getlconv@_Locinfo@std@@QBEPBUlconv@@XZ PROC		; std::_Locinfo::_Getlconv, COMDAT
; _this$ = ecx
; File C:\Program Files (x86)\Microsoft Visual Studio\2019\Community\VC\Tools\MSVC\14.27.29110\include\xlocinfo
; Line 207
	jmp	_localeconv
?_Getlconv@_Locinfo@std@@QBEPBUlconv@@XZ ENDP		; std::_Locinfo::_Getlconv
_TEXT	ENDS
; Function compile flags: /Ogtp
;	COMDAT ?_Getfalse@_Locinfo@std@@QBEPBDXZ
_TEXT	SEGMENT
?_Getfalse@_Locinfo@std@@QBEPBDXZ PROC			; std::_Locinfo::_Getfalse, COMDAT
; _this$ = ecx
; File C:\Program Files (x86)\Microsoft Visual Studio\2019\Community\VC\Tools\MSVC\14.27.29110\include\xlocinfo
; Line 241
	mov	eax, OFFSET ??_C@_05LAPONLG@false@
; Line 242
	ret	0
?_Getfalse@_Locinfo@std@@QBEPBDXZ ENDP			; std::_Locinfo::_Getfalse
_TEXT	ENDS
; Function compile flags: /Ogtp
;	COMDAT ?_Gettrue@_Locinfo@std@@QBEPBDXZ
_TEXT	SEGMENT
?_Gettrue@_Locinfo@std@@QBEPBDXZ PROC			; std::_Locinfo::_Gettrue, COMDAT
; _this$ = ecx
; File C:\Program Files (x86)\Microsoft Visual Studio\2019\Community\VC\Tools\MSVC\14.27.29110\include\xlocinfo
; Line 245
	mov	eax, OFFSET ??_C@_04LOAJBDKD@true@
; Line 246
	ret	0
?_Gettrue@_Locinfo@std@@QBEPBDXZ ENDP			; std::_Locinfo::_Gettrue
_TEXT	ENDS
; Function compile flags: /Ogtp
;	COMDAT ??0id@locale@std@@QAE@I@Z
_TEXT	SEGMENT
__Val$ = 8						; size = 4
??0id@locale@std@@QAE@I@Z PROC				; std::locale::id::id, COMDAT
; _this$ = ecx
; File C:\Program Files (x86)\Microsoft Visual Studio\2019\Community\VC\Tools\MSVC\14.27.29110\include\xlocale
; Line 99
	push	ebp
	mov	ebp, esp
	mov	eax, DWORD PTR __Val$[ebp]
	mov	DWORD PTR [ecx], eax
	mov	eax, ecx
	pop	ebp
	ret	4
??0id@locale@std@@QAE@I@Z ENDP				; std::locale::id::id
_TEXT	ENDS
; Function compile flags: /Ogtp
;	COMDAT ??Bid@locale@std@@QAEIXZ
_TEXT	SEGMENT
__Lock$1 = -8						; size = 4
__$ArrayPad$ = -4					; size = 4
??Bid@locale@std@@QAEIXZ PROC				; std::locale::id::operator unsigned int, COMDAT
; _this$ = ecx
; File C:\Program Files (x86)\Microsoft Visual Studio\2019\Community\VC\Tools\MSVC\14.27.29110\include\xlocale
; Line 104
	push	ebp
	mov	ebp, esp
	sub	esp, 8
	mov	eax, DWORD PTR ___security_cookie
	xor	eax, ebp
	mov	DWORD PTR __$ArrayPad$[ebp], eax
	push	esi
	mov	esi, ecx
; Line 105
	cmp	DWORD PTR [esi], 0
	jne	SHORT $LN5@operator
; Line 106
	push	0
	lea	ecx, DWORD PTR __Lock$1[ebp]
	call	??0_Lockit@std@@QAE@H@Z			; std::_Lockit::_Lockit
; Line 107
	cmp	DWORD PTR [esi], 0
	jne	SHORT $LN3@operator
; Line 108
	mov	ecx, DWORD PTR ?_Id_cnt@id@locale@std@@0HA ; std::locale::id::_Id_cnt
	inc	ecx
	mov	DWORD PTR ?_Id_cnt@id@locale@std@@0HA, ecx ; std::locale::id::_Id_cnt
	mov	DWORD PTR [esi], ecx
$LN3@operator:
; Line 110
	lea	ecx, DWORD PTR __Lock$1[ebp]
	call	??1_Lockit@std@@QAE@XZ			; std::_Lockit::~_Lockit
$LN5@operator:
; Line 113
	mov	ecx, DWORD PTR __$ArrayPad$[ebp]
	mov	eax, DWORD PTR [esi]
	xor	ecx, ebp
	pop	esi
	call	@__security_check_cookie@4
	mov	esp, ebp
	pop	ebp
	ret	0
??Bid@locale@std@@QAEIXZ ENDP				; std::locale::id::operator unsigned int
_TEXT	ENDS
; Function compile flags: /Ogtp
;	COMDAT ?_Incref@facet@locale@std@@UAEXXZ
_TEXT	SEGMENT
?_Incref@facet@locale@std@@UAEXXZ PROC			; std::locale::facet::_Incref, COMDAT
; _this$ = ecx
; File C:\Program Files (x86)\Microsoft Visual Studio\2019\Community\VC\Tools\MSVC\14.27.29110\include\xlocale
; Line 136
	lock	 inc	 DWORD PTR [ecx+4]
; Line 137
	ret	0
?_Incref@facet@locale@std@@UAEXXZ ENDP			; std::locale::facet::_Incref
_TEXT	ENDS
; Function compile flags: /Ogtp
;	COMDAT ?_Decref@facet@locale@std@@UAEPAV_Facet_base@3@XZ
_TEXT	SEGMENT
?_Decref@facet@locale@std@@UAEPAV_Facet_base@3@XZ PROC	; std::locale::facet::_Decref, COMDAT
; _this$ = ecx
; File C:\Program Files (x86)\Microsoft Visual Studio\2019\Community\VC\Tools\MSVC\14.27.29110\include\xlocale
; Line 140
	or	eax, -1
	lock	 xadd	 DWORD PTR [ecx+4], eax
	mov	eax, 0
	cmove	eax, ecx
; Line 145
	ret	0
?_Decref@facet@locale@std@@UAEPAV_Facet_base@3@XZ ENDP	; std::locale::facet::_Decref
_TEXT	ENDS
; Function compile flags: /Ogtp
;	COMDAT ??0facet@locale@std@@IAE@I@Z
_TEXT	SEGMENT
__Initrefs$ = 8						; size = 4
??0facet@locale@std@@IAE@I@Z PROC			; std::locale::facet::facet, COMDAT
; _this$ = ecx
; File C:\Program Files (x86)\Microsoft Visual Studio\2019\Community\VC\Tools\MSVC\14.27.29110\include\xlocale
; Line 153
	push	ebp
	mov	ebp, esp
; Line 152
	mov	eax, DWORD PTR __Initrefs$[ebp]
	mov	DWORD PTR [ecx+4], eax
; Line 153
	mov	eax, ecx
	mov	DWORD PTR [ecx], OFFSET ??_7facet@locale@std@@6B@
	pop	ebp
	ret	4
??0facet@locale@std@@IAE@I@Z ENDP			; std::locale::facet::facet
_TEXT	ENDS
; Function compile flags: /Ogtp
;	COMDAT ??1facet@locale@std@@MAE@XZ
_TEXT	SEGMENT
??1facet@locale@std@@MAE@XZ PROC			; std::locale::facet::~facet, COMDAT
; _this$ = ecx
; File C:\Program Files (x86)\Microsoft Visual Studio\2019\Community\VC\Tools\MSVC\14.27.29110\include\xlocale
; Line 155
	mov	DWORD PTR [ecx], OFFSET ??_7_Facet_base@std@@6B@
	ret	0
??1facet@locale@std@@MAE@XZ ENDP			; std::locale::facet::~facet
_TEXT	ENDS
; Function compile flags: /Ogtp
;	COMDAT ??0locale@std@@QAE@ABV01@@Z
_TEXT	SEGMENT
__Right$ = 8						; size = 4
??0locale@std@@QAE@ABV01@@Z PROC			; std::locale::locale, COMDAT
; _this$ = ecx
; File C:\Program Files (x86)\Microsoft Visual Studio\2019\Community\VC\Tools\MSVC\14.27.29110\include\xlocale
; Line 267
	push	ebp
	mov	ebp, esp
	mov	eax, DWORD PTR __Right$[ebp]
	push	esi
	mov	esi, ecx
	mov	ecx, DWORD PTR [eax+4]
	mov	DWORD PTR [esi+4], ecx
; Line 268
	mov	eax, DWORD PTR [ecx]
	call	DWORD PTR [eax+4]
; Line 269
	mov	eax, esi
	pop	esi
	pop	ebp
	ret	4
??0locale@std@@QAE@ABV01@@Z ENDP			; std::locale::locale
_TEXT	ENDS
; Function compile flags: /Ogtp
;	COMDAT ??0locale@std@@QAE@XZ
_TEXT	SEGMENT
__$EHRec$ = -12						; size = 12
??0locale@std@@QAE@XZ PROC				; std::locale::locale, COMDAT
; _this$ = ecx
; File C:\Program Files (x86)\Microsoft Visual Studio\2019\Community\VC\Tools\MSVC\14.27.29110\include\xlocale
; Line 271
	push	ebp
	mov	ebp, esp
	push	-1
	push	__ehhandler$??0locale@std@@QAE@XZ
	mov	eax, DWORD PTR fs:0
	push	eax
	push	esi
	mov	eax, DWORD PTR ___security_cookie
	xor	eax, ebp
	push	eax
	lea	eax, DWORD PTR __$EHRec$[ebp]
	mov	DWORD PTR fs:0, eax
	mov	esi, ecx
	push	1
	call	?_Init@locale@std@@CAPAV_Locimp@12@_N@Z	; std::locale::_Init
	mov	DWORD PTR [esi+4], eax
	add	esp, 4
	mov	eax, esi
	mov	ecx, DWORD PTR __$EHRec$[ebp]
	mov	DWORD PTR fs:0, ecx
	pop	ecx
	pop	esi
	mov	esp, ebp
	pop	ebp
	ret	0
	int	3
	int	3
	int	3
	int	3
	int	3
_TEXT	ENDS
;	COMDAT text$x
text$x	SEGMENT
__ehhandler$??0locale@std@@QAE@XZ:
	npad	1
	npad	1
	mov	edx, DWORD PTR [esp+8]
	lea	eax, DWORD PTR [edx+12]
	mov	ecx, DWORD PTR [edx-8]
	xor	ecx, eax
	call	@__security_check_cookie@4
	mov	eax, OFFSET __ehfuncinfo$??0locale@std@@QAE@XZ
	jmp	___CxxFrameHandler3
text$x	ENDS
??0locale@std@@QAE@XZ ENDP				; std::locale::locale
; Function compile flags: /Ogtp
;	COMDAT ??1locale@std@@QAE@XZ
_TEXT	SEGMENT
??1locale@std@@QAE@XZ PROC				; std::locale::~locale, COMDAT
; _this$ = ecx
; File C:\Program Files (x86)\Microsoft Visual Studio\2019\Community\VC\Tools\MSVC\14.27.29110\include\xlocale
; Line 351
	mov	ecx, DWORD PTR [ecx+4]
	test	ecx, ecx
	je	SHORT $LN4@locale
; Line 352
	mov	eax, DWORD PTR [ecx]
	call	DWORD PTR [eax+8]
	test	eax, eax
	je	SHORT $LN4@locale
	mov	edx, DWORD PTR [eax]
	mov	ecx, eax
	push	1
	call	DWORD PTR [edx]
$LN4@locale:
; Line 354
	ret	0
??1locale@std@@QAE@XZ ENDP				; std::locale::~locale
_TEXT	ENDS
; Function compile flags: /Ogtp
;	COMDAT ?c_str@locale@std@@QBEPBDXZ
_TEXT	SEGMENT
?c_str@locale@std@@QBEPBDXZ PROC			; std::locale::c_str, COMDAT
; _this$ = ecx
; File C:\Program Files (x86)\Microsoft Visual Studio\2019\Community\VC\Tools\MSVC\14.27.29110\include\xlocale
; Line 370
	mov	eax, DWORD PTR [ecx+4]
	test	eax, eax
	je	SHORT $LN3@c_str
; File C:\Program Files (x86)\Microsoft Visual Studio\2019\Community\VC\Tools\MSVC\14.27.29110\include\xlocinfo
; Line 109
	mov	ecx, DWORD PTR [eax+24]
	test	ecx, ecx
	je	SHORT $LN7@c_str
; File C:\Program Files (x86)\Microsoft Visual Studio\2019\Community\VC\Tools\MSVC\14.27.29110\include\xlocale
; Line 370
	mov	eax, ecx
; Line 371
	ret	0
$LN7@c_str:
; File C:\Program Files (x86)\Microsoft Visual Studio\2019\Community\VC\Tools\MSVC\14.27.29110\include\xlocinfo
; Line 109
	add	eax, 28					; 0000001cH
; File C:\Program Files (x86)\Microsoft Visual Studio\2019\Community\VC\Tools\MSVC\14.27.29110\include\xlocale
; Line 371
	ret	0
$LN3@c_str:
; Line 370
	mov	eax, OFFSET ??_C@_00CNPNBAHC@@
; Line 371
	ret	0
?c_str@locale@std@@QBEPBDXZ ENDP			; std::locale::c_str
_TEXT	ENDS
; Function compile flags: /Ogtp
;	COMDAT ?_Getfacet@locale@std@@QBEPBVfacet@12@I@Z
_TEXT	SEGMENT
__Id$ = 8						; size = 4
?_Getfacet@locale@std@@QBEPBVfacet@12@I@Z PROC		; std::locale::_Getfacet, COMDAT
; _this$ = ecx
; File C:\Program Files (x86)\Microsoft Visual Studio\2019\Community\VC\Tools\MSVC\14.27.29110\include\xlocale
; Line 373
	push	ebp
	mov	ebp, esp
; Line 374
	mov	ecx, DWORD PTR [ecx+4]
	push	esi
	mov	esi, DWORD PTR __Id$[ebp]
	cmp	esi, DWORD PTR [ecx+12]
	jae	SHORT $LN6@Getfacet
	mov	eax, DWORD PTR [ecx+8]
	mov	eax, DWORD PTR [eax+esi*4]
; Line 375
	test	eax, eax
	jne	SHORT $LN1@Getfacet
	jmp	SHORT $LN8@Getfacet
$LN6@Getfacet:
; Line 374
	xor	eax, eax
$LN8@Getfacet:
; Line 375
	cmp	BYTE PTR [ecx+20], 0
	je	SHORT $LN1@Getfacet
; Line 380
	call	?_Getgloballocale@locale@std@@CAPAV_Locimp@12@XZ ; std::locale::_Getgloballocale
; Line 381
	cmp	esi, DWORD PTR [eax+12]
	jae	SHORT $LN4@Getfacet
; Line 382
	mov	eax, DWORD PTR [eax+8]
	mov	eax, DWORD PTR [eax+esi*4]
	pop	esi
; Line 386
	pop	ebp
	ret	4
$LN4@Getfacet:
; Line 385
	xor	eax, eax
$LN1@Getfacet:
	pop	esi
; Line 386
	pop	ebp
	ret	4
?_Getfacet@locale@std@@QBEPBVfacet@12@I@Z ENDP		; std::locale::_Getfacet
_TEXT	ENDS
; Function compile flags: /Ogtp
;	COMDAT ??_Gfacet@locale@std@@MAEPAXI@Z
_TEXT	SEGMENT
___flags$ = 8						; size = 4
??_Gfacet@locale@std@@MAEPAXI@Z PROC			; std::locale::facet::`scalar deleting destructor', COMDAT
; _this$ = ecx
	push	ebp
	mov	ebp, esp
	test	BYTE PTR ___flags$[ebp], 1
	push	esi
	mov	esi, ecx
	mov	DWORD PTR [esi], OFFSET ??_7_Facet_base@std@@6B@
	je	SHORT $LN4@scalar
	push	8
	push	esi
	call	??3@YAXPAXI@Z				; operator delete
	add	esp, 8
$LN4@scalar:
	mov	eax, esi
	pop	esi
	pop	ebp
	ret	4
??_Gfacet@locale@std@@MAEPAXI@Z ENDP			; std::locale::facet::`scalar deleting destructor'
_TEXT	ENDS
; Function compile flags: /Ogtp
;	COMDAT ??0_Facet_base@std@@QAE@XZ
_TEXT	SEGMENT
??0_Facet_base@std@@QAE@XZ PROC				; std::_Facet_base::_Facet_base, COMDAT
; _this$ = ecx
	mov	DWORD PTR [ecx], OFFSET ??_7_Facet_base@std@@6B@
	mov	eax, ecx
	ret	0
??0_Facet_base@std@@QAE@XZ ENDP				; std::_Facet_base::_Facet_base
_TEXT	ENDS
; Function compile flags: /Ogtp
;	COMDAT ??0ctype_base@std@@QAE@I@Z
_TEXT	SEGMENT
__Refs$ = 8						; size = 4
??0ctype_base@std@@QAE@I@Z PROC				; std::ctype_base::ctype_base, COMDAT
; _this$ = ecx
; File C:\Program Files (x86)\Microsoft Visual Studio\2019\Community\VC\Tools\MSVC\14.27.29110\include\xlocale
; Line 2409
	push	ebp
	mov	ebp, esp
; Line 152
	mov	eax, DWORD PTR __Refs$[ebp]
	mov	DWORD PTR [ecx+4], eax
; Line 2409
	mov	eax, ecx
	mov	DWORD PTR [ecx], OFFSET ??_7ctype_base@std@@6B@
	pop	ebp
	ret	4
??0ctype_base@std@@QAE@I@Z ENDP				; std::ctype_base::ctype_base
_TEXT	ENDS
; Function compile flags: /Ogtp
;	COMDAT ??1ctype_base@std@@UAE@XZ
_TEXT	SEGMENT
??1ctype_base@std@@UAE@XZ PROC				; std::ctype_base::~ctype_base, COMDAT
; _this$ = ecx
; File C:\Program Files (x86)\Microsoft Visual Studio\2019\Community\VC\Tools\MSVC\14.27.29110\include\xlocale
; Line 2411
	mov	DWORD PTR [ecx], OFFSET ??_7_Facet_base@std@@6B@
	ret	0
??1ctype_base@std@@UAE@XZ ENDP				; std::ctype_base::~ctype_base
_TEXT	ENDS
; Function compile flags: /Ogtp
;	COMDAT ??_Gctype_base@std@@UAEPAXI@Z
_TEXT	SEGMENT
___flags$ = 8						; size = 4
??_Gctype_base@std@@UAEPAXI@Z PROC			; std::ctype_base::`scalar deleting destructor', COMDAT
; _this$ = ecx
	push	ebp
	mov	ebp, esp
	test	BYTE PTR ___flags$[ebp], 1
	push	esi
	mov	esi, ecx
	mov	DWORD PTR [esi], OFFSET ??_7_Facet_base@std@@6B@
	je	SHORT $LN4@scalar
	push	8
	push	esi
	call	??3@YAXPAXI@Z				; operator delete
	add	esp, 8
$LN4@scalar:
	mov	eax, esi
	pop	esi
	pop	ebp
	ret	4
??_Gctype_base@std@@UAEPAXI@Z ENDP			; std::ctype_base::`scalar deleting destructor'
_TEXT	ENDS
; Function compile flags: /Ogtp
;	COMDAT ?widen@?$ctype@D@std@@QBEDD@Z
_TEXT	SEGMENT
__Byte$ = 8						; size = 1
?widen@?$ctype@D@std@@QBEDD@Z PROC			; std::ctype<char>::widen, COMDAT
; _this$ = ecx
; File C:\Program Files (x86)\Microsoft Visual Studio\2019\Community\VC\Tools\MSVC\14.27.29110\include\xlocale
; Line 2708
	push	ebp
	mov	ebp, esp
; Line 2709
	mov	eax, DWORD PTR [ecx]
	mov	eax, DWORD PTR [eax+32]
; Line 2710
	pop	ebp
; Line 2709
	jmp	eax
?widen@?$ctype@D@std@@QBEDD@Z ENDP			; std::ctype<char>::widen
_TEXT	ENDS
; Function compile flags: /Ogtp
;	COMDAT ?widen@?$ctype@D@std@@QBEPBDPBD0PAD@Z
_TEXT	SEGMENT
__First$ = 8						; size = 4
__Last$ = 12						; size = 4
__Dest$ = 16						; size = 4
?widen@?$ctype@D@std@@QBEPBDPBD0PAD@Z PROC		; std::ctype<char>::widen, COMDAT
; _this$ = ecx
; File C:\Program Files (x86)\Microsoft Visual Studio\2019\Community\VC\Tools\MSVC\14.27.29110\include\xlocale
; Line 2713
	push	ebp
	mov	ebp, esp
; Line 2714
	mov	eax, DWORD PTR [ecx]
; Line 2715
	pop	ebp
; Line 2714
	jmp	DWORD PTR [eax+28]
?widen@?$ctype@D@std@@QBEPBDPBD0PAD@Z ENDP		; std::ctype<char>::widen
_TEXT	ENDS
; Function compile flags: /Ogtp
;	COMDAT ??0?$ctype@D@std@@QAE@ABV_Locinfo@1@I@Z
_TEXT	SEGMENT
$T1 = -16						; size = 16
__Lobj$ = 8						; size = 4
__Refs$ = 12						; size = 4
??0?$ctype@D@std@@QAE@ABV_Locinfo@1@I@Z PROC		; std::ctype<char>::ctype<char>, COMDAT
; _this$ = ecx
; File C:\Program Files (x86)\Microsoft Visual Studio\2019\Community\VC\Tools\MSVC\14.27.29110\include\xlocale
; Line 2745
	push	ebp
	mov	ebp, esp
; Line 152
	mov	eax, DWORD PTR __Refs$[ebp]
; Line 2745
	sub	esp, 20					; 00000014H
	push	esi
	mov	esi, ecx
; Line 152
	mov	DWORD PTR [esi+4], eax
; File C:\Program Files (x86)\Microsoft Visual Studio\2019\Community\VC\Tools\MSVC\14.27.29110\include\xlocinfo
; Line 199
	lea	eax, DWORD PTR $T1[ebp]
	push	eax
; File C:\Program Files (x86)\Microsoft Visual Studio\2019\Community\VC\Tools\MSVC\14.27.29110\include\xlocale
; Line 2745
	mov	DWORD PTR [esi], OFFSET ??_7?$ctype@D@std@@6B@
; File C:\Program Files (x86)\Microsoft Visual Studio\2019\Community\VC\Tools\MSVC\14.27.29110\include\xlocinfo
; Line 199
	call	__Getctype
	add	esp, 4
; File C:\Program Files (x86)\Microsoft Visual Studio\2019\Community\VC\Tools\MSVC\14.27.29110\include\xlocale
; Line 2773
	movups	xmm0, XMMWORD PTR [eax]
; Line 2747
	mov	eax, esi
; Line 2773
	movups	XMMWORD PTR [esi+8], xmm0
; Line 2747
	pop	esi
	mov	esp, ebp
	pop	ebp
	ret	8
??0?$ctype@D@std@@QAE@ABV_Locinfo@1@I@Z ENDP		; std::ctype<char>::ctype<char>
_TEXT	ENDS
; Function compile flags: /Ogtp
;	COMDAT ?_Getcat@?$ctype@D@std@@SAIPAPBVfacet@locale@2@PBV42@@Z
_TEXT	SEGMENT
$T4 = -92						; size = 52
$T5 = -40						; size = 16
$T2 = -20						; size = 4
__$EHRec$ = -12						; size = 12
__Ppf$ = 8						; size = 4
__Ploc$ = 12						; size = 4
?_Getcat@?$ctype@D@std@@SAIPAPBVfacet@locale@2@PBV42@@Z PROC ; std::ctype<char>::_Getcat, COMDAT
; File C:\Program Files (x86)\Microsoft Visual Studio\2019\Community\VC\Tools\MSVC\14.27.29110\include\xlocale
; Line 2749
	push	ebx
	mov	ebx, esp
	sub	esp, 8
	and	esp, -8					; fffffff8H
	add	esp, 4
	push	ebp
	mov	ebp, DWORD PTR [ebx+4]
	mov	DWORD PTR [esp+4], ebp
	mov	ebp, esp
	push	-1
	push	__ehhandler$?_Getcat@?$ctype@D@std@@SAIPAPBVfacet@locale@2@PBV42@@Z
	mov	eax, DWORD PTR fs:0
	push	eax
	push	ebx
	sub	esp, 80					; 00000050H
	push	esi
	push	edi
	mov	eax, DWORD PTR ___security_cookie
	xor	eax, ebp
	push	eax
	lea	eax, DWORD PTR __$EHRec$[ebp]
	mov	DWORD PTR fs:0, eax
; Line 2750
	mov	esi, DWORD PTR __Ppf$[ebx]
	test	esi, esi
	je	SHORT $LN30@Getcat
	cmp	DWORD PTR [esi], 0
	jne	SHORT $LN30@Getcat
; Line 2751
	push	24					; 00000018H
	call	??2@YAPAXI@Z				; operator new
	mov	edi, eax
	add	esp, 4
	mov	DWORD PTR $T2[ebp], edi
; Line 370
	mov	ecx, DWORD PTR __Ploc$[ebx]
; Line 2751
	mov	DWORD PTR __$EHRec$[ebp+8], 0
; Line 370
	mov	ecx, DWORD PTR [ecx+4]
	test	ecx, ecx
	je	SHORT $LN12@Getcat
; File C:\Program Files (x86)\Microsoft Visual Studio\2019\Community\VC\Tools\MSVC\14.27.29110\include\xlocinfo
; Line 109
	mov	eax, DWORD PTR [ecx+24]
	test	eax, eax
	jne	SHORT $LN13@Getcat
	lea	eax, DWORD PTR [ecx+28]
; File C:\Program Files (x86)\Microsoft Visual Studio\2019\Community\VC\Tools\MSVC\14.27.29110\include\xlocale
; Line 370
	jmp	SHORT $LN13@Getcat
$LN12@Getcat:
	mov	eax, OFFSET ??_C@_00CNPNBAHC@@
$LN13@Getcat:
; Line 2751
	push	eax
	lea	ecx, DWORD PTR $T4[ebp]
	call	??0_Locinfo@std@@QAE@PBD@Z		; std::_Locinfo::_Locinfo
; File C:\Program Files (x86)\Microsoft Visual Studio\2019\Community\VC\Tools\MSVC\14.27.29110\include\xlocinfo
; Line 199
	lea	eax, DWORD PTR $T5[ebp]
; File C:\Program Files (x86)\Microsoft Visual Studio\2019\Community\VC\Tools\MSVC\14.27.29110\include\xlocale
; Line 152
	mov	DWORD PTR [edi+4], 0
; File C:\Program Files (x86)\Microsoft Visual Studio\2019\Community\VC\Tools\MSVC\14.27.29110\include\xlocinfo
; Line 199
	push	eax
; File C:\Program Files (x86)\Microsoft Visual Studio\2019\Community\VC\Tools\MSVC\14.27.29110\include\xlocale
; Line 2745
	mov	DWORD PTR [edi], OFFSET ??_7?$ctype@D@std@@6B@
; File C:\Program Files (x86)\Microsoft Visual Studio\2019\Community\VC\Tools\MSVC\14.27.29110\include\xlocinfo
; Line 199
	call	__Getctype
	add	esp, 4
; File C:\Program Files (x86)\Microsoft Visual Studio\2019\Community\VC\Tools\MSVC\14.27.29110\include\xlocale
; Line 2751
	lea	ecx, DWORD PTR $T4[ebp]
; Line 2773
	movups	xmm0, XMMWORD PTR [eax]
	movups	XMMWORD PTR [edi+8], xmm0
; Line 2751
	mov	DWORD PTR [esi], edi
	call	??1_Locinfo@std@@QAE@XZ			; std::_Locinfo::~_Locinfo
$LN30@Getcat:
; Line 2755
	mov	eax, 2
	mov	ecx, DWORD PTR __$EHRec$[ebp]
	mov	DWORD PTR fs:0, ecx
	pop	ecx
	pop	edi
	pop	esi
	mov	esp, ebp
	pop	ebp
	mov	esp, ebx
	pop	ebx
	ret	0
_TEXT	ENDS
;	COMDAT text$x
text$x	SEGMENT
__unwindfunclet$?_Getcat@?$ctype@D@std@@SAIPAPBVfacet@locale@2@PBV42@@Z$0:
	push	24					; 00000018H
	mov	eax, DWORD PTR $T2[ebp]
	push	eax
	call	??3@YAXPAXI@Z				; operator delete
	add	esp, 8
	ret	0
	int	3
	int	3
	int	3
	int	3
	int	3
__ehhandler$?_Getcat@?$ctype@D@std@@SAIPAPBVfacet@locale@2@PBV42@@Z:
	npad	1
	npad	1
	mov	edx, DWORD PTR [esp+8]
	lea	eax, DWORD PTR [edx+12]
	mov	ecx, DWORD PTR [edx-96]
	xor	ecx, eax
	call	@__security_check_cookie@4
	mov	eax, OFFSET __ehfuncinfo$?_Getcat@?$ctype@D@std@@SAIPAPBVfacet@locale@2@PBV42@@Z
	jmp	___CxxFrameHandler3
text$x	ENDS
?_Getcat@?$ctype@D@std@@SAIPAPBVfacet@locale@2@PBV42@@Z ENDP ; std::ctype<char>::_Getcat
; Function compile flags: /Ogtp
;	COMDAT ??1?$ctype@D@std@@MAE@XZ
_TEXT	SEGMENT
??1?$ctype@D@std@@MAE@XZ PROC				; std::ctype<char>::~ctype<char>, COMDAT
; _this$ = ecx
; File C:\Program Files (x86)\Microsoft Visual Studio\2019\Community\VC\Tools\MSVC\14.27.29110\include\xlocale
; Line 2768
	push	esi
	mov	esi, ecx
; Line 2777
	mov	eax, DWORD PTR [esi+16]
; Line 2768
	mov	DWORD PTR [esi], OFFSET ??_7?$ctype@D@std@@6B@
; Line 2777
	test	eax, eax
	jle	SHORT $LN8@ctype
; Line 2778
	push	DWORD PTR [esi+12]
	call	_free
	jmp	SHORT $LN9@ctype
$LN8@ctype:
; Line 2779
	jns	SHORT $LN6@ctype
; Line 2780
	push	DWORD PTR [esi+12]
	call	??_V@YAXPAX@Z				; operator delete[]
$LN9@ctype:
; Line 2783
	add	esp, 4
$LN6@ctype:
	push	DWORD PTR [esi+20]
	call	_free
	add	esp, 4
; Line 2770
	mov	DWORD PTR [esi], OFFSET ??_7_Facet_base@std@@6B@
	pop	esi
	ret	0
??1?$ctype@D@std@@MAE@XZ ENDP				; std::ctype<char>::~ctype<char>
_TEXT	ENDS
; Function compile flags: /Ogtp
;	COMDAT ?_Init@?$ctype@D@std@@IAEXABV_Locinfo@2@@Z
_TEXT	SEGMENT
$T1 = -20						; size = 16
__Lobj$ = 8						; size = 4
?_Init@?$ctype@D@std@@IAEXABV_Locinfo@2@@Z PROC		; std::ctype<char>::_Init, COMDAT
; _this$ = ecx
; File C:\Program Files (x86)\Microsoft Visual Studio\2019\Community\VC\Tools\MSVC\14.27.29110\include\xlocale
; Line 2772
	push	ebp
	mov	ebp, esp
	sub	esp, 24					; 00000018H
; File C:\Program Files (x86)\Microsoft Visual Studio\2019\Community\VC\Tools\MSVC\14.27.29110\include\xlocinfo
; Line 199
	lea	eax, DWORD PTR $T1[ebp]
; File C:\Program Files (x86)\Microsoft Visual Studio\2019\Community\VC\Tools\MSVC\14.27.29110\include\xlocale
; Line 2772
	push	esi
; File C:\Program Files (x86)\Microsoft Visual Studio\2019\Community\VC\Tools\MSVC\14.27.29110\include\xlocinfo
; Line 199
	push	eax
; File C:\Program Files (x86)\Microsoft Visual Studio\2019\Community\VC\Tools\MSVC\14.27.29110\include\xlocale
; Line 2772
	mov	esi, ecx
; File C:\Program Files (x86)\Microsoft Visual Studio\2019\Community\VC\Tools\MSVC\14.27.29110\include\xlocinfo
; Line 199
	call	__Getctype
	add	esp, 4
; File C:\Program Files (x86)\Microsoft Visual Studio\2019\Community\VC\Tools\MSVC\14.27.29110\include\xlocale
; Line 2773
	movups	xmm0, XMMWORD PTR [eax]
	movups	XMMWORD PTR [esi+8], xmm0
; Line 2774
	pop	esi
	mov	esp, ebp
	pop	ebp
	ret	4
?_Init@?$ctype@D@std@@IAEXABV_Locinfo@2@@Z ENDP		; std::ctype<char>::_Init
_TEXT	ENDS
; Function compile flags: /Ogtp
;	COMDAT ?_Tidy@?$ctype@D@std@@IAEXXZ
_TEXT	SEGMENT
?_Tidy@?$ctype@D@std@@IAEXXZ PROC			; std::ctype<char>::_Tidy, COMDAT
; _this$ = ecx
; File C:\Program Files (x86)\Microsoft Visual Studio\2019\Community\VC\Tools\MSVC\14.27.29110\include\xlocale
; Line 2776
	push	esi
	mov	esi, ecx
; Line 2777
	mov	eax, DWORD PTR [esi+16]
	test	eax, eax
	jle	SHORT $LN6@Tidy
; Line 2778
	push	DWORD PTR [esi+12]
	call	_free
; Line 2783
	add	esp, 4
	push	DWORD PTR [esi+20]
	call	_free
	add	esp, 4
	pop	esi
; Line 2784
	ret	0
$LN6@Tidy:
; Line 2779
	jns	SHORT $LN4@Tidy
; Line 2780
	push	DWORD PTR [esi+12]
	call	??_V@YAXPAX@Z				; operator delete[]
; Line 2783
	add	esp, 4
$LN4@Tidy:
	push	DWORD PTR [esi+20]
	call	_free
	add	esp, 4
	pop	esi
; Line 2784
	ret	0
?_Tidy@?$ctype@D@std@@IAEXXZ ENDP			; std::ctype<char>::_Tidy
_TEXT	ENDS
; Function compile flags: /Ogtp
;	COMDAT ?do_tolower@?$ctype@D@std@@MBEDD@Z
_TEXT	SEGMENT
__Ch$ = 8						; size = 1
?do_tolower@?$ctype@D@std@@MBEDD@Z PROC			; std::ctype<char>::do_tolower, COMDAT
; _this$ = ecx
; File C:\Program Files (x86)\Microsoft Visual Studio\2019\Community\VC\Tools\MSVC\14.27.29110\include\xlocale
; Line 2786
	push	ebp
	mov	ebp, esp
; Line 2787
	lea	eax, DWORD PTR [ecx+8]
	push	eax
	movzx	eax, BYTE PTR __Ch$[ebp]
	push	eax
	call	__Tolower
	add	esp, 8
; Line 2788
	pop	ebp
	ret	4
?do_tolower@?$ctype@D@std@@MBEDD@Z ENDP			; std::ctype<char>::do_tolower
_TEXT	ENDS
; Function compile flags: /Ogtp
;	COMDAT ?do_tolower@?$ctype@D@std@@MBEPBDPADPBD@Z
_TEXT	SEGMENT
__First$ = 8						; size = 4
__Last$ = 12						; size = 4
?do_tolower@?$ctype@D@std@@MBEPBDPADPBD@Z PROC		; std::ctype<char>::do_tolower, COMDAT
; _this$ = ecx
; File C:\Program Files (x86)\Microsoft Visual Studio\2019\Community\VC\Tools\MSVC\14.27.29110\include\xlocale
; Line 2791
	push	ebp
	mov	ebp, esp
	push	esi
	mov	esi, DWORD PTR __First$[ebp]
	push	edi
; Line 2793
	mov	edi, DWORD PTR __Last$[ebp]
	cmp	esi, edi
	je	SHORT $LN10@do_tolower
	push	ebx
	lea	ebx, DWORD PTR [ecx+8]
$LL4@do_tolower:
; Line 2794
	movzx	eax, BYTE PTR [esi]
	push	ebx
	push	eax
	call	__Tolower
	mov	BYTE PTR [esi], al
	add	esp, 8
	inc	esi
	cmp	esi, edi
	jne	SHORT $LL4@do_tolower
; Line 2797
	pop	ebx
$LN10@do_tolower:
	pop	edi
; Line 2798
	mov	eax, esi
	pop	esi
	pop	ebp
	ret	8
?do_tolower@?$ctype@D@std@@MBEPBDPADPBD@Z ENDP		; std::ctype<char>::do_tolower
_TEXT	ENDS
; Function compile flags: /Ogtp
;	COMDAT ?do_toupper@?$ctype@D@std@@MBEDD@Z
_TEXT	SEGMENT
__Ch$ = 8						; size = 1
?do_toupper@?$ctype@D@std@@MBEDD@Z PROC			; std::ctype<char>::do_toupper, COMDAT
; _this$ = ecx
; File C:\Program Files (x86)\Microsoft Visual Studio\2019\Community\VC\Tools\MSVC\14.27.29110\include\xlocale
; Line 2800
	push	ebp
	mov	ebp, esp
; Line 2801
	lea	eax, DWORD PTR [ecx+8]
	push	eax
	movzx	eax, BYTE PTR __Ch$[ebp]
	push	eax
	call	__Toupper
	add	esp, 8
; Line 2802
	pop	ebp
	ret	4
?do_toupper@?$ctype@D@std@@MBEDD@Z ENDP			; std::ctype<char>::do_toupper
_TEXT	ENDS
; Function compile flags: /Ogtp
;	COMDAT ?do_toupper@?$ctype@D@std@@MBEPBDPADPBD@Z
_TEXT	SEGMENT
__First$ = 8						; size = 4
__Last$ = 12						; size = 4
?do_toupper@?$ctype@D@std@@MBEPBDPADPBD@Z PROC		; std::ctype<char>::do_toupper, COMDAT
; _this$ = ecx
; File C:\Program Files (x86)\Microsoft Visual Studio\2019\Community\VC\Tools\MSVC\14.27.29110\include\xlocale
; Line 2805
	push	ebp
	mov	ebp, esp
	push	esi
	mov	esi, DWORD PTR __First$[ebp]
	push	edi
; Line 2807
	mov	edi, DWORD PTR __Last$[ebp]
	cmp	esi, edi
	je	SHORT $LN10@do_toupper
	push	ebx
	lea	ebx, DWORD PTR [ecx+8]
$LL4@do_toupper:
; Line 2808
	movzx	eax, BYTE PTR [esi]
	push	ebx
	push	eax
	call	__Toupper
	mov	BYTE PTR [esi], al
	add	esp, 8
	inc	esi
	cmp	esi, edi
	jne	SHORT $LL4@do_toupper
; Line 2811
	pop	ebx
$LN10@do_toupper:
	pop	edi
; Line 2812
	mov	eax, esi
	pop	esi
	pop	ebp
	ret	8
?do_toupper@?$ctype@D@std@@MBEPBDPADPBD@Z ENDP		; std::ctype<char>::do_toupper
_TEXT	ENDS
; Function compile flags: /Ogtp
;	COMDAT ?do_widen@?$ctype@D@std@@MBEDD@Z
_TEXT	SEGMENT
__Byte$ = 8						; size = 1
?do_widen@?$ctype@D@std@@MBEDD@Z PROC			; std::ctype<char>::do_widen, COMDAT
; _this$ = ecx
; File C:\Program Files (x86)\Microsoft Visual Studio\2019\Community\VC\Tools\MSVC\14.27.29110\include\xlocale
; Line 2814
	push	ebp
	mov	ebp, esp
; Line 2815
	mov	al, BYTE PTR __Byte$[ebp]
; Line 2816
	pop	ebp
	ret	4
?do_widen@?$ctype@D@std@@MBEDD@Z ENDP			; std::ctype<char>::do_widen
_TEXT	ENDS
; Function compile flags: /Ogtp
;	COMDAT ?do_widen@?$ctype@D@std@@MBEPBDPBD0PAD@Z
_TEXT	SEGMENT
__First$ = 8						; size = 4
__Last$ = 12						; size = 4
__Dest$ = 16						; size = 4
?do_widen@?$ctype@D@std@@MBEPBDPBD0PAD@Z PROC		; std::ctype<char>::do_widen, COMDAT
; _this$ = ecx
; File C:\Program Files (x86)\Microsoft Visual Studio\2019\Community\VC\Tools\MSVC\14.27.29110\include\xlocale
; Line 2819
	push	ebp
	mov	ebp, esp
	mov	edx, DWORD PTR __Dest$[ebp]
	push	esi
	mov	esi, DWORD PTR __First$[ebp]
	push	edi
	mov	edi, DWORD PTR __Last$[ebp]
; Line 2821
	mov	ecx, edi
	sub	ecx, esi
	push	ecx
	push	esi
	push	edx
	call	_memcpy
	add	esp, 12					; 0000000cH
; Line 2822
	mov	eax, edi
	pop	edi
	pop	esi
; Line 2823
	pop	ebp
	ret	12					; 0000000cH
?do_widen@?$ctype@D@std@@MBEPBDPBD0PAD@Z ENDP		; std::ctype<char>::do_widen
_TEXT	ENDS
; Function compile flags: /Ogtp
;	COMDAT ?do_narrow@?$ctype@D@std@@MBEDDD@Z
_TEXT	SEGMENT
__Ch$ = 8						; size = 1
___formal$ = 12						; size = 1
?do_narrow@?$ctype@D@std@@MBEDDD@Z PROC			; std::ctype<char>::do_narrow, COMDAT
; _this$ = ecx
; File C:\Program Files (x86)\Microsoft Visual Studio\2019\Community\VC\Tools\MSVC\14.27.29110\include\xlocale
; Line 2825
	push	ebp
	mov	ebp, esp
; Line 2826
	mov	al, BYTE PTR __Ch$[ebp]
; Line 2827
	pop	ebp
	ret	8
?do_narrow@?$ctype@D@std@@MBEDDD@Z ENDP			; std::ctype<char>::do_narrow
_TEXT	ENDS
; Function compile flags: /Ogtp
;	COMDAT ?do_narrow@?$ctype@D@std@@MBEPBDPBD0DPAD@Z
_TEXT	SEGMENT
__First$ = 8						; size = 4
__Last$ = 12						; size = 4
___formal$ = 16						; size = 1
__Dest$ = 20						; size = 4
?do_narrow@?$ctype@D@std@@MBEPBDPBD0DPAD@Z PROC		; std::ctype<char>::do_narrow, COMDAT
; _this$ = ecx
; File C:\Program Files (x86)\Microsoft Visual Studio\2019\Community\VC\Tools\MSVC\14.27.29110\include\xlocale
; Line 2830
	push	ebp
	mov	ebp, esp
	mov	edx, DWORD PTR __Dest$[ebp]
	push	esi
	mov	esi, DWORD PTR __First$[ebp]
	push	edi
	mov	edi, DWORD PTR __Last$[ebp]
; Line 2832
	mov	ecx, edi
	sub	ecx, esi
	push	ecx
	push	esi
	push	edx
	call	_memcpy
	add	esp, 12					; 0000000cH
; Line 2833
	mov	eax, edi
	pop	edi
	pop	esi
; Line 2834
	pop	ebp
	ret	16					; 00000010H
?do_narrow@?$ctype@D@std@@MBEPBDPBD0DPAD@Z ENDP		; std::ctype<char>::do_narrow
_TEXT	ENDS
; Function compile flags: /Ogtp
;	COMDAT ??_G?$ctype@D@std@@MAEPAXI@Z
_TEXT	SEGMENT
___flags$ = 8						; size = 4
??_G?$ctype@D@std@@MAEPAXI@Z PROC			; std::ctype<char>::`scalar deleting destructor', COMDAT
; _this$ = ecx
	push	ebp
	mov	ebp, esp
; File C:\Program Files (x86)\Microsoft Visual Studio\2019\Community\VC\Tools\MSVC\14.27.29110\include\xlocale
; Line 2768
	push	esi
	mov	esi, ecx
; Line 2777
	mov	eax, DWORD PTR [esi+16]
; Line 2768
	mov	DWORD PTR [esi], OFFSET ??_7?$ctype@D@std@@6B@
; Line 2777
	test	eax, eax
	jle	SHORT $LN13@scalar
; Line 2778
	push	DWORD PTR [esi+12]
	call	_free
	jmp	SHORT $LN14@scalar
$LN13@scalar:
; Line 2779
	jns	SHORT $LN10@scalar
; Line 2780
	push	DWORD PTR [esi+12]
	call	??_V@YAXPAX@Z				; operator delete[]
$LN14@scalar:
; Line 2783
	add	esp, 4
$LN10@scalar:
	push	DWORD PTR [esi+20]
	call	_free
	add	esp, 4
; Line 2770
	mov	DWORD PTR [esi], OFFSET ??_7_Facet_base@std@@6B@
	test	BYTE PTR ___flags$[ebp], 1
	je	SHORT $LN12@scalar
	push	24					; 00000018H
	push	esi
	call	??3@YAXPAXI@Z				; operator delete
	add	esp, 8
$LN12@scalar:
	mov	eax, esi
	pop	esi
	pop	ebp
	ret	4
??_G?$ctype@D@std@@MAEPAXI@Z ENDP			; std::ctype<char>::`scalar deleting destructor'
_TEXT	ENDS
; Function compile flags: /Ogtp
;	COMDAT ?flags@ios_base@std@@QBEHXZ
_TEXT	SEGMENT
?flags@ios_base@std@@QBEHXZ PROC			; std::ios_base::flags, COMDAT
; _this$ = ecx
; File C:\Program Files (x86)\Microsoft Visual Studio\2019\Community\VC\Tools\MSVC\14.27.29110\include\xiosbase
; Line 326
	mov	eax, DWORD PTR [ecx+20]
; Line 327
	ret	0
?flags@ios_base@std@@QBEHXZ ENDP			; std::ios_base::flags
_TEXT	ENDS
; Function compile flags: /Ogtp
;	COMDAT ?precision@ios_base@std@@QBE_JXZ
_TEXT	SEGMENT
?precision@ios_base@std@@QBE_JXZ PROC			; std::ios_base::precision, COMDAT
; _this$ = ecx
; File C:\Program Files (x86)\Microsoft Visual Studio\2019\Community\VC\Tools\MSVC\14.27.29110\include\xiosbase
; Line 353
	mov	eax, DWORD PTR [ecx+24]
	mov	edx, DWORD PTR [ecx+28]
; Line 354
	ret	0
?precision@ios_base@std@@QBE_JXZ ENDP			; std::ios_base::precision
_TEXT	ENDS
; Function compile flags: /Ogtp
;	COMDAT ?width@ios_base@std@@QBE_JXZ
_TEXT	SEGMENT
?width@ios_base@std@@QBE_JXZ PROC			; std::ios_base::width, COMDAT
; _this$ = ecx
; File C:\Program Files (x86)\Microsoft Visual Studio\2019\Community\VC\Tools\MSVC\14.27.29110\include\xiosbase
; Line 363
	mov	eax, DWORD PTR [ecx+32]
	mov	edx, DWORD PTR [ecx+36]
; Line 364
	ret	0
?width@ios_base@std@@QBE_JXZ ENDP			; std::ios_base::width
_TEXT	ENDS
; Function compile flags: /Ogtp
;	COMDAT ?width@ios_base@std@@QAE_J_J@Z
_TEXT	SEGMENT
__Newwidth$ = 8						; size = 8
?width@ios_base@std@@QAE_J_J@Z PROC			; std::ios_base::width, COMDAT
; _this$ = ecx
; File C:\Program Files (x86)\Microsoft Visual Studio\2019\Community\VC\Tools\MSVC\14.27.29110\include\xiosbase
; Line 366
	push	ebp
	mov	ebp, esp
; Line 367
	mov	eax, DWORD PTR [ecx+32]
	mov	edx, DWORD PTR [ecx+36]
	push	esi
; Line 368
	mov	esi, DWORD PTR __Newwidth$[ebp]
	mov	DWORD PTR [ecx+32], esi
	mov	esi, DWORD PTR __Newwidth$[ebp+4]
	mov	DWORD PTR [ecx+36], esi
; Line 370
	pop	esi
	pop	ebp
	ret	8
?width@ios_base@std@@QAE_J_J@Z ENDP			; std::ios_base::width
_TEXT	ENDS
; Function compile flags: /Ogtp
;	COMDAT ?getloc@ios_base@std@@QBE?AVlocale@2@XZ
_TEXT	SEGMENT
___$ReturnUdt$ = 8					; size = 4
?getloc@ios_base@std@@QBE?AVlocale@2@XZ PROC		; std::ios_base::getloc, COMDAT
; _this$ = ecx
; File C:\Program Files (x86)\Microsoft Visual Studio\2019\Community\VC\Tools\MSVC\14.27.29110\include\xiosbase
; Line 372
	push	ebp
	mov	ebp, esp
; File C:\Program Files (x86)\Microsoft Visual Studio\2019\Community\VC\Tools\MSVC\14.27.29110\include\xlocale
; Line 267
	mov	eax, DWORD PTR [ecx+48]
; File C:\Program Files (x86)\Microsoft Visual Studio\2019\Community\VC\Tools\MSVC\14.27.29110\include\xiosbase
; Line 372
	push	esi
; File C:\Program Files (x86)\Microsoft Visual Studio\2019\Community\VC\Tools\MSVC\14.27.29110\include\xlocale
; Line 267
	mov	esi, DWORD PTR ___$ReturnUdt$[ebp]
	mov	ecx, DWORD PTR [eax+4]
	mov	DWORD PTR [esi+4], ecx
; Line 268
	mov	edx, DWORD PTR [ecx]
	call	DWORD PTR [edx+4]
; File C:\Program Files (x86)\Microsoft Visual Studio\2019\Community\VC\Tools\MSVC\14.27.29110\include\xiosbase
; Line 373
	mov	eax, esi
	pop	esi
; Line 374
	pop	ebp
	ret	4
?getloc@ios_base@std@@QBE?AVlocale@2@XZ ENDP		; std::ios_base::getloc
_TEXT	ENDS
; Function compile flags: /Ogtp
;	COMDAT ??1ios_base@std@@UAE@XZ
_TEXT	SEGMENT
__$EHRec$ = -12						; size = 12
??1ios_base@std@@UAE@XZ PROC				; std::ios_base::~ios_base, COMDAT
; _this$ = ecx
; File C:\Program Files (x86)\Microsoft Visual Studio\2019\Community\VC\Tools\MSVC\14.27.29110\include\xiosbase
; Line 451
	push	ebp
	mov	ebp, esp
	push	-1
	push	__ehhandler$??1ios_base@std@@UAE@XZ
	mov	eax, DWORD PTR fs:0
	push	eax
	mov	eax, DWORD PTR ___security_cookie
	xor	eax, ebp
	push	eax
	lea	eax, DWORD PTR __$EHRec$[ebp]
	mov	DWORD PTR fs:0, eax
; Line 452
	push	ecx
	mov	DWORD PTR [ecx], OFFSET ??_7ios_base@std@@6B@
	call	?_Ios_base_dtor@ios_base@std@@CAXPAV12@@Z ; std::ios_base::_Ios_base_dtor
	add	esp, 4
; Line 453
	mov	ecx, DWORD PTR __$EHRec$[ebp]
	mov	DWORD PTR fs:0, ecx
	pop	ecx
	mov	esp, ebp
	pop	ebp
	ret	0
	int	3
	int	3
	int	3
	int	3
	int	3
_TEXT	ENDS
;	COMDAT text$x
text$x	SEGMENT
__ehhandler$??1ios_base@std@@UAE@XZ:
	npad	1
	npad	1
	mov	edx, DWORD PTR [esp+8]
	lea	eax, DWORD PTR [edx+12]
	mov	ecx, DWORD PTR [edx-4]
	xor	ecx, eax
	call	@__security_check_cookie@4
	mov	eax, OFFSET __ehfuncinfo$??1ios_base@std@@UAE@XZ
	jmp	___CxxFrameHandler3
text$x	ENDS
??1ios_base@std@@UAE@XZ ENDP				; std::ios_base::~ios_base
; Function compile flags: /Ogtp
;	COMDAT ??_Gfailure@ios_base@std@@UAEPAXI@Z
_TEXT	SEGMENT
___flags$ = 8						; size = 4
??_Gfailure@ios_base@std@@UAEPAXI@Z PROC		; std::ios_base::failure::`scalar deleting destructor', COMDAT
; _this$ = ecx
	push	ebp
	mov	ebp, esp
; File C:\Program Files (x86)\Microsoft Visual Studio\2019\Community\VC\Tools\MSVC\14.27.29110\include\vcruntime_exception.h
; Line 89
	push	esi
	mov	esi, ecx
; Line 90
	lea	eax, DWORD PTR [esi+4]
	mov	DWORD PTR [esi], OFFSET ??_7exception@std@@6B@
	push	eax
	call	___std_exception_destroy
	add	esp, 4
	test	BYTE PTR ___flags$[ebp], 1
	je	SHORT $LN18@scalar
	push	20					; 00000014H
	push	esi
	call	??3@YAXPAXI@Z				; operator delete
	add	esp, 8
$LN18@scalar:
	mov	eax, esi
	pop	esi
	pop	ebp
	ret	4
??_Gfailure@ios_base@std@@UAEPAXI@Z ENDP		; std::ios_base::failure::`scalar deleting destructor'
_TEXT	ENDS
; Function compile flags: /Ogtp
;	COMDAT ??1failure@ios_base@std@@UAE@XZ
_TEXT	SEGMENT
??1failure@ios_base@std@@UAE@XZ PROC			; std::ios_base::failure::~failure, COMDAT
; _this$ = ecx
; File C:\Program Files (x86)\Microsoft Visual Studio\2019\Community\VC\Tools\MSVC\14.27.29110\include\vcruntime_exception.h
; Line 90
	lea	eax, DWORD PTR [ecx+4]
	mov	DWORD PTR [ecx], OFFSET ??_7exception@std@@6B@
	push	eax
	call	___std_exception_destroy
	pop	ecx
	ret	0
??1failure@ios_base@std@@UAE@XZ ENDP			; std::ios_base::failure::~failure
_TEXT	ENDS
; Function compile flags: /Ogtp
;	COMDAT ??_Gios_base@std@@UAEPAXI@Z
_TEXT	SEGMENT
__$EHRec$ = -12						; size = 12
___flags$ = 8						; size = 4
??_Gios_base@std@@UAEPAXI@Z PROC			; std::ios_base::`scalar deleting destructor', COMDAT
; _this$ = ecx
	push	ebp
	mov	ebp, esp
	push	-1
	push	__ehhandler$??_Gios_base@std@@UAEPAXI@Z
	mov	eax, DWORD PTR fs:0
	push	eax
	push	esi
	mov	eax, DWORD PTR ___security_cookie
	xor	eax, ebp
	push	eax
	lea	eax, DWORD PTR __$EHRec$[ebp]
	mov	DWORD PTR fs:0, eax
	mov	esi, ecx
; File C:\Program Files (x86)\Microsoft Visual Studio\2019\Community\VC\Tools\MSVC\14.27.29110\include\xiosbase
; Line 451
	mov	DWORD PTR __$EHRec$[ebp+8], 0
; Line 452
	push	esi
	mov	DWORD PTR [esi], OFFSET ??_7ios_base@std@@6B@
	call	?_Ios_base_dtor@ios_base@std@@CAXPAV12@@Z ; std::ios_base::_Ios_base_dtor
	add	esp, 4
	test	BYTE PTR ___flags$[ebp], 1
	je	SHORT $LN7@scalar
	push	56					; 00000038H
	push	esi
	call	??3@YAXPAXI@Z				; operator delete
	add	esp, 8
$LN7@scalar:
	mov	eax, esi
	mov	ecx, DWORD PTR __$EHRec$[ebp]
	mov	DWORD PTR fs:0, ecx
	pop	ecx
	pop	esi
	mov	esp, ebp
	pop	ebp
	ret	4
	int	3
	int	3
	int	3
	int	3
	int	3
_TEXT	ENDS
;	COMDAT text$x
text$x	SEGMENT
__ehhandler$??_Gios_base@std@@UAEPAXI@Z:
	npad	1
	npad	1
	mov	edx, DWORD PTR [esp+8]
	lea	eax, DWORD PTR [edx+12]
	mov	ecx, DWORD PTR [edx-8]
	xor	ecx, eax
	call	@__security_check_cookie@4
	mov	eax, OFFSET __ehfuncinfo$??_Gios_base@std@@UAEPAXI@Z
	jmp	___CxxFrameHandler3
text$x	ENDS
??_Gios_base@std@@UAEPAXI@Z ENDP			; std::ios_base::`scalar deleting destructor'
; Function compile flags: /Ogtp
;	COMDAT ??_GException@@UAEPAXI@Z
_TEXT	SEGMENT
___flags$ = 8						; size = 4
??_GException@@UAEPAXI@Z PROC				; Exception::`scalar deleting destructor', COMDAT
; _this$ = ecx
	push	ebp
	mov	ebp, esp
	push	esi
	mov	esi, ecx
	call	??1Exception@@UAE@XZ
	test	BYTE PTR ___flags$[ebp], 1
	je	SHORT $LN4@scalar
	push	64					; 00000040H
	push	esi
	call	??3@YAXPAXI@Z				; operator delete
	add	esp, 8
$LN4@scalar:
	mov	eax, esi
	pop	esi
	pop	ebp
	ret	4
??_GException@@UAEPAXI@Z ENDP				; Exception::`scalar deleting destructor'
_TEXT	ENDS
; Function compile flags: /Ogtp
;	COMDAT ??1Exception@@UAE@XZ
_TEXT	SEGMENT
??1Exception@@UAE@XZ PROC				; Exception::~Exception, COMDAT
; _this$ = ecx
; File C:\Program Files (x86)\Microsoft Visual Studio\2019\Community\VC\Tools\MSVC\14.27.29110\include\xstring
; Line 2153
	push	esi
	mov	esi, ecx
	mov	ecx, DWORD PTR [esi+60]
	cmp	ecx, 16					; 00000010H
; Line 4301
	jb	SHORT $LN15@Exception
; File C:\Program Files (x86)\Microsoft Visual Studio\2019\Community\VC\Tools\MSVC\14.27.29110\include\xmemory
; Line 803
	mov	eax, DWORD PTR [esi+40]
; File C:\Program Files (x86)\Microsoft Visual Studio\2019\Community\VC\Tools\MSVC\14.27.29110\include\xstring
; Line 4305
	inc	ecx
; File C:\Program Files (x86)\Microsoft Visual Studio\2019\Community\VC\Tools\MSVC\14.27.29110\include\xmemory
; Line 216
	cmp	ecx, 4096				; 00001000H
	jb	SHORT $LN25@Exception
; Line 137
	mov	edx, DWORD PTR [eax-4]
	add	ecx, 35					; 00000023H
; Line 150
	sub	eax, edx
; Line 151
	add	eax, -4					; fffffffcH
	cmp	eax, 31					; 0000001fH
	ja	SHORT $LN50@Exception
; Line 152
	mov	eax, edx
$LN25@Exception:
; Line 221
	push	ecx
	push	eax
	call	??3@YAXPAXI@Z				; operator delete
	add	esp, 8
$LN15@Exception:
; File C:\Program Files (x86)\Microsoft Visual Studio\2019\Community\VC\Tools\MSVC\14.27.29110\include\xstring
; Line 4308
	mov	DWORD PTR [esi+56], 0
; Line 4309
	mov	DWORD PTR [esi+60], 15			; 0000000fH
; Line 4311
	mov	BYTE PTR [esi+40], 0
; Line 2153
	mov	ecx, DWORD PTR [esi+36]
	cmp	ecx, 16					; 00000010H
; Line 4301
	jb	SHORT $LN43@Exception
; File C:\Program Files (x86)\Microsoft Visual Studio\2019\Community\VC\Tools\MSVC\14.27.29110\include\xmemory
; Line 803
	mov	eax, DWORD PTR [esi+16]
; File C:\Program Files (x86)\Microsoft Visual Studio\2019\Community\VC\Tools\MSVC\14.27.29110\include\xstring
; Line 4305
	inc	ecx
; File C:\Program Files (x86)\Microsoft Visual Studio\2019\Community\VC\Tools\MSVC\14.27.29110\include\xmemory
; Line 216
	cmp	ecx, 4096				; 00001000H
	jb	SHORT $LN53@Exception
; Line 137
	mov	edx, DWORD PTR [eax-4]
	add	ecx, 35					; 00000023H
; Line 150
	sub	eax, edx
; Line 151
	add	eax, -4					; fffffffcH
	cmp	eax, 31					; 0000001fH
	ja	SHORT $LN50@Exception
; Line 152
	mov	eax, edx
$LN53@Exception:
; Line 221
	push	ecx
	push	eax
	call	??3@YAXPAXI@Z				; operator delete
	add	esp, 8
$LN43@Exception:
; File C:\Program Files (x86)\Microsoft Visual Studio\2019\Community\VC\Tools\MSVC\14.27.29110\include\vcruntime_exception.h
; Line 90
	lea	eax, DWORD PTR [esi+4]
; File C:\Program Files (x86)\Microsoft Visual Studio\2019\Community\VC\Tools\MSVC\14.27.29110\include\xstring
; Line 4308
	mov	DWORD PTR [esi+32], 0
; Line 4309
	mov	DWORD PTR [esi+36], 15			; 0000000fH
; Line 4311
	mov	BYTE PTR [esi+16], 0
; File C:\Program Files (x86)\Microsoft Visual Studio\2019\Community\VC\Tools\MSVC\14.27.29110\include\vcruntime_exception.h
; Line 90
	push	eax
	mov	DWORD PTR [esi], OFFSET ??_7exception@std@@6B@
	call	___std_exception_destroy
	add	esp, 4
	pop	esi
	ret	0
$LN50@Exception:
; File C:\Program Files (x86)\Microsoft Visual Studio\2019\Community\VC\Tools\MSVC\14.27.29110\include\xmemory
; Line 151
	call	__invalid_parameter_noinfo_noreturn
$LN60@Exception:
	int	3
??1Exception@@UAE@XZ ENDP				; Exception::~Exception
_TEXT	ENDS
; Function compile flags: /Ogtp
;	COMDAT ??_D?$basic_ostringstream@DU?$char_traits@D@std@@V?$allocator@D@2@@std@@QAEXXZ
_TEXT	SEGMENT
__$EHRec$ = -12						; size = 12
??_D?$basic_ostringstream@DU?$char_traits@D@std@@V?$allocator@D@2@@std@@QAEXXZ PROC ; std::basic_ostringstream<char,std::char_traits<char>,std::allocator<char> >::`vbase destructor', COMDAT
; _this$ = ecx
	push	ebp
	mov	ebp, esp
	push	-1
	push	__ehhandler$??_D?$basic_ostringstream@DU?$char_traits@D@std@@V?$allocator@D@2@@std@@QAEXXZ
	mov	eax, DWORD PTR fs:0
	push	eax
	push	esi
	mov	eax, DWORD PTR ___security_cookie
	xor	eax, ebp
	push	eax
	lea	eax, DWORD PTR __$EHRec$[ebp]
	mov	DWORD PTR fs:0, eax
; File C:\Program Files (x86)\Microsoft Visual Studio\2019\Community\VC\Tools\MSVC\14.27.29110\include\sstream
; Line 489
	mov	eax, DWORD PTR [ecx]
	lea	esi, DWORD PTR [ecx+80]
	mov	eax, DWORD PTR [eax+4]
	mov	DWORD PTR [eax+esi-80], OFFSET ??_7?$basic_ostringstream@DU?$char_traits@D@std@@V?$allocator@D@2@@std@@6B@
	mov	eax, DWORD PTR [esi-80]
	mov	ecx, DWORD PTR [eax+4]
	lea	eax, DWORD PTR [ecx-80]
	mov	DWORD PTR [ecx+esi-84], eax
	lea	ecx, DWORD PTR [esi-76]
	call	??1?$basic_stringbuf@DU?$char_traits@D@std@@V?$allocator@D@2@@std@@UAE@XZ ; std::basic_stringbuf<char,std::char_traits<char>,std::allocator<char> >::~basic_stringbuf<char,std::char_traits<char>,std::allocator<char> >
; File C:\Program Files (x86)\Microsoft Visual Studio\2019\Community\VC\Tools\MSVC\14.27.29110\include\ostream
; Line 63
	mov	eax, DWORD PTR [esi-80]
	mov	eax, DWORD PTR [eax+4]
	mov	DWORD PTR [eax+esi-80], OFFSET ??_7?$basic_ostream@DU?$char_traits@D@std@@@std@@6B@
	mov	eax, DWORD PTR [esi-80]
	mov	ecx, DWORD PTR [eax+4]
	lea	eax, DWORD PTR [ecx-8]
	mov	DWORD PTR [ecx+esi-84], eax
; File C:\Program Files (x86)\Microsoft Visual Studio\2019\Community\VC\Tools\MSVC\14.27.29110\include\xiosbase
; Line 451
	mov	DWORD PTR __$EHRec$[ebp+8], 0
; Line 452
	push	esi
	mov	DWORD PTR [esi], OFFSET ??_7ios_base@std@@6B@
	call	?_Ios_base_dtor@ios_base@std@@CAXPAV12@@Z ; std::ios_base::_Ios_base_dtor
	add	esp, 4
	mov	ecx, DWORD PTR __$EHRec$[ebp]
	mov	DWORD PTR fs:0, ecx
	pop	ecx
	pop	esi
	mov	esp, ebp
	pop	ebp
	ret	0
	int	3
	int	3
	int	3
	int	3
	int	3
_TEXT	ENDS
;	COMDAT text$x
text$x	SEGMENT
__ehhandler$??_D?$basic_ostringstream@DU?$char_traits@D@std@@V?$allocator@D@2@@std@@QAEXXZ:
	npad	1
	npad	1
	mov	edx, DWORD PTR [esp+8]
	lea	eax, DWORD PTR [edx+12]
	mov	ecx, DWORD PTR [edx-8]
	xor	ecx, eax
	call	@__security_check_cookie@4
	mov	eax, OFFSET __ehfuncinfo$??_D?$basic_ostringstream@DU?$char_traits@D@std@@V?$allocator@D@2@@std@@QAEXXZ
	jmp	___CxxFrameHandler3
text$x	ENDS
??_D?$basic_ostringstream@DU?$char_traits@D@std@@V?$allocator@D@2@@std@@QAEXXZ ENDP ; std::basic_ostringstream<char,std::char_traits<char>,std::allocator<char> >::`vbase destructor'
; Function compile flags: /Ogtp
;	COMDAT ?seekpos@?$basic_stringbuf@DU?$char_traits@D@std@@V?$allocator@D@2@@std@@MAE?AV?$fpos@U_Mbstatet@@@2@V32@H@Z
_TEXT	SEGMENT
__Seeklow$1$ = -24					; size = 4
__Off$2$ = -20						; size = 4
__Gptr_old$1$ = -16					; size = 4
tv257 = -12						; size = 4
tv231 = -8						; size = 4
___$ReturnUdt$ = 8					; size = 4
__Pos$ = 12						; size = 24
__Mode$ = 36						; size = 4
?seekpos@?$basic_stringbuf@DU?$char_traits@D@std@@V?$allocator@D@2@@std@@MAE?AV?$fpos@U_Mbstatet@@@2@V32@H@Z PROC ; std::basic_stringbuf<char,std::char_traits<char>,std::allocator<char> >::seekpos, COMDAT
; _this$ = ecx
; File C:\Program Files (x86)\Microsoft Visual Studio\2019\Community\VC\Tools\MSVC\14.27.29110\include\sstream
; Line 264
	push	ebp
	mov	ebp, esp
	and	esp, -8					; fffffff8H
	sub	esp, 28					; 0000001cH
; File C:\Program Files (x86)\Microsoft Visual Studio\2019\Community\VC\Tools\MSVC\14.27.29110\include\iosfwd
; Line 70
	mov	eax, DWORD PTR __Pos$[ebp+4]
; File C:\Program Files (x86)\Microsoft Visual Studio\2019\Community\VC\Tools\MSVC\14.27.29110\include\sstream
; Line 264
	push	ebx
; File C:\Program Files (x86)\Microsoft Visual Studio\2019\Community\VC\Tools\MSVC\14.27.29110\include\iosfwd
; Line 70
	mov	ebx, DWORD PTR __Pos$[ebp]
	add	ebx, DWORD PTR __Pos$[ebp+8]
; File C:\Program Files (x86)\Microsoft Visual Studio\2019\Community\VC\Tools\MSVC\14.27.29110\include\sstream
; Line 264
	push	esi
; File C:\Program Files (x86)\Microsoft Visual Studio\2019\Community\VC\Tools\MSVC\14.27.29110\include\iosfwd
; Line 70
	adc	eax, DWORD PTR __Pos$[ebp+12]
; File C:\Program Files (x86)\Microsoft Visual Studio\2019\Community\VC\Tools\MSVC\14.27.29110\include\sstream
; Line 264
	mov	esi, DWORD PTR ___$ReturnUdt$[ebp]
	push	edi
	mov	edi, ecx
; File C:\Program Files (x86)\Microsoft Visual Studio\2019\Community\VC\Tools\MSVC\14.27.29110\include\iosfwd
; Line 70
	mov	DWORD PTR __Off$2$[esp+40], eax
; File C:\Program Files (x86)\Microsoft Visual Studio\2019\Community\VC\Tools\MSVC\14.27.29110\include\streambuf
; Line 185
	mov	eax, DWORD PTR [edi+28]
	mov	eax, DWORD PTR [eax]
	mov	DWORD PTR __Gptr_old$1$[esp+40], eax
; Line 193
	mov	eax, DWORD PTR [edi+32]
	mov	ecx, DWORD PTR [eax]
; File C:\Program Files (x86)\Microsoft Visual Studio\2019\Community\VC\Tools\MSVC\14.27.29110\include\sstream
; Line 269
	test	ecx, ecx
	je	SHORT $LN2@seekpos
	cmp	DWORD PTR [edi+56], ecx
	jae	SHORT $LN2@seekpos
; Line 270
	mov	DWORD PTR [edi+56], ecx
$LN2@seekpos:
; File C:\Program Files (x86)\Microsoft Visual Studio\2019\Community\VC\Tools\MSVC\14.27.29110\include\streambuf
; Line 181
	mov	eax, DWORD PTR [edi+12]
	mov	edx, DWORD PTR [eax]
; File C:\Program Files (x86)\Microsoft Visual Studio\2019\Community\VC\Tools\MSVC\14.27.29110\include\sstream
; Line 274
	mov	eax, DWORD PTR [edi+56]
	mov	DWORD PTR tv231[esp+40], eax
	sub	eax, edx
; File C:\Program Files (x86)\Microsoft Visual Studio\2019\Community\VC\Tools\MSVC\14.27.29110\include\streambuf
; Line 181
	mov	DWORD PTR __Seeklow$1$[esp+40], edx
; File C:\Program Files (x86)\Microsoft Visual Studio\2019\Community\VC\Tools\MSVC\14.27.29110\include\sstream
; Line 275
	cdq
	cmp	DWORD PTR __Off$2$[esp+40], edx
	ja	$LN5@seekpos
	jb	SHORT $LN30@seekpos
	cmp	ebx, eax
	ja	SHORT $LN5@seekpos
$LN30@seekpos:
; Line 279
	mov	edx, DWORD PTR __Mode$[ebp]
	mov	eax, ebx
	or	eax, DWORD PTR __Off$2$[esp+40]
	je	SHORT $LN4@seekpos
	test	dl, 1
	je	SHORT $LN6@seekpos
	cmp	DWORD PTR __Gptr_old$1$[esp+40], 0
	je	SHORT $LN5@seekpos
$LN6@seekpos:
	test	dl, 2
	je	SHORT $LN4@seekpos
	test	ecx, ecx
	je	SHORT $LN5@seekpos
$LN4@seekpos:
; Line 283
	mov	eax, DWORD PTR __Seeklow$1$[esp+40]
	add	eax, ebx
; Line 284
	test	dl, 1
	je	SHORT $LN7@seekpos
	cmp	DWORD PTR __Gptr_old$1$[esp+40], 0
	je	SHORT $LN7@seekpos
; File C:\Program Files (x86)\Microsoft Visual Studio\2019\Community\VC\Tools\MSVC\14.27.29110\include\streambuf
; Line 207
	mov	edx, DWORD PTR [edi+28]
	mov	DWORD PTR [edx], eax
; Line 208
	mov	edx, DWORD PTR tv231[esp+40]
	sub	edx, eax
	mov	eax, DWORD PTR [edi+44]
	mov	DWORD PTR [eax], edx
	mov	edx, DWORD PTR __Mode$[ebp]
$LN7@seekpos:
; File C:\Program Files (x86)\Microsoft Visual Studio\2019\Community\VC\Tools\MSVC\14.27.29110\include\sstream
; Line 288
	test	dl, 2
	je	SHORT $LN8@seekpos
	test	ecx, ecx
	je	SHORT $LN8@seekpos
; File C:\Program Files (x86)\Microsoft Visual Studio\2019\Community\VC\Tools\MSVC\14.27.29110\include\streambuf
; Line 212
	mov	eax, DWORD PTR [edi+48]
	mov	ecx, DWORD PTR [edi+32]
	mov	edx, DWORD PTR [eax]
; Line 247
	mov	eax, DWORD PTR [edi+16]
; Line 212
	add	edx, DWORD PTR [ecx]
; Line 247
	mov	ecx, DWORD PTR __Seeklow$1$[esp+40]
	mov	DWORD PTR [eax], ecx
; Line 248
	add	ecx, ebx
	mov	eax, DWORD PTR [edi+32]
; Line 249
	sub	edx, ecx
	mov	DWORD PTR [eax], ecx
	mov	eax, DWORD PTR [edi+48]
	mov	DWORD PTR [eax], edx
$LN8@seekpos:
; File C:\Program Files (x86)\Microsoft Visual Studio\2019\Community\VC\Tools\MSVC\14.27.29110\include\iosfwd
; Line 55
	mov	eax, DWORD PTR __Off$2$[esp+40]
	mov	DWORD PTR [esi], ebx
	mov	DWORD PTR [esi+4], eax
; File C:\Program Files (x86)\Microsoft Visual Studio\2019\Community\VC\Tools\MSVC\14.27.29110\include\sstream
; Line 292
	jmp	SHORT $LN31@seekpos
$LN5@seekpos:
; File C:\Program Files (x86)\Microsoft Visual Studio\2019\Community\VC\Tools\MSVC\14.27.29110\include\iosfwd
; Line 55
	mov	DWORD PTR [esi], -1
	mov	DWORD PTR [esi+4], -1
$LN31@seekpos:
; File C:\Program Files (x86)\Microsoft Visual Studio\2019\Community\VC\Tools\MSVC\14.27.29110\include\sstream
; Line 293
	mov	DWORD PTR [esi+8], 0
	xorps	xmm0, xmm0
	mov	DWORD PTR [esi+12], 0
	mov	eax, esi
	pop	edi
	movq	QWORD PTR [esi+16], xmm0
	pop	esi
	pop	ebx
	mov	esp, ebp
	pop	ebp
	ret	32					; 00000020H
?seekpos@?$basic_stringbuf@DU?$char_traits@D@std@@V?$allocator@D@2@@std@@MAE?AV?$fpos@U_Mbstatet@@@2@V32@H@Z ENDP ; std::basic_stringbuf<char,std::char_traits<char>,std::allocator<char> >::seekpos
_TEXT	ENDS
; Function compile flags: /Ogtp
;	COMDAT ?seekoff@?$basic_stringbuf@DU?$char_traits@D@std@@V?$allocator@D@2@@std@@MAE?AV?$fpos@U_Mbstatet@@@2@_JHH@Z
_TEXT	SEGMENT
__Gptr_old$1$ = -28					; size = 4
__Off$2$ = -24						; size = 4
__Newoff$ = -24						; size = 8
__Newptr$1$ = -16					; size = 4
__Seekdist$1$ = -16					; size = 4
__Seeklow$1$ = -12					; size = 4
tv229 = -8						; size = 4
tv188 = -4						; size = 4
___$ReturnUdt$ = 8					; size = 4
__Off$ = 12						; size = 8
__Way$ = 20						; size = 4
__Mode$ = 24						; size = 4
?seekoff@?$basic_stringbuf@DU?$char_traits@D@std@@V?$allocator@D@2@@std@@MAE?AV?$fpos@U_Mbstatet@@@2@_JHH@Z PROC ; std::basic_stringbuf<char,std::char_traits<char>,std::allocator<char> >::seekoff, COMDAT
; _this$ = ecx
; File C:\Program Files (x86)\Microsoft Visual Studio\2019\Community\VC\Tools\MSVC\14.27.29110\include\sstream
; Line 205
	push	ebp
	mov	ebp, esp
	and	esp, -8					; fffffff8H
	sub	esp, 28					; 0000001cH
	push	ebx
	push	esi
	mov	esi, ecx
	push	edi
; File C:\Program Files (x86)\Microsoft Visual Studio\2019\Community\VC\Tools\MSVC\14.27.29110\include\streambuf
; Line 185
	mov	eax, DWORD PTR [esi+28]
	mov	edi, DWORD PTR [eax]
; Line 193
	mov	eax, DWORD PTR [esi+32]
; Line 185
	mov	DWORD PTR __Gptr_old$1$[esp+40], edi
; Line 193
	mov	ecx, DWORD PTR [eax]
; File C:\Program Files (x86)\Microsoft Visual Studio\2019\Community\VC\Tools\MSVC\14.27.29110\include\sstream
; Line 209
	test	ecx, ecx
	je	SHORT $LN4@seekoff
	cmp	DWORD PTR [esi+56], ecx
	jae	SHORT $LN4@seekoff
; Line 210
	mov	DWORD PTR [esi+56], ecx
$LN4@seekoff:
; File C:\Program Files (x86)\Microsoft Visual Studio\2019\Community\VC\Tools\MSVC\14.27.29110\include\streambuf
; Line 181
	mov	eax, DWORD PTR [esi+12]
; File C:\Program Files (x86)\Microsoft Visual Studio\2019\Community\VC\Tools\MSVC\14.27.29110\include\sstream
; Line 216
	mov	ebx, DWORD PTR __Mode$[ebp]
; File C:\Program Files (x86)\Microsoft Visual Studio\2019\Community\VC\Tools\MSVC\14.27.29110\include\streambuf
; Line 181
	mov	edx, DWORD PTR [eax]
; File C:\Program Files (x86)\Microsoft Visual Studio\2019\Community\VC\Tools\MSVC\14.27.29110\include\sstream
; Line 214
	mov	eax, DWORD PTR [esi+56]
	mov	DWORD PTR tv188[esp+40], eax
	sub	eax, edx
	mov	DWORD PTR __Seekdist$1$[esp+40], eax
; Line 216
	mov	eax, DWORD PTR __Way$[ebp]
; File C:\Program Files (x86)\Microsoft Visual Studio\2019\Community\VC\Tools\MSVC\14.27.29110\include\streambuf
; Line 181
	mov	DWORD PTR __Seeklow$1$[esp+40], edx
; File C:\Program Files (x86)\Microsoft Visual Studio\2019\Community\VC\Tools\MSVC\14.27.29110\include\sstream
; Line 216
	sub	eax, 0
	je	SHORT $LN5@seekoff
	sub	eax, 1
	je	SHORT $LN7@seekoff
	sub	eax, 1
	jne	$LN18@seekoff
; Line 221
	mov	eax, DWORD PTR __Seekdist$1$[esp+40]
	cdq
	mov	edi, eax
	mov	eax, edx
; Line 222
	jmp	SHORT $LN2@seekoff
$LN7@seekoff:
; Line 225
	mov	eax, ebx
	and	eax, 3
	cmp	al, 3
	je	$LN18@seekoff
; Line 226
	test	bl, 1
	je	SHORT $LN9@seekoff
; Line 227
	test	edi, edi
	jne	SHORT $LN12@seekoff
	test	edx, edx
	jne	$LN18@seekoff
$LN12@seekoff:
; Line 228
	mov	eax, edi
	sub	eax, edx
	cdq
	mov	edi, eax
	mov	eax, edx
; Line 229
	jmp	SHORT $LN2@seekoff
$LN9@seekoff:
; Line 231
	test	bl, 2
	je	$LN18@seekoff
	test	ecx, ecx
	jne	SHORT $LN14@seekoff
	test	edx, edx
	jne	$LN18@seekoff
$LN14@seekoff:
; Line 232
	mov	eax, ecx
	sub	eax, edx
	cdq
	mov	edi, eax
	mov	eax, edx
; Line 233
	jmp	SHORT $LN2@seekoff
$LN5@seekoff:
	xorps	xmm0, xmm0
; Line 218
	movlpd	QWORD PTR __Newoff$[esp+40], xmm0
	mov	eax, DWORD PTR __Newoff$[esp+44]
	mov	edi, DWORD PTR __Newoff$[esp+40]
$LN2@seekoff:
; Line 243
	add	edi, DWORD PTR __Off$[ebp]
	adc	eax, DWORD PTR __Off$[ebp+4]
	mov	DWORD PTR __Off$2$[esp+40], eax
	mov	eax, DWORD PTR __Seekdist$1$[esp+40]
	cdq
	cmp	DWORD PTR __Off$2$[esp+40], edx
	ja	$LN18@seekoff
	jb	SHORT $LN43@seekoff
	cmp	edi, eax
	ja	SHORT $LN18@seekoff
$LN43@seekoff:
; Line 248
	mov	edx, DWORD PTR __Gptr_old$1$[esp+40]
	mov	eax, edi
	or	eax, DWORD PTR __Off$2$[esp+40]
	je	SHORT $LN17@seekoff
	test	bl, 1
	je	SHORT $LN19@seekoff
	test	edx, edx
	je	SHORT $LN18@seekoff
$LN19@seekoff:
	test	bl, 2
	je	SHORT $LN17@seekoff
	test	ecx, ecx
	je	SHORT $LN18@seekoff
$LN17@seekoff:
; Line 252
	mov	eax, DWORD PTR __Seeklow$1$[esp+40]
	add	eax, edi
	mov	DWORD PTR __Newptr$1$[esp+40], eax
; Line 253
	test	bl, 1
	je	SHORT $LN20@seekoff
	test	edx, edx
	je	SHORT $LN20@seekoff
; File C:\Program Files (x86)\Microsoft Visual Studio\2019\Community\VC\Tools\MSVC\14.27.29110\include\streambuf
; Line 207
	mov	edx, DWORD PTR [esi+28]
	mov	DWORD PTR [edx], eax
; Line 208
	mov	edx, DWORD PTR tv188[esp+40]
	sub	edx, eax
	mov	eax, DWORD PTR [esi+44]
	mov	DWORD PTR [eax], edx
$LN20@seekoff:
; File C:\Program Files (x86)\Microsoft Visual Studio\2019\Community\VC\Tools\MSVC\14.27.29110\include\sstream
; Line 257
	test	bl, 2
	je	SHORT $LN21@seekoff
	test	ecx, ecx
	je	SHORT $LN21@seekoff
; File C:\Program Files (x86)\Microsoft Visual Studio\2019\Community\VC\Tools\MSVC\14.27.29110\include\streambuf
; Line 212
	mov	eax, DWORD PTR [esi+48]
	mov	ecx, DWORD PTR [esi+32]
	mov	edx, DWORD PTR [eax]
; Line 247
	mov	eax, DWORD PTR [esi+16]
; Line 212
	add	edx, DWORD PTR [ecx]
; Line 247
	mov	ecx, DWORD PTR __Seeklow$1$[esp+40]
	mov	DWORD PTR [eax], ecx
; Line 248
	mov	eax, DWORD PTR [esi+32]
	mov	ecx, DWORD PTR __Newptr$1$[esp+40]
; Line 249
	sub	edx, ecx
	mov	DWORD PTR [eax], ecx
	mov	eax, DWORD PTR [esi+48]
	mov	DWORD PTR [eax], edx
$LN21@seekoff:
; File C:\Program Files (x86)\Microsoft Visual Studio\2019\Community\VC\Tools\MSVC\14.27.29110\include\iosfwd
; Line 55
	mov	eax, DWORD PTR ___$ReturnUdt$[ebp]
	mov	ecx, DWORD PTR __Off$2$[esp+40]
	mov	DWORD PTR [eax], edi
	mov	DWORD PTR [eax+4], ecx
; File C:\Program Files (x86)\Microsoft Visual Studio\2019\Community\VC\Tools\MSVC\14.27.29110\include\sstream
; Line 261
	jmp	SHORT $LN46@seekoff
$LN18@seekoff:
; File C:\Program Files (x86)\Microsoft Visual Studio\2019\Community\VC\Tools\MSVC\14.27.29110\include\iosfwd
; Line 55
	mov	eax, DWORD PTR ___$ReturnUdt$[ebp]
	mov	DWORD PTR [eax], -1
	mov	DWORD PTR [eax+4], -1
$LN46@seekoff:
; File C:\Program Files (x86)\Microsoft Visual Studio\2019\Community\VC\Tools\MSVC\14.27.29110\include\sstream
; Line 262
	pop	edi
	xorps	xmm0, xmm0
	mov	DWORD PTR [eax+8], 0
	pop	esi
	mov	DWORD PTR [eax+12], 0
	movq	QWORD PTR [eax+16], xmm0
	pop	ebx
	mov	esp, ebp
	pop	ebp
	ret	20					; 00000014H
?seekoff@?$basic_stringbuf@DU?$char_traits@D@std@@V?$allocator@D@2@@std@@MAE?AV?$fpos@U_Mbstatet@@@2@_JHH@Z ENDP ; std::basic_stringbuf<char,std::char_traits<char>,std::allocator<char> >::seekoff
_TEXT	ENDS
; Function compile flags: /Ogtp
;	COMDAT ?underflow@?$basic_stringbuf@DU?$char_traits@D@std@@V?$allocator@D@2@@std@@MAEHXZ
_TEXT	SEGMENT
?underflow@?$basic_stringbuf@DU?$char_traits@D@std@@V?$allocator@D@2@@std@@MAEHXZ PROC ; std::basic_stringbuf<char,std::char_traits<char>,std::allocator<char> >::underflow, COMDAT
; _this$ = ecx
; File C:\Program Files (x86)\Microsoft Visual Studio\2019\Community\VC\Tools\MSVC\14.27.29110\include\sstream
; Line 178
	push	esi
	push	edi
; File C:\Program Files (x86)\Microsoft Visual Studio\2019\Community\VC\Tools\MSVC\14.27.29110\include\streambuf
; Line 185
	mov	edi, DWORD PTR [ecx+28]
	mov	edx, DWORD PTR [edi]
; File C:\Program Files (x86)\Microsoft Visual Studio\2019\Community\VC\Tools\MSVC\14.27.29110\include\sstream
; Line 180
	test	edx, edx
	je	SHORT $LN5@underflow
; File C:\Program Files (x86)\Microsoft Visual Studio\2019\Community\VC\Tools\MSVC\14.27.29110\include\streambuf
; Line 197
	mov	eax, DWORD PTR [ecx+44]
	mov	eax, DWORD PTR [eax]
	add	eax, edx
; File C:\Program Files (x86)\Microsoft Visual Studio\2019\Community\VC\Tools\MSVC\14.27.29110\include\sstream
; Line 184
	cmp	edx, eax
	jae	SHORT $LN3@underflow
; File C:\Program Files (x86)\Microsoft Visual Studio\2019\Community\VC\Tools\MSVC\14.27.29110\include\xstring
; Line 389
	movzx	eax, BYTE PTR [edx]
	pop	edi
; File C:\Program Files (x86)\Microsoft Visual Studio\2019\Community\VC\Tools\MSVC\14.27.29110\include\sstream
; Line 202
	pop	esi
	ret	0
$LN3@underflow:
; File C:\Program Files (x86)\Microsoft Visual Studio\2019\Community\VC\Tools\MSVC\14.27.29110\include\streambuf
; Line 193
	mov	eax, DWORD PTR [ecx+32]
; File C:\Program Files (x86)\Microsoft Visual Studio\2019\Community\VC\Tools\MSVC\14.27.29110\include\sstream
; Line 189
	mov	eax, DWORD PTR [eax]
	test	eax, eax
; Line 190
	je	SHORT $LN5@underflow
	test	BYTE PTR [ecx+60], 4
	jne	SHORT $LN5@underflow
; File C:\Program Files (x86)\Microsoft Visual Studio\2019\Community\VC\Tools\MSVC\14.27.29110\include\utility
; Line 44
	mov	esi, DWORD PTR [ecx+56]
	cmp	esi, eax
	cmovb	esi, eax
; File C:\Program Files (x86)\Microsoft Visual Studio\2019\Community\VC\Tools\MSVC\14.27.29110\include\sstream
; Line 195
	cmp	esi, edx
	jbe	SHORT $LN5@underflow
; Line 199
	mov	DWORD PTR [ecx+56], esi
; File C:\Program Files (x86)\Microsoft Visual Studio\2019\Community\VC\Tools\MSVC\14.27.29110\include\streambuf
; Line 185
	mov	eax, DWORD PTR [edi]
; Line 208
	sub	esi, eax
	mov	DWORD PTR [edi], eax
	mov	eax, DWORD PTR [ecx+44]
	pop	edi
	mov	DWORD PTR [eax], esi
; Line 185
	mov	eax, DWORD PTR [ecx+28]
; File C:\Program Files (x86)\Microsoft Visual Studio\2019\Community\VC\Tools\MSVC\14.27.29110\include\sstream
; Line 202
	pop	esi
; File C:\Program Files (x86)\Microsoft Visual Studio\2019\Community\VC\Tools\MSVC\14.27.29110\include\streambuf
; Line 185
	mov	eax, DWORD PTR [eax]
; File C:\Program Files (x86)\Microsoft Visual Studio\2019\Community\VC\Tools\MSVC\14.27.29110\include\xstring
; Line 389
	movzx	eax, BYTE PTR [eax]
; File C:\Program Files (x86)\Microsoft Visual Studio\2019\Community\VC\Tools\MSVC\14.27.29110\include\sstream
; Line 202
	ret	0
$LN5@underflow:
	pop	edi
; Line 191
	or	eax, -1
; Line 202
	pop	esi
	ret	0
?underflow@?$basic_stringbuf@DU?$char_traits@D@std@@V?$allocator@D@2@@std@@MAEHXZ ENDP ; std::basic_stringbuf<char,std::char_traits<char>,std::allocator<char> >::underflow
_TEXT	ENDS
; Function compile flags: /Ogtp
;	COMDAT ?pbackfail@?$basic_stringbuf@DU?$char_traits@D@std@@V?$allocator@D@2@@std@@MAEHH@Z
_TEXT	SEGMENT
__Meta$ = 8						; size = 4
?pbackfail@?$basic_stringbuf@DU?$char_traits@D@std@@V?$allocator@D@2@@std@@MAEHH@Z PROC ; std::basic_stringbuf<char,std::char_traits<char>,std::allocator<char> >::pbackfail, COMDAT
; _this$ = ecx
; File C:\Program Files (x86)\Microsoft Visual Studio\2019\Community\VC\Tools\MSVC\14.27.29110\include\sstream
; Line 161
	push	ebp
	mov	ebp, esp
; File C:\Program Files (x86)\Microsoft Visual Studio\2019\Community\VC\Tools\MSVC\14.27.29110\include\streambuf
; Line 185
	mov	eax, DWORD PTR [ecx+28]
; File C:\Program Files (x86)\Microsoft Visual Studio\2019\Community\VC\Tools\MSVC\14.27.29110\include\sstream
; Line 161
	push	esi
; File C:\Program Files (x86)\Microsoft Visual Studio\2019\Community\VC\Tools\MSVC\14.27.29110\include\streambuf
; Line 185
	mov	esi, DWORD PTR [eax]
; File C:\Program Files (x86)\Microsoft Visual Studio\2019\Community\VC\Tools\MSVC\14.27.29110\include\sstream
; Line 164
	test	esi, esi
	je	SHORT $LN3@pbackfail
; File C:\Program Files (x86)\Microsoft Visual Studio\2019\Community\VC\Tools\MSVC\14.27.29110\include\streambuf
; Line 181
	mov	eax, DWORD PTR [ecx+12]
; File C:\Program Files (x86)\Microsoft Visual Studio\2019\Community\VC\Tools\MSVC\14.27.29110\include\sstream
; Line 164
	cmp	esi, DWORD PTR [eax]
	jbe	SHORT $LN3@pbackfail
; File C:\Program Files (x86)\Microsoft Visual Studio\2019\Community\VC\Tools\MSVC\14.27.29110\include\xstring
; Line 393
	mov	edx, DWORD PTR __Meta$[ebp]
	cmp	edx, -1
; File C:\Program Files (x86)\Microsoft Visual Studio\2019\Community\VC\Tools\MSVC\14.27.29110\include\sstream
; Line 164
	je	SHORT $LN2@pbackfail
; File C:\Program Files (x86)\Microsoft Visual Studio\2019\Community\VC\Tools\MSVC\14.27.29110\include\xstring
; Line 377
	cmp	dl, BYTE PTR [esi-1]
; File C:\Program Files (x86)\Microsoft Visual Studio\2019\Community\VC\Tools\MSVC\14.27.29110\include\sstream
; Line 164
	je	SHORT $LN2@pbackfail
	test	BYTE PTR [ecx+60], 2
	jne	SHORT $LN3@pbackfail
$LN2@pbackfail:
; File C:\Program Files (x86)\Microsoft Visual Studio\2019\Community\VC\Tools\MSVC\14.27.29110\include\streambuf
; Line 201
	mov	eax, DWORD PTR [ecx+44]
	inc	DWORD PTR [eax]
; Line 202
	mov	eax, DWORD PTR [ecx+28]
	dec	DWORD PTR [eax]
; File C:\Program Files (x86)\Microsoft Visual Studio\2019\Community\VC\Tools\MSVC\14.27.29110\include\xstring
; Line 393
	cmp	edx, -1
; File C:\Program Files (x86)\Microsoft Visual Studio\2019\Community\VC\Tools\MSVC\14.27.29110\include\sstream
; Line 171
	je	SHORT $LN4@pbackfail
; File C:\Program Files (x86)\Microsoft Visual Studio\2019\Community\VC\Tools\MSVC\14.27.29110\include\streambuf
; Line 185
	mov	ecx, DWORD PTR [ecx+28]
	mov	ecx, DWORD PTR [ecx]
; File C:\Program Files (x86)\Microsoft Visual Studio\2019\Community\VC\Tools\MSVC\14.27.29110\include\sstream
; Line 172
	mov	BYTE PTR [ecx], dl
$LN4@pbackfail:
; Line 175
	xor	eax, eax
	cmp	edx, -1
	pop	esi
	cmove	edx, eax
	mov	eax, edx
; Line 176
	pop	ebp
	ret	4
$LN3@pbackfail:
; Line 166
	or	eax, -1
	pop	esi
; Line 176
	pop	ebp
	ret	4
?pbackfail@?$basic_stringbuf@DU?$char_traits@D@std@@V?$allocator@D@2@@std@@MAEHH@Z ENDP ; std::basic_stringbuf<char,std::char_traits<char>,std::allocator<char> >::pbackfail
_TEXT	ENDS
; Function compile flags: /Ogtp
;	COMDAT ?overflow@?$basic_stringbuf@DU?$char_traits@D@std@@V?$allocator@D@2@@std@@MAEHH@Z
_TEXT	SEGMENT
__Back_shift$1$ = -8					; size = 4
__Newsize$1$ = -4					; size = 4
__Meta$ = 8						; size = 4
?overflow@?$basic_stringbuf@DU?$char_traits@D@std@@V?$allocator@D@2@@std@@MAEHH@Z PROC ; std::basic_stringbuf<char,std::char_traits<char>,std::allocator<char> >::overflow, COMDAT
; _this$ = ecx
; File C:\Program Files (x86)\Microsoft Visual Studio\2019\Community\VC\Tools\MSVC\14.27.29110\include\sstream
; Line 104
	push	ebp
	mov	ebp, esp
	sub	esp, 8
	push	ebx
	mov	ebx, ecx
	push	esi
	push	edi
; Line 105
	test	BYTE PTR [ebx+60], 2
	jne	$LN10@overflow
; File C:\Program Files (x86)\Microsoft Visual Studio\2019\Community\VC\Tools\MSVC\14.27.29110\include\xstring
; Line 393
	cmp	DWORD PTR __Meta$[ebp], -1
; File C:\Program Files (x86)\Microsoft Visual Studio\2019\Community\VC\Tools\MSVC\14.27.29110\include\sstream
; Line 109
	jne	SHORT $LN3@overflow
; Line 159
	pop	edi
	pop	esi
	xor	eax, eax
	pop	ebx
	mov	esp, ebp
	pop	ebp
	ret	4
$LN3@overflow:
; File C:\Program Files (x86)\Microsoft Visual Studio\2019\Community\VC\Tools\MSVC\14.27.29110\include\streambuf
; Line 193
	mov	eax, DWORD PTR [ebx+32]
	mov	edi, DWORD PTR [eax]
; Line 212
	mov	eax, DWORD PTR [ebx+48]
	mov	edx, DWORD PTR [eax]
	lea	ecx, DWORD PTR [edx+edi]
; File C:\Program Files (x86)\Microsoft Visual Studio\2019\Community\VC\Tools\MSVC\14.27.29110\include\sstream
; Line 115
	test	edi, edi
	je	SHORT $LN86@overflow
	cmp	edi, ecx
	jae	SHORT $LN86@overflow
; File C:\Program Files (x86)\Microsoft Visual Studio\2019\Community\VC\Tools\MSVC\14.27.29110\include\streambuf
; Line 253
	lea	ecx, DWORD PTR [edx-1]
	mov	DWORD PTR [eax], ecx
; Line 254
	mov	edx, DWORD PTR [ebx+32]
; File C:\Program Files (x86)\Microsoft Visual Studio\2019\Community\VC\Tools\MSVC\14.27.29110\include\sstream
; Line 116
	mov	eax, DWORD PTR __Meta$[ebp]
; File C:\Program Files (x86)\Microsoft Visual Studio\2019\Community\VC\Tools\MSVC\14.27.29110\include\streambuf
; Line 254
	mov	esi, DWORD PTR [edx]
	lea	ecx, DWORD PTR [esi+1]
	mov	DWORD PTR [edx], ecx
; File C:\Program Files (x86)\Microsoft Visual Studio\2019\Community\VC\Tools\MSVC\14.27.29110\include\sstream
; Line 117
	lea	ecx, DWORD PTR [edi+1]
	pop	edi
	mov	BYTE PTR [esi], al
; Line 159
	pop	esi
	mov	DWORD PTR [ebx+56], ecx
	pop	ebx
	mov	esp, ebp
	pop	ebp
	ret	4
$LN86@overflow:
; File C:\Program Files (x86)\Microsoft Visual Studio\2019\Community\VC\Tools\MSVC\14.27.29110\include\streambuf
; Line 181
	mov	eax, DWORD PTR [ebx+12]
	mov	eax, DWORD PTR [eax]
; File C:\Program Files (x86)\Microsoft Visual Studio\2019\Community\VC\Tools\MSVC\14.27.29110\include\sstream
; Line 129
	sub	ecx, eax
	neg	edi
; File C:\Program Files (x86)\Microsoft Visual Studio\2019\Community\VC\Tools\MSVC\14.27.29110\include\streambuf
; Line 181
	mov	DWORD PTR __Back_shift$1$[ebp], eax
; File C:\Program Files (x86)\Microsoft Visual Studio\2019\Community\VC\Tools\MSVC\14.27.29110\include\sstream
; Line 129
	sbb	edi, edi
	and	edi, ecx
	cmp	edi, 32					; 00000020H
	jae	SHORT $LN6@overflow
; Line 130
	mov	eax, 32					; 00000020H
; File C:\Program Files (x86)\Microsoft Visual Studio\2019\Community\VC\Tools\MSVC\14.27.29110\include\xmemory
; Line 77
	push	eax
; File C:\Program Files (x86)\Microsoft Visual Studio\2019\Community\VC\Tools\MSVC\14.27.29110\include\sstream
; Line 130
	mov	DWORD PTR __Newsize$1$[ebp], eax
; File C:\Program Files (x86)\Microsoft Visual Studio\2019\Community\VC\Tools\MSVC\14.27.29110\include\xmemory
; Line 77
	call	??2@YAPAXI@Z				; operator new
	add	esp, 4
; Line 206
	mov	esi, eax
	jmp	SHORT $LN32@overflow
$LN6@overflow:
; File C:\Program Files (x86)\Microsoft Visual Studio\2019\Community\VC\Tools\MSVC\14.27.29110\include\sstream
; Line 131
	cmp	edi, 1073741823				; 3fffffffH
	jae	SHORT $LN8@overflow
; Line 132
	lea	eax, DWORD PTR [edi+edi]
	mov	DWORD PTR __Newsize$1$[ebp], eax
	mov	ecx, eax
; File C:\Program Files (x86)\Microsoft Visual Studio\2019\Community\VC\Tools\MSVC\14.27.29110\include\xmemory
; Line 200
	cmp	eax, 4096				; 00001000H
	jb	SHORT $LN33@overflow
; Line 115
	lea	eax, DWORD PTR [ecx+35]
	mov	DWORD PTR __Newsize$1$[ebp], ecx
; Line 116
	cmp	eax, ecx
	jbe	$LN90@overflow
	jmp	SHORT $LN43@overflow
$LN33@overflow:
; Line 205
	test	eax, eax
	je	SHORT $LN34@overflow
; Line 77
	push	eax
	call	??2@YAPAXI@Z				; operator new
	add	esp, 4
; Line 206
	mov	esi, eax
	jmp	SHORT $LN32@overflow
$LN34@overflow:
; Line 209
	xor	esi, esi
	jmp	SHORT $LN32@overflow
$LN8@overflow:
; File C:\Program Files (x86)\Microsoft Visual Studio\2019\Community\VC\Tools\MSVC\14.27.29110\include\sstream
; Line 133
	cmp	edi, 2147483647				; 7fffffffH
	jae	$LN10@overflow
; Line 134
	mov	DWORD PTR __Newsize$1$[ebp], 2147483647	; 7fffffffH
	mov	eax, -2147483614			; 80000022H
$LN43@overflow:
; File C:\Program Files (x86)\Microsoft Visual Studio\2019\Community\VC\Tools\MSVC\14.27.29110\include\xmemory
; Line 77
	push	eax
	call	??2@YAPAXI@Z				; operator new
	add	esp, 4
; Line 121
	test	eax, eax
	je	$LN75@overflow
; Line 122
	lea	esi, DWORD PTR [eax+35]
	and	esi, -32				; ffffffe0H
; Line 123
	mov	DWORD PTR [esi-4], eax
$LN32@overflow:
; File C:\Program Files (x86)\Microsoft Visual Studio\2019\Community\VC\Tools\MSVC\14.27.29110\include\xstring
; Line 328
	push	edi
	push	DWORD PTR __Back_shift$1$[ebp]
	push	esi
	call	_memcpy
; File C:\Program Files (x86)\Microsoft Visual Studio\2019\Community\VC\Tools\MSVC\14.27.29110\include\sstream
; Line 142
	lea	edx, DWORD PTR [edi+esi]
; File C:\Program Files (x86)\Microsoft Visual Studio\2019\Community\VC\Tools\MSVC\14.27.29110\include\streambuf
; Line 249
	mov	ecx, esi
; File C:\Program Files (x86)\Microsoft Visual Studio\2019\Community\VC\Tools\MSVC\14.27.29110\include\sstream
; Line 143
	lea	eax, DWORD PTR [edx+1]
; File C:\Program Files (x86)\Microsoft Visual Studio\2019\Community\VC\Tools\MSVC\14.27.29110\include\streambuf
; Line 249
	sub	ecx, edx
	add	ecx, DWORD PTR __Newsize$1$[ebp]
; File C:\Program Files (x86)\Microsoft Visual Studio\2019\Community\VC\Tools\MSVC\14.27.29110\include\xstring
; Line 328
	add	esp, 12					; 0000000cH
; File C:\Program Files (x86)\Microsoft Visual Studio\2019\Community\VC\Tools\MSVC\14.27.29110\include\sstream
; Line 143
	mov	DWORD PTR [ebx+56], eax
; File C:\Program Files (x86)\Microsoft Visual Studio\2019\Community\VC\Tools\MSVC\14.27.29110\include\streambuf
; Line 247
	mov	eax, DWORD PTR [ebx+16]
	mov	DWORD PTR [eax], esi
; Line 248
	mov	eax, DWORD PTR [ebx+32]
	mov	DWORD PTR [eax], edx
; Line 249
	mov	eax, DWORD PTR [ebx+48]
	mov	DWORD PTR [eax], ecx
; File C:\Program Files (x86)\Microsoft Visual Studio\2019\Community\VC\Tools\MSVC\14.27.29110\include\sstream
; Line 146
	test	BYTE PTR [ebx+60], 4
	je	SHORT $LN12@overflow
; File C:\Program Files (x86)\Microsoft Visual Studio\2019\Community\VC\Tools\MSVC\14.27.29110\include\streambuf
; Line 206
	mov	eax, DWORD PTR [ebx+12]
	mov	DWORD PTR [eax], esi
; Line 207
	mov	eax, DWORD PTR [ebx+28]
	mov	DWORD PTR [eax], 0
; Line 208
	mov	eax, DWORD PTR [ebx+44]
	mov	DWORD PTR [eax], esi
; File C:\Program Files (x86)\Microsoft Visual Studio\2019\Community\VC\Tools\MSVC\14.27.29110\include\sstream
; Line 148
	jmp	SHORT $LN13@overflow
$LN12@overflow:
; File C:\Program Files (x86)\Microsoft Visual Studio\2019\Community\VC\Tools\MSVC\14.27.29110\include\streambuf
; Line 185
	mov	eax, DWORD PTR [ebx+28]
; File C:\Program Files (x86)\Microsoft Visual Studio\2019\Community\VC\Tools\MSVC\14.27.29110\include\sstream
; Line 149
	mov	edx, DWORD PTR [ebx+56]
; File C:\Program Files (x86)\Microsoft Visual Studio\2019\Community\VC\Tools\MSVC\14.27.29110\include\streambuf
; Line 185
	mov	ecx, DWORD PTR [eax]
; Line 206
	mov	eax, DWORD PTR [ebx+12]
; Line 185
	sub	ecx, DWORD PTR __Back_shift$1$[ebp]
; File C:\Program Files (x86)\Microsoft Visual Studio\2019\Community\VC\Tools\MSVC\14.27.29110\include\sstream
; Line 149
	add	ecx, esi
; File C:\Program Files (x86)\Microsoft Visual Studio\2019\Community\VC\Tools\MSVC\14.27.29110\include\streambuf
; Line 208
	sub	edx, ecx
	mov	DWORD PTR [eax], esi
	mov	eax, DWORD PTR [ebx+28]
	mov	DWORD PTR [eax], ecx
	mov	eax, DWORD PTR [ebx+44]
	mov	DWORD PTR [eax], edx
$LN13@overflow:
; File C:\Program Files (x86)\Microsoft Visual Studio\2019\Community\VC\Tools\MSVC\14.27.29110\include\sstream
; Line 152
	mov	eax, DWORD PTR [ebx+60]
	test	al, 1
	je	SHORT $LN68@overflow
; File C:\Program Files (x86)\Microsoft Visual Studio\2019\Community\VC\Tools\MSVC\14.27.29110\include\xmemory
; Line 216
	mov	eax, DWORD PTR __Back_shift$1$[ebp]
	cmp	edi, 4096				; 00001000H
	jb	SHORT $LN78@overflow
; Line 137
	mov	ecx, DWORD PTR [eax-4]
	add	edi, 35					; 00000023H
; Line 150
	sub	eax, ecx
; Line 151
	add	eax, -4					; fffffffcH
	cmp	eax, 31					; 0000001fH
	ja	SHORT $LN75@overflow
; Line 152
	mov	eax, ecx
$LN78@overflow:
; Line 221
	push	edi
	push	eax
	call	??3@YAXPAXI@Z				; operator delete
	mov	eax, DWORD PTR [ebx+60]
	add	esp, 8
$LN68@overflow:
; File C:\Program Files (x86)\Microsoft Visual Studio\2019\Community\VC\Tools\MSVC\14.27.29110\include\sstream
; Line 156
	or	eax, 1
	mov	DWORD PTR [ebx+60], eax
; File C:\Program Files (x86)\Microsoft Visual Studio\2019\Community\VC\Tools\MSVC\14.27.29110\include\streambuf
; Line 253
	mov	eax, DWORD PTR [ebx+48]
	pop	edi
; File C:\Program Files (x86)\Microsoft Visual Studio\2019\Community\VC\Tools\MSVC\14.27.29110\include\sstream
; Line 159
	pop	esi
; File C:\Program Files (x86)\Microsoft Visual Studio\2019\Community\VC\Tools\MSVC\14.27.29110\include\streambuf
; Line 253
	dec	DWORD PTR [eax]
; Line 254
	mov	ecx, DWORD PTR [ebx+32]
; File C:\Program Files (x86)\Microsoft Visual Studio\2019\Community\VC\Tools\MSVC\14.27.29110\include\sstream
; Line 159
	pop	ebx
; File C:\Program Files (x86)\Microsoft Visual Studio\2019\Community\VC\Tools\MSVC\14.27.29110\include\streambuf
; Line 254
	mov	edx, DWORD PTR [ecx]
	lea	eax, DWORD PTR [edx+1]
	mov	DWORD PTR [ecx], eax
; File C:\Program Files (x86)\Microsoft Visual Studio\2019\Community\VC\Tools\MSVC\14.27.29110\include\sstream
; Line 157
	mov	eax, DWORD PTR __Meta$[ebp]
	mov	BYTE PTR [edx], al
; Line 159
	mov	esp, ebp
	pop	ebp
	ret	4
$LN10@overflow:
	pop	edi
	pop	esi
	or	eax, -1
	pop	ebx
	mov	esp, ebp
	pop	ebp
	ret	4
$LN90@overflow:
; File C:\Program Files (x86)\Microsoft Visual Studio\2019\Community\VC\Tools\MSVC\14.27.29110\include\xmemory
; Line 117
	call	?_Throw_bad_array_new_length@std@@YAXXZ	; std::_Throw_bad_array_new_length
$LN75@overflow:
; Line 151
	call	__invalid_parameter_noinfo_noreturn
$LN88@overflow:
	int	3
?overflow@?$basic_stringbuf@DU?$char_traits@D@std@@V?$allocator@D@2@@std@@MAEHH@Z ENDP ; std::basic_stringbuf<char,std::char_traits<char>,std::allocator<char> >::overflow
_TEXT	ENDS
; Function compile flags: /Ogtp
;	COMDAT ??1?$basic_stringbuf@DU?$char_traits@D@std@@V?$allocator@D@2@@std@@UAE@XZ
_TEXT	SEGMENT
??1?$basic_stringbuf@DU?$char_traits@D@std@@V?$allocator@D@2@@std@@UAE@XZ PROC ; std::basic_stringbuf<char,std::char_traits<char>,std::allocator<char> >::~basic_stringbuf<char,std::char_traits<char>,std::allocator<char> >, COMDAT
; _this$ = ecx
; File C:\Program Files (x86)\Microsoft Visual Studio\2019\Community\VC\Tools\MSVC\14.27.29110\include\sstream
; Line 69
	push	esi
	mov	esi, ecx
; Line 330
	test	BYTE PTR [esi+60], 1
; Line 69
	mov	DWORD PTR [esi], OFFSET ??_7?$basic_stringbuf@DU?$char_traits@D@std@@V?$allocator@D@2@@std@@6B@
; Line 330
	je	SHORT $LN22@basic_stri
; File C:\Program Files (x86)\Microsoft Visual Studio\2019\Community\VC\Tools\MSVC\14.27.29110\include\streambuf
; Line 193
	mov	eax, DWORD PTR [esi+32]
; File C:\Program Files (x86)\Microsoft Visual Studio\2019\Community\VC\Tools\MSVC\14.27.29110\include\sstream
; Line 331
	mov	ecx, DWORD PTR [eax]
	test	ecx, ecx
	je	SHORT $LN6@basic_stri
; File C:\Program Files (x86)\Microsoft Visual Studio\2019\Community\VC\Tools\MSVC\14.27.29110\include\streambuf
; Line 212
	mov	eax, DWORD PTR [esi+48]
	mov	edx, DWORD PTR [eax]
	add	edx, ecx
; File C:\Program Files (x86)\Microsoft Visual Studio\2019\Community\VC\Tools\MSVC\14.27.29110\include\sstream
; Line 331
	jmp	SHORT $LN7@basic_stri
$LN6@basic_stri:
; File C:\Program Files (x86)\Microsoft Visual Studio\2019\Community\VC\Tools\MSVC\14.27.29110\include\streambuf
; Line 197
	mov	eax, DWORD PTR [esi+44]
	mov	ecx, DWORD PTR [esi+28]
	mov	edx, DWORD PTR [eax]
	add	edx, DWORD PTR [ecx]
$LN7@basic_stri:
; Line 181
	mov	eax, DWORD PTR [esi+12]
; File C:\Program Files (x86)\Microsoft Visual Studio\2019\Community\VC\Tools\MSVC\14.27.29110\include\sstream
; Line 331
	mov	eax, DWORD PTR [eax]
	sub	edx, eax
; File C:\Program Files (x86)\Microsoft Visual Studio\2019\Community\VC\Tools\MSVC\14.27.29110\include\xmemory
; Line 216
	cmp	edx, 4096				; 00001000H
	jb	SHORT $LN32@basic_stri
; Line 137
	mov	ecx, DWORD PTR [eax-4]
	add	edx, 35					; 00000023H
; Line 150
	sub	eax, ecx
; Line 151
	add	eax, -4					; fffffffcH
	cmp	eax, 31					; 0000001fH
	ja	SHORT $LN29@basic_stri
; Line 152
	mov	eax, ecx
$LN32@basic_stri:
; Line 221
	push	edx
	push	eax
	call	??3@YAXPAXI@Z				; operator delete
	add	esp, 8
$LN22@basic_stri:
; File C:\Program Files (x86)\Microsoft Visual Studio\2019\Community\VC\Tools\MSVC\14.27.29110\include\streambuf
; Line 206
	mov	eax, DWORD PTR [esi+12]
	mov	DWORD PTR [eax], 0
; Line 207
	mov	eax, DWORD PTR [esi+28]
	mov	DWORD PTR [eax], 0
