; Listing generated by Microsoft (R) Optimizing Compiler Version 19.27.29111.0 

	TITLE	f:\windowsandbox\windowsandbox\src\game.cpp
	.686P
	.XMM
	include listing.inc
	.model	flat

INCLUDELIB OLDNAMES

PUBLIC	??_C@_0P@BFJJIPJJ@Default?5Window@		; `string'
;	COMDAT ??_C@_0P@BFJJIPJJ@Default?5Window@
CONST	SEGMENT
??_C@_0P@BFJJIPJJ@Default?5Window@ DB 'Default Window', 00H ; `string'
PUBLIC	??D?$optional@H@std@@QGBEABHXZ			; std::optional<int>::operator*
PUBLIC	??B?$optional@H@std@@QBE_NXZ			; std::optional<int>::operator bool
PUBLIC	?DoFrame@Game@@AAEXXZ				; Game::DoFrame
PUBLIC	?Go@Game@@QAEHXZ				; Game::Go
PUBLIC	??0Game@@QAE@HHPBD@Z				; Game::Game
; Function compile flags: /Ogtp
;	COMDAT ?Go@Game@@QAEHXZ
_TEXT	SEGMENT
__Freq$2$ = -164					; size = 4
__Freq$2$ = -164					; size = 4
__Freq$2$ = -164					; size = 4
tv442 = -164						; size = 4
$T135 = -160						; size = 4
tv517 = -160						; size = 4
tv515 = -156						; size = 4
tv331 = -156						; size = 4
$T136 = -152						; size = 4
tv436 = -152						; size = 4
_this$GSCopy$1$ = -148					; size = 4
tv447 = -144						; size = 4
$T36 = -140						; size = 12
$T10 = -140						; size = 12
$T7 = -140						; size = 12
$T38 = -128						; size = 68
__Freq$1$ = -56						; size = 4
__Freq$1$ = -56						; size = 4
tv569 = -56						; size = 4
__T0$137 = -56						; size = 8
tv334 = -56						; size = 4
_colour$138 = -56					; size = 16
_msg$139 = -56						; size = 28
__Tgt$140 = -24						; size = 16
__$ArrayPad$ = -4					; size = 4
?Go@Game@@QAEHXZ PROC					; Game::Go, COMDAT
; _this$ = ecx
; File F:\WindowSandbox\WindowSandbox\src\Game.cpp
; Line 8
	push	ebp
	mov	ebp, esp
	and	esp, -8					; fffffff8H
	sub	esp, 164				; 000000a4H
	mov	eax, DWORD PTR ___security_cookie
	xor	eax, esp
	mov	DWORD PTR __$ArrayPad$[esp+164], eax
	push	ebx
	push	esi
	push	edi
	mov	DWORD PTR _this$GSCopy$1$[esp+176], ecx
$LN327@Go:
; File F:\WindowSandbox\WindowSandbox\src\Window.cpp
; Line 80
	mov	edi, DWORD PTR __imp__DispatchMessageA@4
	lea	eax, DWORD PTR _msg$139[esp+176]
	mov	esi, DWORD PTR __imp__TranslateMessage@4
	mov	ebx, DWORD PTR __imp__PeekMessageA@20
	push	1
	push	0
	push	0
	push	0
	push	eax
	call	ebx
	test	eax, eax
	je	SHORT $LN8@Go
	npad	10
$LL7@Go:
; Line 81
	cmp	DWORD PTR _msg$139[esp+180], 18		; 00000012H
	je	$LN306@Go
; Line 84
	lea	eax, DWORD PTR _msg$139[esp+176]
	push	eax
	call	esi
; Line 85
	lea	eax, DWORD PTR _msg$139[esp+176]
	push	eax
	call	edi
	push	1
	push	0
	push	0
	push	0
	lea	eax, DWORD PTR _msg$139[esp+192]
	push	eax
	call	ebx
	test	eax, eax
	jne	SHORT $LL7@Go
$LN8@Go:
; File C:\Program Files (x86)\Microsoft Visual Studio\2019\Community\VC\Tools\MSVC\14.27.29110\include\memory
; Line 2537
	mov	ebx, DWORD PTR _this$GSCopy$1$[esp+176]
	mov	edx, DWORD PTR [ebx+124]
	test	edx, edx
; File F:\WindowSandbox\WindowSandbox\src\Window.cpp
; Line 72
	je	$LN309@Go
; File F:\WindowSandbox\WindowSandbox\src\Graphics.cpp
; Line 224
	mov	eax, DWORD PTR [edx+8]
	lea	esi, DWORD PTR _colour$138[esp+176]
	movaps	xmm0, XMMWORD PTR __xmm@3f8000003f0000003f0000003f000000
	push	esi
	push	DWORD PTR [edx+12]
	movups	XMMWORD PTR _colour$138[esp+184], xmm0
	mov	ecx, DWORD PTR [eax]
	push	eax
	call	DWORD PTR [ecx+200]
; File C:\Program Files (x86)\Microsoft Visual Studio\2019\Community\VC\Tools\MSVC\14.27.29110\include\memory
; Line 2537
	mov	eax, DWORD PTR [ebx+124]
	mov	DWORD PTR tv569[esp+176], eax
	test	eax, eax
; File F:\WindowSandbox\WindowSandbox\src\Window.cpp
; Line 72
	je	$LN310@Go
	movd	xmm0, DWORD PTR [ebx+88]
; File F:\WindowSandbox\WindowSandbox\src\Game.cpp
; Line 21
	movss	xmm1, DWORD PTR __real@3f800000
	cvtdq2ps xmm0, xmm0
	mulss	xmm0, DWORD PTR __real@3b800000
	subss	xmm1, xmm0
	movd	xmm0, DWORD PTR [ebx+84]
	cvtdq2ps xmm0, xmm0
	movss	DWORD PTR tv515[esp+176], xmm1
	mulss	xmm0, DWORD PTR __real@3b800000
	subss	xmm0, DWORD PTR __real@3f800000
	movss	DWORD PTR tv517[esp+176], xmm0
; File C:\Program Files (x86)\Microsoft Visual Studio\2019\Community\VC\Tools\MSVC\14.27.29110\include\chrono
; Line 607
	call	__Query_perf_frequency
	mov	ebx, eax
	mov	edi, edx
	mov	DWORD PTR __Freq$2$[esp+176], ebx
; Line 608
	call	__Query_perf_counter
; Line 616
	push	ebx
	push	edi
	push	ebx
	push	edx
	push	eax
	call	__alldvrm
	mov	esi, ebx
	pop	ebx
	push	0
	push	1000000000				; 3b9aca00H
	push	esi
	push	ecx
	mov	DWORD PTR tv436[esp+192], eax
	mov	ebx, edx
	call	__allmul
	push	edi
	push	DWORD PTR __Freq$2$[esp+180]
	push	edx
	push	eax
	call	__alldiv
	mov	edi, eax
	mov	esi, edx
	mov	eax, DWORD PTR _this$GSCopy$1$[esp+176]
	push	0
	push	1000000000				; 3b9aca00H
	push	ebx
	sub	edi, DWORD PTR [eax+128]
	push	DWORD PTR tv436[esp+188]
	sbb	esi, DWORD PTR [eax+132]
	call	__allmul
; Line 195
	add	edi, eax
; Line 82
	mov	ecx, edi
; Line 195
	adc	edx, esi
; Line 82
	call	__ltod3
	xorps	xmm1, xmm1
; File F:\WindowSandbox\WindowSandbox\src\Game.cpp
; Line 21
	movss	xmm3, DWORD PTR tv515[esp+176]
; File C:\Program Files (x86)\Microsoft Visual Studio\2019\Community\VC\Tools\MSVC\14.27.29110\include\chrono
; Line 82
	cvtsd2ss xmm1, xmm0
; File F:\WindowSandbox\WindowSandbox\src\Game.cpp
; Line 21
	mov	ecx, DWORD PTR tv569[esp+176]
	movss	xmm2, DWORD PTR tv517[esp+176]
; File C:\Program Files (x86)\Microsoft Visual Studio\2019\Community\VC\Tools\MSVC\14.27.29110\include\chrono
; Line 392
	divss	xmm1, DWORD PTR __real@4e6e6b28
; File F:\WindowSandbox\WindowSandbox\src\Game.cpp
; Line 21
	call	?DrawTriangle@Graphics@@QAEXMMM@Z	; Graphics::DrawTriangle
; File C:\Program Files (x86)\Microsoft Visual Studio\2019\Community\VC\Tools\MSVC\14.27.29110\include\memory
; Line 2537
	mov	eax, DWORD PTR _this$GSCopy$1$[esp+176]
	mov	ecx, DWORD PTR [eax+124]
	test	ecx, ecx
; File F:\WindowSandbox\WindowSandbox\src\Window.cpp
; Line 72
	je	$LN311@Go
; File F:\WindowSandbox\WindowSandbox\src\Graphics.cpp
; Line 219
	mov	ecx, DWORD PTR [ecx+4]
	push	0
	push	1
	push	ecx
	mov	eax, DWORD PTR [ecx]
	call	DWORD PTR [eax+32]
	test	eax, eax
	js	$LN312@Go
; File C:\Program Files (x86)\Microsoft Visual Studio\2019\Community\VC\Tools\MSVC\14.27.29110\include\chrono
; Line 607
	call	__Query_perf_frequency
	mov	esi, eax
	mov	ebx, edx
	mov	DWORD PTR __Freq$2$[esp+176], esi
	mov	DWORD PTR __Freq$1$[esp+176], ebx
; Line 608
	call	__Query_perf_counter
; Line 616
	push	ebx
	push	ebx
	push	esi
	push	edx
	push	eax
	call	__alldvrm
	mov	esi, ebx
	pop	ebx
	push	0
	push	1000000000				; 3b9aca00H
	push	esi
	push	ecx
	mov	ebx, eax
	mov	edi, edx
	call	__allmul
	push	DWORD PTR __Freq$1$[esp+176]
	push	DWORD PTR __Freq$2$[esp+180]
	push	edx
	push	eax
	call	__alldiv
	push	0
	push	1000000000				; 3b9aca00H
	push	edi
	push	ebx
	mov	esi, eax
	mov	DWORD PTR $T135[esp+192], edx
	call	__allmul
; Line 195
	add	esi, eax
	mov	eax, DWORD PTR $T135[esp+176]
	adc	eax, edx
	add	esi, 50000				; 0000c350H
	mov	DWORD PTR $T136[esp+176], esi
	adc	eax, 0
	mov	DWORD PTR $T135[esp+176], eax
$LL128@Go:
; Line 607
	call	__Query_perf_frequency
	mov	esi, eax
	mov	ebx, edx
	mov	DWORD PTR __Freq$2$[esp+176], esi
	mov	DWORD PTR __Freq$1$[esp+176], ebx
; Line 608
	call	__Query_perf_counter
; Line 616
	push	ebx
	push	ebx
	push	esi
	push	edx
	push	eax
	call	__alldvrm
	mov	esi, ebx
	pop	ebx
	push	0
	push	1000000000				; 3b9aca00H
	push	esi
	push	ecx
	mov	ebx, eax
	mov	edi, edx
	call	__allmul
	push	DWORD PTR __Freq$1$[esp+176]
	push	DWORD PTR __Freq$2$[esp+180]
	push	edx
	push	eax
	call	__alldiv
	mov	esi, eax
	mov	DWORD PTR tv331[esp+176], edx
	mov	ecx, 1000000000				; 3b9aca00H
	mov	eax, edi
	mul	ecx
	mov	edx, 1000000000				; 3b9aca00H
	mov	ecx, eax
	mov	eax, ebx
; Line 195
	mov	ebx, DWORD PTR $T135[esp+176]
; Line 615
	mul	edx
	add	ecx, edx
; Line 617
	add	esi, eax
	mov	eax, DWORD PTR tv331[esp+176]
	adc	eax, ecx
	mov	DWORD PTR tv334[esp+176], esi
	mov	DWORD PTR tv331[esp+176], eax
; Line 195
	cmp	eax, ebx
	jg	$LN327@Go
	jl	SHORT $LN324@Go
	cmp	esi, DWORD PTR $T136[esp+176]
; Line 346
	jae	$LN327@Go
$LN324@Go:
; Line 587
	call	__Xtime_get_ticks
; Line 387
	push	0
	push	100					; 00000064H
	push	edx
	push	eax
	call	__allmul
; Line 195
	mov	edi, DWORD PTR $T136[esp+176]
; Line 387
	mov	esi, eax
; Line 195
	sub	edi, DWORD PTR tv334[esp+176]
; Line 387
	mov	DWORD PTR tv442[esp+176], edx
; Line 385
	mov	ecx, edi
; Line 195
	sbb	ebx, DWORD PTR tv331[esp+176]
; Line 385
	mov	edx, ebx
; Line 387
	mov	DWORD PTR tv447[esp+176], esi
; Line 385
	call	__ltod3
; Line 82
	comisd	xmm0, QWORD PTR __real@43088e6d68b00000
; Line 636
	mov	ecx, DWORD PTR tv442[esp+176]
	mov	eax, ecx
	jbe	SHORT $LN162@Go
; Line 126
	add	esi, -1391067136			; ad160000H
	mov	edi, -1391067136			; ad160000H
	mov	ebx, 201165				; 000311cdH
	adc	eax, 201165				; 000311cdH
; Line 638
	jmp	SHORT $LN326@Go
$LN162@Go:
; Line 82
	add	esi, edi
	adc	eax, ebx
$LN326@Go:
; Line 392
	mov	DWORD PTR __T0$137[esp+180], eax
	mov	eax, DWORD PTR tv447[esp+176]
	add	eax, edi
	push	0
	push	1000000000				; 3b9aca00H
	adc	ecx, ebx
	push	ecx
	push	eax
	call	__alldiv
; Line 643
	mov	DWORD PTR __Tgt$140[esp+176], eax
; Line 387
	imul	eax, eax, 1000000000
; Line 643
	mov	DWORD PTR __Tgt$140[esp+180], edx
; Line 82
	sub	esi, eax
; File C:\Program Files (x86)\Microsoft Visual Studio\2019\Community\VC\Tools\MSVC\14.27.29110\include\thread
; Line 164
	lea	eax, DWORD PTR __Tgt$140[esp+176]
	push	eax
; File C:\Program Files (x86)\Microsoft Visual Studio\2019\Community\VC\Tools\MSVC\14.27.29110\include\chrono
; Line 645
	mov	DWORD PTR __Tgt$140[esp+188], esi
; File C:\Program Files (x86)\Microsoft Visual Studio\2019\Community\VC\Tools\MSVC\14.27.29110\include\thread
; Line 164
	call	__Thrd_sleep
	add	esp, 4
; Line 165
	jmp	$LL128@Go
$LN306@Go:
; File F:\WindowSandbox\WindowSandbox\src\Game.cpp
; Line 16
	mov	ecx, DWORD PTR __$ArrayPad$[esp+176]
	mov	eax, DWORD PTR _msg$139[esp+184]
	pop	edi
	pop	esi
	pop	ebx
	xor	ecx, esp
	call	@__security_check_cookie@4
	mov	esp, ebp
	pop	ebp
	ret	0
$LN309@Go:
; File F:\WindowSandbox\WindowSandbox\src\Window.cpp
; Line 73
	push	OFFSET ??_C@_0BD@GOOCPKAF@Graphics?5?$DN?5nullptr@
	lea	ecx, DWORD PTR $T7[esp+180]
	call	??0exception@std@@QAE@QBD@Z		; std::exception::exception
	push	OFFSET __TI1?AVexception@std@@
	lea	eax, DWORD PTR $T7[esp+180]
	push	eax
	call	__CxxThrowException@8
$LN312@Go:
; File F:\WindowSandbox\WindowSandbox\src\Graphics.cpp
; Line 219
	push	eax
	push	ecx
	push	219					; 000000dbH
	lea	ecx, DWORD PTR $T38[esp+188]
	call	??0GraphicsException@Graphics@@QAE@HPBDJ@Z ; Graphics::GraphicsException::GraphicsException
	push	OFFSET __TI3?AVGraphicsException@Graphics@@
	lea	eax, DWORD PTR $T38[esp+180]
	push	eax
	call	__CxxThrowException@8
$LN311@Go:
; File F:\WindowSandbox\WindowSandbox\src\Window.cpp
; Line 73
	push	OFFSET ??_C@_0BD@GOOCPKAF@Graphics?5?$DN?5nullptr@
	lea	ecx, DWORD PTR $T36[esp+180]
	call	??0exception@std@@QAE@QBD@Z		; std::exception::exception
	push	OFFSET __TI1?AVexception@std@@
	lea	eax, DWORD PTR $T36[esp+180]
	push	eax
	call	__CxxThrowException@8
$LN310@Go:
	push	OFFSET ??_C@_0BD@GOOCPKAF@Graphics?5?$DN?5nullptr@
	lea	ecx, DWORD PTR $T10[esp+180]
	call	??0exception@std@@QAE@QBD@Z		; std::exception::exception
	push	OFFSET __TI1?AVexception@std@@
	lea	eax, DWORD PTR $T10[esp+180]
	push	eax
	call	__CxxThrowException@8
$LN325@Go:
	int	3
?Go@Game@@QAEHXZ ENDP					; Game::Go
_TEXT	ENDS
; Function compile flags: /Ogtp
;	COMDAT ?DoFrame@Game@@AAEXXZ
_TEXT	SEGMENT
$T35 = -120						; size = 68
tv328 = -44						; size = 4
tv267 = -40						; size = 4
tv266 = -36						; size = 4
_this$GSCopy$1$ = -32					; size = 4
__Freq$1$ = -28						; size = 4
$T36 = -24						; size = 4
__Freq$2$ = -24						; size = 4
_colour$37 = -20					; size = 16
$T4 = -16						; size = 12
__$ArrayPad$ = -4					; size = 4
?DoFrame@Game@@AAEXXZ PROC				; Game::DoFrame, COMDAT
; _this$ = ecx
; File F:\WindowSandbox\WindowSandbox\src\Game.cpp
; Line 18
	push	ebp
	mov	ebp, esp
	sub	esp, 124				; 0000007cH
	mov	eax, DWORD PTR ___security_cookie
	xor	eax, ebp
	mov	DWORD PTR __$ArrayPad$[ebp], eax
	push	ebx
	mov	ebx, ecx
	push	esi
	push	edi
	mov	DWORD PTR _this$GSCopy$1$[ebp], ebx
; File C:\Program Files (x86)\Microsoft Visual Studio\2019\Community\VC\Tools\MSVC\14.27.29110\include\memory
; Line 2537
	mov	edx, DWORD PTR [ebx+124]
	test	edx, edx
; File F:\WindowSandbox\WindowSandbox\src\Window.cpp
; Line 72
	je	$LN65@DoFrame
; File F:\WindowSandbox\WindowSandbox\src\Graphics.cpp
; Line 224
	mov	eax, DWORD PTR [edx+8]
	lea	esi, DWORD PTR _colour$37[ebp]
	movaps	xmm0, XMMWORD PTR __xmm@3f8000003f0000003f0000003f000000
	push	esi
	push	DWORD PTR [edx+12]
	movups	XMMWORD PTR _colour$37[ebp], xmm0
	mov	ecx, DWORD PTR [eax]
	push	eax
	call	DWORD PTR [ecx+200]
; File C:\Program Files (x86)\Microsoft Visual Studio\2019\Community\VC\Tools\MSVC\14.27.29110\include\memory
; Line 2537
	mov	eax, DWORD PTR [ebx+124]
	mov	DWORD PTR tv328[ebp], eax
	test	eax, eax
; File F:\WindowSandbox\WindowSandbox\src\Window.cpp
; Line 72
	je	$LN65@DoFrame
; File F:\WindowSandbox\WindowSandbox\src\Game.cpp
; Line 21
	movd	xmm0, DWORD PTR [ebx+88]
	movss	xmm3, DWORD PTR __real@3f800000
	cvtdq2ps xmm0, xmm0
	mulss	xmm0, DWORD PTR __real@3b800000
	subss	xmm3, xmm0
	movd	xmm0, DWORD PTR [ebx+84]
	cvtdq2ps xmm0, xmm0
	movss	DWORD PTR tv266[ebp], xmm3
	mulss	xmm0, DWORD PTR __real@3b800000
	subss	xmm0, DWORD PTR __real@3f800000
	movss	DWORD PTR tv267[ebp], xmm0
; File C:\Program Files (x86)\Microsoft Visual Studio\2019\Community\VC\Tools\MSVC\14.27.29110\include\chrono
; Line 607
	call	__Query_perf_frequency
	mov	esi, eax
	mov	ebx, edx
	mov	DWORD PTR __Freq$2$[ebp], esi
	mov	DWORD PTR __Freq$1$[ebp], ebx
; Line 608
	call	__Query_perf_counter
; Line 616
	push	ebx
	push	ebx
	push	esi
	push	edx
	push	eax
	call	__alldvrm
	mov	esi, ebx
	pop	ebx
	push	0
	push	1000000000				; 3b9aca00H
	push	esi
	push	ecx
	mov	ebx, eax
	mov	edi, edx
	call	__allmul
	push	DWORD PTR __Freq$1$[ebp]
	push	DWORD PTR __Freq$2$[ebp]
	push	edx
	push	eax
	call	__alldiv
	mov	DWORD PTR $T36[ebp], eax
	mov	esi, edx
	mov	ecx, 1000000000				; 3b9aca00H
	mov	eax, edi
; Line 254
	mov	edi, DWORD PTR _this$GSCopy$1$[ebp]
; Line 615
	mul	ecx
	mov	edx, 1000000000				; 3b9aca00H
	mov	ecx, eax
	mov	eax, ebx
	mul	edx
	add	edx, ecx
; Line 617
	mov	ecx, DWORD PTR $T36[ebp]
	add	ecx, eax
	adc	edx, esi
; Line 254
	sub	ecx, DWORD PTR [edi+128]
	sbb	edx, DWORD PTR [edi+132]
; Line 392
	call	__ltod3
	xorps	xmm1, xmm1
; File F:\WindowSandbox\WindowSandbox\src\Game.cpp
; Line 21
	movss	xmm3, DWORD PTR tv266[ebp]
; File C:\Program Files (x86)\Microsoft Visual Studio\2019\Community\VC\Tools\MSVC\14.27.29110\include\chrono
; Line 392
	cvtsd2ss xmm1, xmm0
; File F:\WindowSandbox\WindowSandbox\src\Game.cpp
; Line 21
	mov	ecx, DWORD PTR tv328[ebp]
	movss	xmm2, DWORD PTR tv267[ebp]
; File C:\Program Files (x86)\Microsoft Visual Studio\2019\Community\VC\Tools\MSVC\14.27.29110\include\chrono
; Line 392
	divss	xmm1, DWORD PTR __real@4e6e6b28
; File F:\WindowSandbox\WindowSandbox\src\Game.cpp
; Line 21
	call	?DrawTriangle@Graphics@@QAEXMMM@Z	; Graphics::DrawTriangle
; File C:\Program Files (x86)\Microsoft Visual Studio\2019\Community\VC\Tools\MSVC\14.27.29110\include\memory
; Line 2537
	mov	ecx, DWORD PTR [edi+124]
	test	ecx, ecx
; File F:\WindowSandbox\WindowSandbox\src\Window.cpp
; Line 72
	je	SHORT $LN65@DoFrame
; File F:\WindowSandbox\WindowSandbox\src\Graphics.cpp
; Line 219
	mov	ecx, DWORD PTR [ecx+4]
	push	0
	push	1
	push	ecx
	mov	eax, DWORD PTR [ecx]
	call	DWORD PTR [eax+32]
	test	eax, eax
	jns	SHORT $LN62@DoFrame
	push	eax
	push	ecx
	push	219					; 000000dbH
	lea	ecx, DWORD PTR $T35[ebp]
	call	??0GraphicsException@Graphics@@QAE@HPBDJ@Z ; Graphics::GraphicsException::GraphicsException
	push	OFFSET __TI3?AVGraphicsException@Graphics@@
	lea	eax, DWORD PTR $T35[ebp]
	jmp	SHORT $LN66@DoFrame
$LN62@DoFrame:
; File F:\WindowSandbox\WindowSandbox\src\Game.cpp
; Line 28
	mov	ecx, DWORD PTR __$ArrayPad$[ebp]
	pop	edi
	pop	esi
	xor	ecx, ebp
	pop	ebx
	call	@__security_check_cookie@4
	mov	esp, ebp
	pop	ebp
	ret	0
$LN65@DoFrame:
	push	OFFSET ??_C@_0BD@GOOCPKAF@Graphics?5?$DN?5nullptr@
	lea	ecx, DWORD PTR $T4[ebp]
	call	??0exception@std@@QAE@QBD@Z		; std::exception::exception
	push	OFFSET __TI1?AVexception@std@@
	lea	eax, DWORD PTR $T4[ebp]
$LN66@DoFrame:
	push	eax
	call	__CxxThrowException@8
$LN64@DoFrame:
	int	3
?DoFrame@Game@@AAEXXZ ENDP				; Game::DoFrame
_TEXT	ENDS
END
