; Listing generated by Microsoft (R) Optimizing Compiler Version 19.27.29111.0 

	TITLE	f:\windowsandbox\windowsandbox\src\mouse.cpp
	.686P
	.XMM
	include listing.inc
	.model	flat

INCLUDELIB OLDNAMES

PUBLIC	??$_Zero_range@PAPAVEvent@Mouse@@@std@@YAPAPAVEvent@Mouse@@QAPAV12@0@Z ; std::_Zero_range<Mouse::Event * *>
PUBLIC	??$_Seek_wrapped@PAPAVEvent@Mouse@@AAPAPAV12@@std@@YAXAAPAPAVEvent@Mouse@@0@Z ; std::_Seek_wrapped<Mouse::Event * *,Mouse::Event * * &>
PUBLIC	??$_Copy_memmove@PAPAVEvent@Mouse@@PAPAV12@@std@@YAPAPAVEvent@Mouse@@PAPAV12@00@Z ; std::_Copy_memmove<Mouse::Event * *,Mouse::Event * *>
PUBLIC	??$_Adl_verify_range@PAPAVEvent@Mouse@@PAPAV12@@std@@YAXABQAPAVEvent@Mouse@@0@Z ; std::_Adl_verify_range<Mouse::Event * *,Mouse::Event * *>
PUBLIC	??$_Get_size_of_n@$0BA@@std@@YAII@Z		; std::_Get_size_of_n<16>
PUBLIC	??$_Destroy_range@PAPAVEvent@Mouse@@@std@@YAXPAPAVEvent@Mouse@@QAPAV12@@Z ; std::_Destroy_range<Mouse::Event * *>
PUBLIC	??$_Uninitialized_value_construct_n_unchecked1@PAPAVEvent@Mouse@@I@std@@YAPAPAVEvent@Mouse@@PAPAV12@I@Z ; std::_Uninitialized_value_construct_n_unchecked1<Mouse::Event * *,unsigned int>
PUBLIC	??$_Get_unwrapped_n@AAPAPAVEvent@Mouse@@H@std@@YAPAPAVEvent@Mouse@@AAPAPAV12@H@Z ; std::_Get_unwrapped_n<Mouse::Event * * &,int>
PUBLIC	??$_Idl_distance@PAPAVEvent@Mouse@@PAPAV12@@std@@YAHABQAPAVEvent@Mouse@@0@Z ; std::_Idl_distance<Mouse::Event * *,Mouse::Event * *>
PUBLIC	??$_Get_unwrapped@ABQAPAVEvent@Mouse@@@std@@YAPAPAVEvent@Mouse@@ABQAPAV12@@Z ; std::_Get_unwrapped<Mouse::Event * * const &>
PUBLIC	??$uninitialized_copy@PAPAVEvent@Mouse@@PAPAV12@@std@@YAPAPAVEvent@Mouse@@QAPAV12@0PAPAV12@@Z ; std::uninitialized_copy<Mouse::Event * *,Mouse::Event * *>
PUBLIC	??$construct@VEvent@Mouse@@V12@@?$_Default_allocator_traits@V?$allocator@VEvent@Mouse@@@std@@@std@@SAXAAV?$allocator@VEvent@Mouse@@@1@QAVEvent@Mouse@@$$QAV34@@Z ; std::_Default_allocator_traits<std::allocator<Mouse::Event> >::construct<Mouse::Event,Mouse::Event>
PUBLIC	??$forward@VEvent@Mouse@@@std@@YA$$QAVEvent@Mouse@@AAV12@@Z ; std::forward<Mouse::Event>
PUBLIC	?_Get_first@?$_Compressed_pair@V?$allocator@VEvent@Mouse@@@std@@V?$_Deque_val@U?$_Deque_simple_types@VEvent@Mouse@@@std@@@2@$00@std@@QBEABV?$allocator@VEvent@Mouse@@@2@XZ ; std::_Compressed_pair<std::allocator<Mouse::Event>,std::_Deque_val<std::_Deque_simple_types<Mouse::Event> >,1>::_Get_first
PUBLIC	?max_size@?$_Default_allocator_traits@V?$allocator@VEvent@Mouse@@@std@@@std@@SAIABV?$allocator@VEvent@Mouse@@@2@@Z ; std::_Default_allocator_traits<std::allocator<Mouse::Event> >::max_size
PUBLIC	?_Getal@?$deque@VEvent@Mouse@@V?$allocator@VEvent@Mouse@@@std@@@std@@ABEABV?$allocator@VEvent@Mouse@@@2@XZ ; std::deque<Mouse::Event,std::allocator<Mouse::Event> >::_Getal
PUBLIC	?allocate@?$allocator@PAVEvent@Mouse@@@std@@QAEPAPAVEvent@Mouse@@I@Z ; std::allocator<Mouse::Event *>::allocate
PUBLIC	?max_size@?$deque@VEvent@Mouse@@V?$allocator@VEvent@Mouse@@@std@@@std@@QBEIXZ ; std::deque<Mouse::Event,std::allocator<Mouse::Event> >::max_size
PUBLIC	?_Xlen@?$deque@VEvent@Mouse@@V?$allocator@VEvent@Mouse@@@std@@@std@@ABEXXZ ; std::deque<Mouse::Event,std::allocator<Mouse::Event> >::_Xlen
PUBLIC	??0?$allocator@VEvent@Mouse@@@std@@QAE@XZ	; std::allocator<Mouse::Event>::allocator<Mouse::Event>
PUBLIC	?allocate@?$allocator@VEvent@Mouse@@@std@@QAEPAVEvent@Mouse@@I@Z ; std::allocator<Mouse::Event>::allocate
PUBLIC	?_Growmap@?$deque@VEvent@Mouse@@V?$allocator@VEvent@Mouse@@@std@@@std@@AAEXI@Z ; std::deque<Mouse::Event,std::allocator<Mouse::Event> >::_Growmap
PUBLIC	??0?$_Deque_val@U?$_Deque_simple_types@VEvent@Mouse@@@std@@@std@@QAE@XZ ; std::_Deque_val<std::_Deque_simple_types<Mouse::Event> >::_Deque_val<std::_Deque_simple_types<Mouse::Event> >
PUBLIC	??$_Emplace_back_internal@VEvent@Mouse@@@?$deque@VEvent@Mouse@@V?$allocator@VEvent@Mouse@@@std@@@std@@AAEX$$QAVEvent@Mouse@@@Z ; std::deque<Mouse::Event,std::allocator<Mouse::Event> >::_Emplace_back_internal<Mouse::Event>
PUBLIC	??$destroy@VEvent@Mouse@@@?$_Default_allocator_traits@V?$allocator@VEvent@Mouse@@@std@@@std@@SAXAAV?$allocator@VEvent@Mouse@@@1@QAVEvent@Mouse@@@Z ; std::_Default_allocator_traits<std::allocator<Mouse::Event> >::destroy<Mouse::Event>
PUBLIC	??$_Unfancy@VEvent@Mouse@@@std@@YAPAVEvent@Mouse@@PAV12@@Z ; std::_Unfancy<Mouse::Event>
PUBLIC	??$_Destroy_in_place@PAVEvent@Mouse@@@std@@YAXAAPAVEvent@Mouse@@@Z ; std::_Destroy_in_place<Mouse::Event *>
PUBLIC	??$?0VEvent@Mouse@@@?$allocator@PAVEvent@Mouse@@@std@@QAE@ABV?$allocator@VEvent@Mouse@@@1@@Z ; std::allocator<Mouse::Event *>::allocator<Mouse::Event *><Mouse::Event>
PUBLIC	??$?0$$V@?$_Compressed_pair@V?$allocator@VEvent@Mouse@@@std@@V?$_Deque_val@U?$_Deque_simple_types@VEvent@Mouse@@@std@@@2@$00@std@@QAE@U_Zero_then_variadic_args_t@1@@Z ; std::_Compressed_pair<std::allocator<Mouse::Event>,std::_Deque_val<std::_Deque_simple_types<Mouse::Event> >,1>::_Compressed_pair<std::allocator<Mouse::Event>,std::_Deque_val<std::_Deque_simple_types<Mouse::Event> >,1><>
PUBLIC	??$?0VEvent@Mouse@@@?$allocator@U_Container_proxy@std@@@std@@QAE@ABV?$allocator@VEvent@Mouse@@@1@@Z ; std::allocator<std::_Container_proxy>::allocator<std::_Container_proxy><Mouse::Event>
PUBLIC	??$move@AAVEvent@Mouse@@@std@@YA$$QAVEvent@Mouse@@AAV12@@Z ; std::move<Mouse::Event &>
PUBLIC	?_Get_data@?$deque@VEvent@Mouse@@V?$allocator@VEvent@Mouse@@@std@@@std@@ABEABV?$_Deque_val@U?$_Deque_simple_types@VEvent@Mouse@@@std@@@2@XZ ; std::deque<Mouse::Event,std::allocator<Mouse::Event> >::_Get_data
PUBLIC	?_Getblock@?$_Deque_val@U?$_Deque_simple_types@VEvent@Mouse@@@std@@@std@@QBEII@Z ; std::_Deque_val<std::_Deque_simple_types<Mouse::Event> >::_Getblock
PUBLIC	?deallocate@?$allocator@VEvent@Mouse@@@std@@QAEXQAVEvent@Mouse@@I@Z ; std::allocator<Mouse::Event>::deallocate
PUBLIC	?deallocate@?$allocator@PAVEvent@Mouse@@@std@@QAEXQAPAVEvent@Mouse@@I@Z ; std::allocator<Mouse::Event *>::deallocate
PUBLIC	?pop_back@?$deque@VEvent@Mouse@@V?$allocator@VEvent@Mouse@@@std@@@std@@QAEXXZ ; std::deque<Mouse::Event,std::allocator<Mouse::Event> >::pop_back
PUBLIC	?_Getblock@?$deque@VEvent@Mouse@@V?$allocator@VEvent@Mouse@@@std@@@std@@ABEII@Z ; std::deque<Mouse::Event,std::allocator<Mouse::Event> >::_Getblock
PUBLIC	?_Orphan_all@?$deque@VEvent@Mouse@@V?$allocator@VEvent@Mouse@@@std@@@std@@AAEXXZ ; std::deque<Mouse::Event,std::allocator<Mouse::Event> >::_Orphan_all
PUBLIC	?_Map@?$deque@VEvent@Mouse@@V?$allocator@VEvent@Mouse@@@std@@@std@@AAEAAPAPAVEvent@Mouse@@XZ ; std::deque<Mouse::Event,std::allocator<Mouse::Event> >::_Map
PUBLIC	?_Mapsize@?$deque@VEvent@Mouse@@V?$allocator@VEvent@Mouse@@@std@@@std@@AAEAAIXZ ; std::deque<Mouse::Event,std::allocator<Mouse::Event> >::_Mapsize
PUBLIC	?_Myoff@?$deque@VEvent@Mouse@@V?$allocator@VEvent@Mouse@@@std@@@std@@AAEAAIXZ ; std::deque<Mouse::Event,std::allocator<Mouse::Event> >::_Myoff
PUBLIC	?_Mysize@?$deque@VEvent@Mouse@@V?$allocator@VEvent@Mouse@@@std@@@std@@AAEAAIXZ ; std::deque<Mouse::Event,std::allocator<Mouse::Event> >::_Mysize
PUBLIC	?_Mysize@?$deque@VEvent@Mouse@@V?$allocator@VEvent@Mouse@@@std@@@std@@ABEABIXZ ; std::deque<Mouse::Event,std::allocator<Mouse::Event> >::_Mysize
PUBLIC	?_Get_first@?$_Compressed_pair@V?$allocator@VEvent@Mouse@@@std@@V?$_Deque_val@U?$_Deque_simple_types@VEvent@Mouse@@@std@@@2@$00@std@@QAEAAV?$allocator@VEvent@Mouse@@@2@XZ ; std::_Compressed_pair<std::allocator<Mouse::Event>,std::_Deque_val<std::_Deque_simple_types<Mouse::Event> >,1>::_Get_first
PUBLIC	?push_back@?$deque@VEvent@Mouse@@V?$allocator@VEvent@Mouse@@@std@@@std@@QAEX$$QAVEvent@Mouse@@@Z ; std::deque<Mouse::Event,std::allocator<Mouse::Event> >::push_back
PUBLIC	?size@?$deque@VEvent@Mouse@@V?$allocator@VEvent@Mouse@@@std@@@std@@QBEIXZ ; std::deque<Mouse::Event,std::allocator<Mouse::Event> >::size
PUBLIC	?empty@?$deque@VEvent@Mouse@@V?$allocator@VEvent@Mouse@@@std@@@std@@QBE_NXZ ; std::deque<Mouse::Event,std::allocator<Mouse::Event> >::empty
PUBLIC	?pop_front@?$deque@VEvent@Mouse@@V?$allocator@VEvent@Mouse@@@std@@@std@@QAEXXZ ; std::deque<Mouse::Event,std::allocator<Mouse::Event> >::pop_front
PUBLIC	?_Tidy@?$deque@VEvent@Mouse@@V?$allocator@VEvent@Mouse@@@std@@@std@@AAEXXZ ; std::deque<Mouse::Event,std::allocator<Mouse::Event> >::_Tidy
PUBLIC	?_Getal@?$deque@VEvent@Mouse@@V?$allocator@VEvent@Mouse@@@std@@@std@@AAEAAV?$allocator@VEvent@Mouse@@@2@XZ ; std::deque<Mouse::Event,std::allocator<Mouse::Event> >::_Getal
PUBLIC	?_Get_data@?$deque@VEvent@Mouse@@V?$allocator@VEvent@Mouse@@@std@@@std@@AAEAAV?$_Deque_val@U?$_Deque_simple_types@VEvent@Mouse@@@std@@@2@XZ ; std::deque<Mouse::Event,std::allocator<Mouse::Event> >::_Get_data
PUBLIC	??0?$deque@VEvent@Mouse@@V?$allocator@VEvent@Mouse@@@std@@@std@@QAE@XZ ; std::deque<Mouse::Event,std::allocator<Mouse::Event> >::deque<Mouse::Event,std::allocator<Mouse::Event> >
PUBLIC	??1?$deque@VEvent@Mouse@@V?$allocator@VEvent@Mouse@@@std@@@std@@QAE@XZ ; std::deque<Mouse::Event,std::allocator<Mouse::Event> >::~deque<Mouse::Event,std::allocator<Mouse::Event> >
PUBLIC	?size@?$queue@VEvent@Mouse@@V?$deque@VEvent@Mouse@@V?$allocator@VEvent@Mouse@@@std@@@std@@@std@@QBEIXZ ; std::queue<Mouse::Event,std::deque<Mouse::Event,std::allocator<Mouse::Event> > >::size
PUBLIC	?push@?$queue@VEvent@Mouse@@V?$deque@VEvent@Mouse@@V?$allocator@VEvent@Mouse@@@std@@@std@@@std@@QAEX$$QAVEvent@Mouse@@@Z ; std::queue<Mouse::Event,std::deque<Mouse::Event,std::allocator<Mouse::Event> > >::push
PUBLIC	?pop@?$queue@VEvent@Mouse@@V?$deque@VEvent@Mouse@@V?$allocator@VEvent@Mouse@@@std@@@std@@@std@@QAEXXZ ; std::queue<Mouse::Event,std::deque<Mouse::Event,std::allocator<Mouse::Event> > >::pop
PUBLIC	?TrimBuffer@Mouse@@AAEXXZ			; Mouse::TrimBuffer
PUBLIC	?OnWheelDown@Mouse@@AAEXHH@Z			; Mouse::OnWheelDown
PUBLIC	?OnWheelUp@Mouse@@AAEXHH@Z			; Mouse::OnWheelUp
PUBLIC	?OnMouseMove@Mouse@@AAEXHH@Z			; Mouse::OnMouseMove
PUBLIC	?OnMiddleReleased@Mouse@@AAEXHH@Z		; Mouse::OnMiddleReleased
PUBLIC	?OnMiddlePressed@Mouse@@AAEXHH@Z		; Mouse::OnMiddlePressed
PUBLIC	?OnRightReleased@Mouse@@AAEXHH@Z		; Mouse::OnRightReleased
PUBLIC	?OnRightPressed@Mouse@@AAEXHH@Z			; Mouse::OnRightPressed
PUBLIC	?OnLeftReleased@Mouse@@AAEXHH@Z			; Mouse::OnLeftReleased
PUBLIC	?OnLeftPressed@Mouse@@AAEXHH@Z			; Mouse::OnLeftPressed
PUBLIC	??1?$queue@VEvent@Mouse@@V?$deque@VEvent@Mouse@@V?$allocator@VEvent@Mouse@@@std@@@std@@@std@@QAE@XZ ; std::queue<Mouse::Event,std::deque<Mouse::Event,std::allocator<Mouse::Event> > >::~queue<Mouse::Event,std::deque<Mouse::Event,std::allocator<Mouse::Event> > >
PUBLIC	??0?$queue@VEvent@Mouse@@V?$deque@VEvent@Mouse@@V?$allocator@VEvent@Mouse@@@std@@@std@@@std@@QAE@XZ ; std::queue<Mouse::Event,std::deque<Mouse::Event,std::allocator<Mouse::Event> > >::queue<Mouse::Event,std::deque<Mouse::Event,std::allocator<Mouse::Event> > >
PUBLIC	??0Event@Mouse@@QAE@W4Type@01@ABV1@@Z		; Mouse::Event::Event
PUBLIC	?GetY@Mouse@@QBEHXZ				; Mouse::GetY
PUBLIC	?GetX@Mouse@@QBEHXZ				; Mouse::GetX
;	COMDAT xdata$x
xdata$x	SEGMENT
__ehfuncinfo$??0?$queue@VEvent@Mouse@@V?$deque@VEvent@Mouse@@V?$allocator@VEvent@Mouse@@@std@@@std@@@std@@QAE@XZ DQ 00000000019930522r ; 2.11987e-315
	DQ	00000000000000000r		; 0
	DQ	00000000000000000r		; 0
	DQ	00000000000000000r		; 0
	DD	05H
xdata$x	ENDS
;	COMDAT xdata$x
xdata$x	SEGMENT
__ehfuncinfo$?OnLeftPressed@Mouse@@AAEXHH@Z DQ 00000000019930522r ; 2.11987e-315
	DQ	00000000000000000r		; 0
	DQ	00000000000000000r		; 0
	DQ	00000000000000000r		; 0
	DD	05H
xdata$x	ENDS
;	COMDAT xdata$x
xdata$x	SEGMENT
__ehfuncinfo$?OnLeftReleased@Mouse@@AAEXHH@Z DQ 00000000019930522r ; 2.11987e-315
	DQ	00000000000000000r		; 0
	DQ	00000000000000000r		; 0
	DQ	00000000000000000r		; 0
	DD	05H
xdata$x	ENDS
;	COMDAT xdata$x
xdata$x	SEGMENT
__ehfuncinfo$?OnRightPressed@Mouse@@AAEXHH@Z DQ 00000000019930522r ; 2.11987e-315
	DQ	00000000000000000r		; 0
	DQ	00000000000000000r		; 0
	DQ	00000000000000000r		; 0
	DD	05H
xdata$x	ENDS
;	COMDAT xdata$x
xdata$x	SEGMENT
__ehfuncinfo$?OnRightReleased@Mouse@@AAEXHH@Z DQ 00000000019930522r ; 2.11987e-315
	DQ	00000000000000000r		; 0
	DQ	00000000000000000r		; 0
	DQ	00000000000000000r		; 0
	DD	05H
xdata$x	ENDS
;	COMDAT xdata$x
xdata$x	SEGMENT
__ehfuncinfo$?OnMiddlePressed@Mouse@@AAEXHH@Z DQ 00000000019930522r ; 2.11987e-315
	DQ	00000000000000000r		; 0
	DQ	00000000000000000r		; 0
	DQ	00000000000000000r		; 0
	DD	05H
xdata$x	ENDS
;	COMDAT xdata$x
xdata$x	SEGMENT
__ehfuncinfo$?OnMiddleReleased@Mouse@@AAEXHH@Z DQ 00000000019930522r ; 2.11987e-315
	DQ	00000000000000000r		; 0
	DQ	00000000000000000r		; 0
	DQ	00000000000000000r		; 0
	DD	05H
xdata$x	ENDS
;	COMDAT xdata$x
xdata$x	SEGMENT
__ehfuncinfo$?OnMouseMove@Mouse@@AAEXHH@Z DQ 00000000019930522r ; 2.11987e-315
	DQ	00000000000000000r		; 0
	DQ	00000000000000000r		; 0
	DQ	00000000000000000r		; 0
	DD	05H
xdata$x	ENDS
;	COMDAT xdata$x
xdata$x	SEGMENT
__ehfuncinfo$?OnWheelUp@Mouse@@AAEXHH@Z DQ 00000000019930522r ; 2.11987e-315
	DQ	00000000000000000r		; 0
	DQ	00000000000000000r		; 0
	DQ	00000000000000000r		; 0
	DD	05H
xdata$x	ENDS
;	COMDAT xdata$x
xdata$x	SEGMENT
__ehfuncinfo$?OnWheelDown@Mouse@@AAEXHH@Z DQ 00000000019930522r ; 2.11987e-315
	DQ	00000000000000000r		; 0
	DQ	00000000000000000r		; 0
	DQ	00000000000000000r		; 0
	DD	05H
; Function compile flags: /Ogtp
;	COMDAT ?GetX@Mouse@@QBEHXZ
_TEXT	SEGMENT
?GetX@Mouse@@QBEHXZ PROC				; Mouse::GetX, COMDAT
; _this$ = ecx
; File F:\WindowSandbox\WindowSandbox\src\Mouse.cpp
; Line 8
	mov	eax, DWORD PTR [ecx+4]
; Line 9
	ret	0
?GetX@Mouse@@QBEHXZ ENDP				; Mouse::GetX
_TEXT	ENDS
; Function compile flags: /Ogtp
;	COMDAT ?GetY@Mouse@@QBEHXZ
_TEXT	SEGMENT
?GetY@Mouse@@QBEHXZ PROC				; Mouse::GetY, COMDAT
; _this$ = ecx
; File F:\WindowSandbox\WindowSandbox\src\Mouse.cpp
; Line 12
	mov	eax, DWORD PTR [ecx+8]
; Line 13
	ret	0
?GetY@Mouse@@QBEHXZ ENDP				; Mouse::GetY
_TEXT	ENDS
END
