; Listing generated by Microsoft (R) Optimizing Compiler Version 19.27.29111.0 

	TITLE	f:\windowsandbox\windowsandbox\src\tools\timer.cpp
	.686P
	.XMM
	include listing.inc
	.model	flat

INCLUDELIB OLDNAMES

EXTRN	__Xtime_get_ticks:PROC
EXTRN	__Query_perf_counter:PROC
EXTRN	__Thrd_sleep:PROC
EXTRN	__Query_perf_frequency:PROC
PUBLIC	??$?0N$0A@@?$duration@NU?$ratio@$00$0DLJKMKAA@@std@@@chrono@std@@QAE@ABN@Z ; std::chrono::duration<double,std::ratio<1,1000000000> >::duration<double,std::ratio<1,1000000000> ><double,0>
PUBLIC	??$duration_cast@V?$duration@NU?$ratio@$00$0DLJKMKAA@@std@@@chrono@std@@_JU?$ratio@$00$0DLJKMKAA@@3@$0A@@chrono@std@@YA?AV?$duration@NU?$ratio@$00$0DLJKMKAA@@std@@@01@ABV?$duration@_JU?$ratio@$00$0DLJKMKAA@@std@@@01@@Z ; std::chrono::duration_cast<std::chrono::duration<double,std::ratio<1,1000000000> >,__int64,std::ratio<1,1000000000>,0>
PUBLIC	??$duration_cast@V?$duration@NU?$ratio@$00$0DLJKMKAA@@std@@@chrono@std@@NU?$ratio@$00$00@3@$0A@@chrono@std@@YA?AV?$duration@NU?$ratio@$00$0DLJKMKAA@@std@@@01@ABV?$duration@NU?$ratio@$00$00@std@@@01@@Z ; std::chrono::duration_cast<std::chrono::duration<double,std::ratio<1,1000000000> >,double,std::ratio<1,1>,0>
PUBLIC	?count@?$duration@_JU?$ratio@$00$0PECEA@@std@@@chrono@std@@QBE_JXZ ; std::chrono::duration<__int64,std::ratio<1,1000000> >::count
PUBLIC	??$?0_JU?$ratio@$00$0DLJKMKAA@@std@@$0A@@?$duration@NU?$ratio@$00$0DLJKMKAA@@std@@@chrono@std@@QAE@ABV?$duration@_JU?$ratio@$00$0DLJKMKAA@@std@@@12@@Z ; std::chrono::duration<double,std::ratio<1,1000000000> >::duration<double,std::ratio<1,1000000000> ><__int64,std::ratio<1,1000000000>,0>
PUBLIC	??$?0NU?$ratio@$00$00@std@@$0A@@?$duration@NU?$ratio@$00$0DLJKMKAA@@std@@@chrono@std@@QAE@ABV?$duration@NU?$ratio@$00$00@std@@@12@@Z ; std::chrono::duration<double,std::ratio<1,1000000000> >::duration<double,std::ratio<1,1000000000> ><double,std::ratio<1,1>,0>
PUBLIC	??$duration_cast@V?$duration@_JU?$ratio@$00$0DLJKMKAA@@std@@@chrono@std@@_JU?$ratio@$00$0JIJGIA@@3@$0A@@chrono@std@@YA?AV?$duration@_JU?$ratio@$00$0DLJKMKAA@@std@@@01@ABV?$duration@_JU?$ratio@$00$0JIJGIA@@std@@@01@@Z ; std::chrono::duration_cast<std::chrono::duration<__int64,std::ratio<1,1000000000> >,__int64,std::ratio<1,10000000>,0>
PUBLIC	??$?M_JU?$ratio@$00$0DLJKMKAA@@std@@_JU01@@chrono@std@@YA_NABV?$duration@_JU?$ratio@$00$0DLJKMKAA@@std@@@01@0@Z ; std::chrono::operator<<__int64,std::ratio<1,1000000000>,__int64,std::ratio<1,1000000000> >
PUBLIC	??$duration_cast@V?$duration@_JU?$ratio@$00$0DLJKMKAA@@std@@@chrono@std@@_JU?$ratio@$00$0PECEA@@3@$0A@@chrono@std@@YA?AV?$duration@_JU?$ratio@$00$0DLJKMKAA@@std@@@01@ABV?$duration@_JU?$ratio@$00$0PECEA@@std@@@01@@Z ; std::chrono::duration_cast<std::chrono::duration<__int64,std::ratio<1,1000000000> >,__int64,std::ratio<1,1000000>,0>
PUBLIC	??$duration_cast@V?$duration@_JU?$ratio@$00$0DLJKMKAA@@std@@@chrono@std@@_JU?$ratio@$00$00@3@$0A@@chrono@std@@YA?AV?$duration@_JU?$ratio@$00$0DLJKMKAA@@std@@@01@ABV?$duration@_JU?$ratio@$00$00@std@@@01@@Z ; std::chrono::duration_cast<std::chrono::duration<__int64,std::ratio<1,1000000000> >,__int64,std::ratio<1,1>,0>
PUBLIC	??$?0_J$0A@@?$duration@_JU?$ratio@$00$00@std@@@chrono@std@@QAE@AB_J@Z ; std::chrono::duration<__int64,std::ratio<1,1> >::duration<__int64,std::ratio<1,1> ><__int64,0>
PUBLIC	?count@?$duration@NU?$ratio@$00$0DLJKMKAA@@std@@@chrono@std@@QBENXZ ; std::chrono::duration<double,std::ratio<1,1000000000> >::count
PUBLIC	??$duration_cast@V?$duration@_JU?$ratio@$00$0DLJKMKAA@@std@@@chrono@std@@_JU?$ratio@$00$0DLJKMKAA@@3@$0A@@chrono@std@@YA?AV?$duration@_JU?$ratio@$00$0DLJKMKAA@@std@@@01@ABV201@@Z ; std::chrono::duration_cast<std::chrono::duration<__int64,std::ratio<1,1000000000> >,__int64,std::ratio<1,1000000000>,0>
PUBLIC	??$?MNU?$ratio@$00$00@std@@_JU?$ratio@$00$0DLJKMKAA@@1@@chrono@std@@YA_NABV?$duration@NU?$ratio@$00$00@std@@@01@ABV?$duration@_JU?$ratio@$00$0DLJKMKAA@@std@@@01@@Z ; std::chrono::operator<<double,std::ratio<1,1>,__int64,std::ratio<1,1000000000> >
PUBLIC	??$?0_JU?$ratio@$00$0JIJGIA@@std@@$0A@@?$duration@_JU?$ratio@$00$0DLJKMKAA@@std@@@chrono@std@@QAE@ABV?$duration@_JU?$ratio@$00$0JIJGIA@@std@@@12@@Z ; std::chrono::duration<__int64,std::ratio<1,1000000000> >::duration<__int64,std::ratio<1,1000000000> ><__int64,std::ratio<1,10000000>,0>
PUBLIC	??$?MUsteady_clock@chrono@std@@V?$duration@_JU?$ratio@$00$0DLJKMKAA@@std@@@12@V312@@chrono@std@@YA_NABV?$time_point@Usteady_clock@chrono@std@@V?$duration@_JU?$ratio@$00$0DLJKMKAA@@std@@@23@@01@0@Z ; std::chrono::operator<<std::chrono::steady_clock,std::chrono::duration<__int64,std::ratio<1,1000000000> >,std::chrono::duration<__int64,std::ratio<1,1000000000> > >
PUBLIC	??$?0_JU?$ratio@$00$0PECEA@@std@@$0A@@?$duration@_JU?$ratio@$00$0DLJKMKAA@@std@@@chrono@std@@QAE@ABV?$duration@_JU?$ratio@$00$0PECEA@@std@@@12@@Z ; std::chrono::duration<__int64,std::ratio<1,1000000000> >::duration<__int64,std::ratio<1,1000000000> ><__int64,std::ratio<1,1000000>,0>
PUBLIC	??$?0_JU?$ratio@$00$00@std@@$0A@@?$duration@_JU?$ratio@$00$0DLJKMKAA@@std@@@chrono@std@@QAE@ABV?$duration@_JU?$ratio@$00$00@std@@@12@@Z ; std::chrono::duration<__int64,std::ratio<1,1000000000> >::duration<__int64,std::ratio<1,1000000000> ><__int64,std::ratio<1,1>,0>
PUBLIC	??$duration_cast@V?$duration@_JU?$ratio@$00$00@std@@@chrono@std@@_JU?$ratio@$00$0DLJKMKAA@@3@$0A@@chrono@std@@YA?AV?$duration@_JU?$ratio@$00$00@std@@@01@ABV?$duration@_JU?$ratio@$00$0DLJKMKAA@@std@@@01@@Z ; std::chrono::duration_cast<std::chrono::duration<__int64,std::ratio<1,1> >,__int64,std::ratio<1,1000000000>,0>
PUBLIC	??Y?$duration@_JU?$ratio@$00$0DLJKMKAA@@std@@@chrono@std@@QAEAAV012@ABV012@@Z ; std::chrono::duration<__int64,std::ratio<1,1000000000> >::operator+=
PUBLIC	??Z?$duration@_JU?$ratio@$00$0DLJKMKAA@@std@@@chrono@std@@QAEAAV012@ABV012@@Z ; std::chrono::duration<__int64,std::ratio<1,1000000000> >::operator-=
PUBLIC	?count@?$duration@_JU?$ratio@$00$00@std@@@chrono@std@@QBE_JXZ ; std::chrono::duration<__int64,std::ratio<1,1> >::count
PUBLIC	??$_To_xtime_10_day_clamped@_JU?$ratio@$00$0DLJKMKAA@@std@@@std@@YA_NAAUxtime@@ABV?$duration@_JU?$ratio@$00$0DLJKMKAA@@std@@@chrono@0@@Z ; std::_To_xtime_10_day_clamped<__int64,std::ratio<1,1000000000> >
PUBLIC	??$?NUsteady_clock@chrono@std@@V?$duration@_JU?$ratio@$00$0DLJKMKAA@@std@@@12@V312@@chrono@std@@YA_NABV?$time_point@Usteady_clock@chrono@std@@V?$duration@_JU?$ratio@$00$0DLJKMKAA@@std@@@23@@01@0@Z ; std::chrono::operator<=<std::chrono::steady_clock,std::chrono::duration<__int64,std::ratio<1,1000000000> >,std::chrono::duration<__int64,std::ratio<1,1000000000> > >
PUBLIC	??$?H_JU?$ratio@$00$0DLJKMKAA@@std@@_JU?$ratio@$00$0PECEA@@1@@chrono@std@@YA?AV?$duration@_JU?$ratio@$00$0DLJKMKAA@@std@@@01@ABV201@ABV?$duration@_JU?$ratio@$00$0PECEA@@std@@@01@@Z ; std::chrono::operator+<__int64,std::ratio<1,1000000000>,__int64,std::ratio<1,1000000> >
PUBLIC	??$?0M$0A@@?$duration@MU?$ratio@$00$00@std@@@chrono@std@@QAE@ABM@Z ; std::chrono::duration<float,std::ratio<1,1> >::duration<float,std::ratio<1,1> ><float,0>
PUBLIC	??$sleep_until@Usteady_clock@chrono@std@@V?$duration@_JU?$ratio@$00$0DLJKMKAA@@std@@@23@@this_thread@std@@YAXABV?$time_point@Usteady_clock@chrono@std@@V?$duration@_JU?$ratio@$00$0DLJKMKAA@@std@@@23@@chrono@1@@Z ; std::this_thread::sleep_until<std::chrono::steady_clock,std::chrono::duration<__int64,std::ratio<1,1000000000> > >
PUBLIC	??$?HUsteady_clock@chrono@std@@V?$duration@_JU?$ratio@$00$0DLJKMKAA@@std@@@12@_JU?$ratio@$00$0PECEA@@2@@chrono@std@@YA?AV?$time_point@Usteady_clock@chrono@std@@V?$duration@_JU?$ratio@$00$0DLJKMKAA@@std@@@23@@01@ABV201@ABV?$duration@_JU?$ratio@$00$0PECEA@@std@@@01@@Z ; std::chrono::operator+<std::chrono::steady_clock,std::chrono::duration<__int64,std::ratio<1,1000000000> >,__int64,std::ratio<1,1000000> >
PUBLIC	??$duration_cast@V?$duration@MU?$ratio@$00$00@std@@@chrono@std@@_JU?$ratio@$00$0DLJKMKAA@@3@$0A@@chrono@std@@YA?AV?$duration@MU?$ratio@$00$00@std@@@01@ABV?$duration@_JU?$ratio@$00$0DLJKMKAA@@std@@@01@@Z ; std::chrono::duration_cast<std::chrono::duration<float,std::ratio<1,1> >,__int64,std::ratio<1,1000000000>,0>
PUBLIC	??$?G_JU?$ratio@$00$0DLJKMKAA@@std@@_JU01@@chrono@std@@YA?AV?$duration@_JU?$ratio@$00$0DLJKMKAA@@std@@@01@ABV201@0@Z ; std::chrono::operator-<__int64,std::ratio<1,1000000000>,__int64,std::ratio<1,1000000000> >
PUBLIC	?time_since_epoch@?$time_point@Usteady_clock@chrono@std@@V?$duration@_JU?$ratio@$00$0DLJKMKAA@@std@@@23@@chrono@std@@QBE?AV?$duration@_JU?$ratio@$00$0DLJKMKAA@@std@@@23@XZ ; std::chrono::time_point<std::chrono::steady_clock,std::chrono::duration<__int64,std::ratio<1,1000000000> > >::time_since_epoch
PUBLIC	??$sleep_for@_JU?$ratio@$00$0PECEA@@std@@@this_thread@std@@YAXABV?$duration@_JU?$ratio@$00$0PECEA@@std@@@chrono@1@@Z ; std::this_thread::sleep_for<__int64,std::ratio<1,1000000> >
PUBLIC	??$?0H$0A@@?$duration@_JU?$ratio@$00$0PECEA@@std@@@chrono@std@@QAE@ABH@Z ; std::chrono::duration<__int64,std::ratio<1,1000000> >::duration<__int64,std::ratio<1,1000000> ><int,0>
PUBLIC	??$?0_JU?$ratio@$00$0DLJKMKAA@@std@@$0A@@?$duration@MU?$ratio@$00$00@std@@@chrono@std@@QAE@ABV?$duration@_JU?$ratio@$00$0DLJKMKAA@@std@@@12@@Z ; std::chrono::duration<float,std::ratio<1,1> >::duration<float,std::ratio<1,1> ><__int64,std::ratio<1,1000000000>,0>
PUBLIC	??$?GUsteady_clock@chrono@std@@V?$duration@_JU?$ratio@$00$0DLJKMKAA@@std@@@12@V312@@chrono@std@@YA?AV?$duration@_JU?$ratio@$00$0DLJKMKAA@@std@@@01@ABV?$time_point@Usteady_clock@chrono@std@@V?$duration@_JU?$ratio@$00$0DLJKMKAA@@std@@@23@@01@0@Z ; std::chrono::operator-<std::chrono::steady_clock,std::chrono::duration<__int64,std::ratio<1,1000000000> >,std::chrono::duration<__int64,std::ratio<1,1000000000> > >
PUBLIC	??$?0_J$0A@@?$duration@_JU?$ratio@$00$0JIJGIA@@std@@@chrono@std@@QAE@AB_J@Z ; std::chrono::duration<__int64,std::ratio<1,10000000> >::duration<__int64,std::ratio<1,10000000> ><__int64,0>
PUBLIC	?zero@?$duration_values@_J@chrono@std@@SA_JXZ	; std::chrono::duration_values<__int64>::zero
PUBLIC	?count@?$duration@_JU?$ratio@$00$0JIJGIA@@std@@@chrono@std@@QBE_JXZ ; std::chrono::duration<__int64,std::ratio<1,10000000> >::count
PUBLIC	??0?$time_point@Usystem_clock@chrono@std@@V?$duration@_JU?$ratio@$00$0JIJGIA@@std@@@23@@chrono@std@@QAE@ABV?$duration@_JU?$ratio@$00$0JIJGIA@@std@@@12@@Z ; std::chrono::time_point<std::chrono::system_clock,std::chrono::duration<__int64,std::ratio<1,10000000> > >::time_point<std::chrono::system_clock,std::chrono::duration<__int64,std::ratio<1,10000000> > >
PUBLIC	?time_since_epoch@?$time_point@Usystem_clock@chrono@std@@V?$duration@_JU?$ratio@$00$0JIJGIA@@std@@@23@@chrono@std@@QBE?AV?$duration@_JU?$ratio@$00$0JIJGIA@@std@@@23@XZ ; std::chrono::time_point<std::chrono::system_clock,std::chrono::duration<__int64,std::ratio<1,10000000> > >::time_since_epoch
PUBLIC	?zero@?$duration@_JU?$ratio@$00$0DLJKMKAA@@std@@@chrono@std@@SA?AV123@XZ ; std::chrono::duration<__int64,std::ratio<1,1000000000> >::zero
PUBLIC	??0?$time_point@Usteady_clock@chrono@std@@V?$duration@_JU?$ratio@$00$0DLJKMKAA@@std@@@23@@chrono@std@@QAE@ABV?$duration@_JU?$ratio@$00$0DLJKMKAA@@std@@@12@@Z ; std::chrono::time_point<std::chrono::steady_clock,std::chrono::duration<__int64,std::ratio<1,1000000000> > >::time_point<std::chrono::steady_clock,std::chrono::duration<__int64,std::ratio<1,1000000000> > >
PUBLIC	?count@?$duration@MU?$ratio@$00$00@std@@@chrono@std@@QBEMXZ ; std::chrono::duration<float,std::ratio<1,1> >::count
PUBLIC	??0?$time_point@Usteady_clock@chrono@std@@V?$duration@_JU?$ratio@$00$0DLJKMKAA@@std@@@23@@chrono@std@@QAE@XZ ; std::chrono::time_point<std::chrono::steady_clock,std::chrono::duration<__int64,std::ratio<1,1000000000> > >::time_point<std::chrono::steady_clock,std::chrono::duration<__int64,std::ratio<1,1000000000> > >
PUBLIC	?count@?$duration@NU?$ratio@$00$00@std@@@chrono@std@@QBENXZ ; std::chrono::duration<double,std::ratio<1,1> >::count
PUBLIC	?count@?$duration@_JU?$ratio@$00$0DLJKMKAA@@std@@@chrono@std@@QBE_JXZ ; std::chrono::duration<__int64,std::ratio<1,1000000000> >::count
PUBLIC	??$?0_J$0A@@?$duration@_JU?$ratio@$00$0DLJKMKAA@@std@@@chrono@std@@QAE@AB_J@Z ; std::chrono::duration<__int64,std::ratio<1,1000000000> >::duration<__int64,std::ratio<1,1000000000> ><__int64,0>
PUBLIC	?now@steady_clock@chrono@std@@SA?AV?$time_point@Usteady_clock@chrono@std@@V?$duration@_JU?$ratio@$00$0DLJKMKAA@@std@@@23@@23@XZ ; std::chrono::steady_clock::now
PUBLIC	?now@system_clock@chrono@std@@SA?AV?$time_point@Usystem_clock@chrono@std@@V?$duration@_JU?$ratio@$00$0JIJGIA@@std@@@23@@23@XZ ; std::chrono::system_clock::now
PUBLIC	?Wait@Timer@@QBEXH@Z				; Timer::Wait
PUBLIC	?Peek@Timer@@QBEMXZ				; Timer::Peek
PUBLIC	??0Timer@@QAE@XZ				; Timer::Timer
; Function compile flags: /Ogtp
;	COMDAT ?Peek@Timer@@QBEMXZ
_TEXT	SEGMENT
_this$1$ = -12						; size = 4
tv187 = -8						; size = 4
__Freq$2$ = -4						; size = 4
?Peek@Timer@@QBEMXZ PROC				; Timer::Peek, COMDAT
; _this$ = ecx
; File F:\WindowSandbox\WindowSandbox\src\tools\Timer.cpp
; Line 15
	push	ebp
	mov	ebp, esp
	sub	esp, 12					; 0000000cH
	push	ebx
	push	esi
	push	edi
	mov	DWORD PTR _this$1$[ebp], ecx
; File C:\Program Files (x86)\Microsoft Visual Studio\2019\Community\VC\Tools\MSVC\14.27.29110\include\chrono
; Line 607
	call	__Query_perf_frequency
	mov	ebx, eax
	mov	edi, edx
	mov	DWORD PTR __Freq$2$[ebp], ebx
; Line 608
	call	__Query_perf_counter
; Line 616
	push	ebx
	push	edi
	push	ebx
	push	edx
	push	eax
	call	__alldvrm
	mov	esi, ebx
	pop	ebx
	push	0
	push	1000000000				; 3b9aca00H
	push	esi
	push	ecx
	mov	DWORD PTR tv187[ebp], eax
	mov	ebx, edx
	call	__allmul
	push	edi
	push	DWORD PTR __Freq$2$[ebp]
	push	edx
	push	eax
	call	__alldiv
	push	0
	push	1000000000				; 3b9aca00H
	push	ebx
	push	DWORD PTR tv187[ebp]
	mov	edi, eax
	mov	esi, edx
	call	__allmul
; File F:\WindowSandbox\WindowSandbox\src\tools\Timer.cpp
; Line 16
	add	edi, eax
	mov	eax, DWORD PTR _this$1$[ebp]
	adc	edx, esi
	sub	edi, DWORD PTR [eax]
; File C:\Program Files (x86)\Microsoft Visual Studio\2019\Community\VC\Tools\MSVC\14.27.29110\include\chrono
; Line 82
	mov	ecx, edi
; File F:\WindowSandbox\WindowSandbox\src\tools\Timer.cpp
; Line 16
	sbb	edx, DWORD PTR [eax+4]
; File C:\Program Files (x86)\Microsoft Visual Studio\2019\Community\VC\Tools\MSVC\14.27.29110\include\chrono
; Line 82
	call	__ltod3
	cvtsd2ss xmm0, xmm0
; File F:\WindowSandbox\WindowSandbox\src\tools\Timer.cpp
; Line 17
	pop	edi
	pop	esi
	pop	ebx
; File C:\Program Files (x86)\Microsoft Visual Studio\2019\Community\VC\Tools\MSVC\14.27.29110\include\chrono
; Line 392
	divss	xmm0, DWORD PTR __real@4e6e6b28
; File F:\WindowSandbox\WindowSandbox\src\tools\Timer.cpp
; Line 17
	mov	esp, ebp
	pop	ebp
	ret	0
?Peek@Timer@@QBEMXZ ENDP				; Timer::Peek
_TEXT	ENDS
; Function compile flags: /Ogtp
;	COMDAT ?count@?$duration@MU?$ratio@$00$00@std@@@chrono@std@@QBEMXZ
_TEXT	SEGMENT
?count@?$duration@MU?$ratio@$00$00@std@@@chrono@std@@QBEMXZ PROC ; std::chrono::duration<float,std::ratio<1,1> >::count, COMDAT
; _this$ = ecx
; File C:\Program Files (x86)\Microsoft Visual Studio\2019\Community\VC\Tools\MSVC\14.27.29110\include\chrono
; Line 94
	movss	xmm0, DWORD PTR [ecx]
; Line 95
	ret	0
?count@?$duration@MU?$ratio@$00$00@std@@@chrono@std@@QBEMXZ ENDP ; std::chrono::duration<float,std::ratio<1,1> >::count
_TEXT	ENDS
; Function compile flags: /Ogtp
;	COMDAT ??$?GUsteady_clock@chrono@std@@V?$duration@_JU?$ratio@$00$0DLJKMKAA@@std@@@12@V312@@chrono@std@@YA?AV?$duration@_JU?$ratio@$00$0DLJKMKAA@@std@@@01@ABV?$time_point@Usteady_clock@chrono@std@@V?$duration@_JU?$ratio@$00$0DLJKMKAA@@std@@@23@@01@0@Z
_TEXT	SEGMENT
__Right$ = 8						; size = 4
??$?GUsteady_clock@chrono@std@@V?$duration@_JU?$ratio@$00$0DLJKMKAA@@std@@@12@V312@@chrono@std@@YA?AV?$duration@_JU?$ratio@$00$0DLJKMKAA@@std@@@01@ABV?$time_point@Usteady_clock@chrono@std@@V?$duration@_JU?$ratio@$00$0DLJKMKAA@@std@@@23@@01@0@Z PROC ; std::chrono::operator-<std::chrono::steady_clock,std::chrono::duration<__int64,std::ratio<1,1000000000> >,std::chrono::duration<__int64,std::ratio<1,1000000000> > >, COMDAT
; ___$ReturnUdt$ = ecx
; __Left$ = edx
; File C:\Program Files (x86)\Microsoft Visual Studio\2019\Community\VC\Tools\MSVC\14.27.29110\include\chrono
; Line 496
	push	ebp
	mov	ebp, esp
; Line 195
	mov	eax, DWORD PTR __Right$[ebp]
; Line 496
	push	esi
; Line 195
	mov	esi, DWORD PTR [edx]
	mov	edx, DWORD PTR [edx+4]
	sub	esi, DWORD PTR [eax]
; Line 82
	mov	DWORD PTR [ecx], esi
; Line 195
	sbb	edx, DWORD PTR [eax+4]
; Line 497
	mov	eax, ecx
; Line 82
	mov	DWORD PTR [ecx+4], edx
; Line 498
	pop	esi
	pop	ebp
	ret	0
??$?GUsteady_clock@chrono@std@@V?$duration@_JU?$ratio@$00$0DLJKMKAA@@std@@@12@V312@@chrono@std@@YA?AV?$duration@_JU?$ratio@$00$0DLJKMKAA@@std@@@01@ABV?$time_point@Usteady_clock@chrono@std@@V?$duration@_JU?$ratio@$00$0DLJKMKAA@@std@@@23@@01@0@Z ENDP ; std::chrono::operator-<std::chrono::steady_clock,std::chrono::duration<__int64,std::ratio<1,1000000000> >,std::chrono::duration<__int64,std::ratio<1,1000000000> > >
_TEXT	ENDS
; Function compile flags: /Ogtp
;	COMDAT ??$?0_JU?$ratio@$00$0DLJKMKAA@@std@@$0A@@?$duration@MU?$ratio@$00$00@std@@@chrono@std@@QAE@ABV?$duration@_JU?$ratio@$00$0DLJKMKAA@@std@@@12@@Z
_TEXT	SEGMENT
__Dur$ = 8						; size = 4
??$?0_JU?$ratio@$00$0DLJKMKAA@@std@@$0A@@?$duration@MU?$ratio@$00$00@std@@@chrono@std@@QAE@ABV?$duration@_JU?$ratio@$00$0DLJKMKAA@@std@@@12@@Z PROC ; std::chrono::duration<float,std::ratio<1,1> >::duration<float,std::ratio<1,1> ><__int64,std::ratio<1,1000000000>,0>, COMDAT
; _this$ = ecx
; File C:\Program Files (x86)\Microsoft Visual Studio\2019\Community\VC\Tools\MSVC\14.27.29110\include\chrono
; Line 91
	push	ebp
	mov	ebp, esp
	push	esi
	mov	esi, ecx
; Line 392
	mov	ecx, DWORD PTR __Dur$[ebp]
	mov	edx, DWORD PTR [ecx+4]
	mov	ecx, DWORD PTR [ecx]
	call	__ltod3
	cvtsd2ss xmm0, xmm0
; Line 91
	mov	eax, esi
; Line 392
	divss	xmm0, DWORD PTR __real@4e6e6b28
; Line 91
	movss	DWORD PTR [esi], xmm0
	pop	esi
	pop	ebp
	ret	4
??$?0_JU?$ratio@$00$0DLJKMKAA@@std@@$0A@@?$duration@MU?$ratio@$00$00@std@@@chrono@std@@QAE@ABV?$duration@_JU?$ratio@$00$0DLJKMKAA@@std@@@12@@Z ENDP ; std::chrono::duration<float,std::ratio<1,1> >::duration<float,std::ratio<1,1> ><__int64,std::ratio<1,1000000000>,0>
_TEXT	ENDS
; Function compile flags: /Ogtp
;	COMDAT ??$?G_JU?$ratio@$00$0DLJKMKAA@@std@@_JU01@@chrono@std@@YA?AV?$duration@_JU?$ratio@$00$0DLJKMKAA@@std@@@01@ABV201@0@Z
_TEXT	SEGMENT
__Right$ = 8						; size = 4
??$?G_JU?$ratio@$00$0DLJKMKAA@@std@@_JU01@@chrono@std@@YA?AV?$duration@_JU?$ratio@$00$0DLJKMKAA@@std@@@01@ABV201@0@Z PROC ; std::chrono::operator-<__int64,std::ratio<1,1000000000>,__int64,std::ratio<1,1000000000> >, COMDAT
; ___$ReturnUdt$ = ecx
; __Left$ = edx
; File C:\Program Files (x86)\Microsoft Visual Studio\2019\Community\VC\Tools\MSVC\14.27.29110\include\chrono
; Line 252
	push	ebp
	mov	ebp, esp
; Line 254
	mov	eax, DWORD PTR __Right$[ebp]
	push	esi
	mov	esi, DWORD PTR [edx]
	mov	edx, DWORD PTR [edx+4]
	sub	esi, DWORD PTR [eax]
; Line 82
	mov	DWORD PTR [ecx], esi
; Line 254
	sbb	edx, DWORD PTR [eax+4]
	mov	eax, ecx
; Line 82
	mov	DWORD PTR [ecx+4], edx
; Line 255
	pop	esi
	pop	ebp
	ret	0
??$?G_JU?$ratio@$00$0DLJKMKAA@@std@@_JU01@@chrono@std@@YA?AV?$duration@_JU?$ratio@$00$0DLJKMKAA@@std@@@01@ABV201@0@Z ENDP ; std::chrono::operator-<__int64,std::ratio<1,1000000000>,__int64,std::ratio<1,1000000000> >
_TEXT	ENDS
; Function compile flags: /Ogtp
;	COMDAT ??$duration_cast@V?$duration@MU?$ratio@$00$00@std@@@chrono@std@@_JU?$ratio@$00$0DLJKMKAA@@3@$0A@@chrono@std@@YA?AV?$duration@MU?$ratio@$00$00@std@@@01@ABV?$duration@_JU?$ratio@$00$0DLJKMKAA@@std@@@01@@Z
_TEXT	SEGMENT
??$duration_cast@V?$duration@MU?$ratio@$00$00@std@@@chrono@std@@_JU?$ratio@$00$0DLJKMKAA@@3@$0A@@chrono@std@@YA?AV?$duration@MU?$ratio@$00$00@std@@@01@ABV?$duration@_JU?$ratio@$00$0DLJKMKAA@@std@@@01@@Z PROC ; std::chrono::duration_cast<std::chrono::duration<float,std::ratio<1,1> >,__int64,std::ratio<1,1000000000>,0>, COMDAT
; ___$ReturnUdt$ = ecx
; __Dur$ = edx
; File C:\Program Files (x86)\Microsoft Visual Studio\2019\Community\VC\Tools\MSVC\14.27.29110\include\chrono
; Line 373
	mov	eax, edx
	push	esi
	mov	esi, ecx
; Line 392
	mov	edx, DWORD PTR [eax+4]
	mov	ecx, DWORD PTR [eax]
	call	__ltod3
	cvtsd2ss xmm0, xmm0
	mov	eax, esi
	divss	xmm0, DWORD PTR __real@4e6e6b28
; Line 82
	movss	DWORD PTR [esi], xmm0
; Line 392
	pop	esi
; Line 399
	ret	0
??$duration_cast@V?$duration@MU?$ratio@$00$00@std@@@chrono@std@@_JU?$ratio@$00$0DLJKMKAA@@3@$0A@@chrono@std@@YA?AV?$duration@MU?$ratio@$00$00@std@@@01@ABV?$duration@_JU?$ratio@$00$0DLJKMKAA@@std@@@01@@Z ENDP ; std::chrono::duration_cast<std::chrono::duration<float,std::ratio<1,1> >,__int64,std::ratio<1,1000000000>,0>
_TEXT	ENDS
; Function compile flags: /Ogtp
;	COMDAT ??$?0M$0A@@?$duration@MU?$ratio@$00$00@std@@@chrono@std@@QAE@ABM@Z
_TEXT	SEGMENT
__Val$ = 8						; size = 4
??$?0M$0A@@?$duration@MU?$ratio@$00$00@std@@@chrono@std@@QAE@ABM@Z PROC ; std::chrono::duration<float,std::ratio<1,1> >::duration<float,std::ratio<1,1> ><float,0>, COMDAT
; _this$ = ecx
; File C:\Program Files (x86)\Microsoft Visual Studio\2019\Community\VC\Tools\MSVC\14.27.29110\include\chrono
; Line 82
	push	ebp
	mov	ebp, esp
	mov	eax, DWORD PTR __Val$[ebp]
	mov	eax, DWORD PTR [eax]
	mov	DWORD PTR [ecx], eax
	mov	eax, ecx
	pop	ebp
	ret	4
??$?0M$0A@@?$duration@MU?$ratio@$00$00@std@@@chrono@std@@QAE@ABM@Z ENDP ; std::chrono::duration<float,std::ratio<1,1> >::duration<float,std::ratio<1,1> ><float,0>
_TEXT	ENDS
END
