; Listing generated by Microsoft (R) Optimizing Compiler Version 19.27.29111.0 

	TITLE	F:\WindowSandbox\WindowSandbox\src\Game.cpp
	.686P
	.XMM
	include listing.inc
	.model	flat

INCLUDELIB MSVCRTD
INCLUDELIB OLDNAMES

PUBLIC	___pobjectentryfirst
PUBLIC	___pobjectentrymid
PUBLIC	___pobjectentrylast
PUBLIC	?DefaultDelegateCheckMode@WRL@Microsoft@@3W4DelegateCheckMode@12@B ; Microsoft::WRL::DefaultDelegateCheckMode
msvcjmc	SEGMENT
__8906660C_vcruntime_new@h DB 01H
__09340588_corecrt_math@h DB 01H
__24E9E95F_stdlib@h DB 01H
__F8119FB4_cstdlib DB 01H
__0A4FAB91_cmath DB 01H
__F66CEB67_corecrt_stdio_config@h DB 01H
__101834BA_corecrt_wstdio@h DB 01H
__AD6A91B7_stdio@h DB 01H
__367CC694_corecrt_memcpy_s@h DB 01H
__35D7DDB3_corecrt_memory@h DB 01H
__DC9673E3_corecrt_wstring@h DB 01H
__A29A7DFB_string@h DB 01H
__5467428D_corecrt_wconio@h DB 01H
__4442441F_corecrt_wio@h DB 01H
__45F4AF76_corecrt_wtime@h DB 01H
__186FF47F_stat@h DB 01H
__534C724A_wchar@h DB 01H
__5DDA4519_cstddef DB 01H
__85A9AA98_type_traits DB 01H
__0104A505_compare DB 01H
__4324C6B3_xutility DB 01H
__B0C4CEA9_malloc@h DB 01H
__E75714E4_vcruntime_exception@h DB 01H
__E4152856_exception DB 01H
__F2870A2C_limits DB 01H
__A58979FC_xmemory DB 01H
__AC6CB2D0_tuple DB 01H
__E0552A5D_xpolymorphic_allocator@h DB 01H
__D15AFF60_xstring DB 01H
__6D5B120B_stdexcept DB 01H
__160863A3_xcall_once@h DB 01H
__99B256EE_atomic DB 01H
__A9557183_system_error DB 01H
__FB364CBD_vcruntime_typeinfo@h DB 01H
__33FB35AA_typeinfo DB 01H
__4E2906A2_memory DB 01H
__626C51AD_xfacet DB 01H
__7242C389_ctype@h DB 01H
__2C72D662_xlocinfo DB 01H
__0E648B51_xlocale DB 01H
__1597A171_xiosbase DB 01H
__90E3ED46_xlocnum DB 01H
__165C22CB_ios DB 01H
__3AFA803E_string DB 01H
__90A1F774_basetsd@h DB 01H
__3C23D660_guiddef@h DB 01H
__AF541008_winnt@h DB 01H
__0D001789_processthreadsapi@h DB 01H
__F972325D_memoryapi@h DB 01H
__76CD430D_winerror@h DB 01H
__737D49DB_winbase@h DB 01H
__1B9502AC_winuser@h DB 01H
__0396F1A5_stralign@h DB 01H
__0ED96A82_algorithm DB 01H
__781ADC3E_Keyboard@h DB 01H
__833FA886_Mouse@h DB 01H
__2CCBBE23_propidl@h DB 01H
__AD360DAF_oleauto@h DB 01H
__F57271C6_d3d11sdklayers@h DB 01H
__FA3A9F83_d3d10@h DB 01H
__FBF8F5B4_d3d11@h DB 01H
__CECC34C3_roapi@h DB 01H
__7B118BD6_internal@h DB 01H
__687F9F38_client@h DB 01H
__AF08451A_xmmintrin@h DB 01H
__9AC87C20_roerrorapi@h DB 01H
__CBC843C8_implements@h DB 01H
__15F97165_intsafe@h DB 01H
__EF1EFFE3_corewrappers@h DB 01H
__278E1207_module@h DB 01H
__BF1AC9A0_event@h DB 01H
__2AF06AB2_optional DB 01H
__66FC323F_ratio DB 01H
__8AA3BE86_time@h DB 01H
__966A0CA6_chrono DB 01H
__23CBB436_Game@cpp DB 01H
__E561F523_queue DB 01H
__7EA464AF_istream DB 01H
__1D745195_ostream DB 01H
__6FFBAAB7_streambuf DB 01H
__0657B1E2_deque DB 01H
__3E6EDFAA_iosfwd DB 01H
__CF1C1A3F_utility DB 01H
__528871F3_iterator DB 01H
__38038D2D_xstddef DB 01H
__EE19A480_xatomic@h DB 01H
msvcjmc	ENDS
;	COMDAT ?DefaultDelegateCheckMode@WRL@Microsoft@@3W4DelegateCheckMode@12@B
CONST	SEGMENT
?DefaultDelegateCheckMode@WRL@Microsoft@@3W4DelegateCheckMode@12@B DD 01H ; Microsoft::WRL::DefaultDelegateCheckMode
CONST	ENDS
;	COMDAT ___pobjectentrylast
minATL$__z	SEGMENT
___pobjectentrylast DD 00H
minATL$__z	ENDS
;	COMDAT ___pobjectentrymid
minATL$__m	SEGMENT
___pobjectentrymid DD 00H
minATL$__m	ENDS
;	COMDAT ___pobjectentryfirst
minATL$__a	SEGMENT
___pobjectentryfirst DD 00H
minATL$__a	ENDS
PUBLIC	?__empty_global_delete@@YAXPAX@Z		; __empty_global_delete
PUBLIC	?__empty_global_delete@@YAXPAXI@Z		; __empty_global_delete
PUBLIC	?__empty_global_delete@@YAXPAXW4align_val_t@std@@@Z ; __empty_global_delete
PUBLIC	?__empty_global_delete@@YAXPAXIW4align_val_t@std@@@Z ; __empty_global_delete
PUBLIC	?InternalRelease@?$ComPtr@UIUnknown@@@WRL@Microsoft@@IAEKXZ ; Microsoft::WRL::ComPtr<IUnknown>::InternalRelease
PUBLIC	??1?$ComPtr@UIUnknown@@@WRL@Microsoft@@QAE@XZ	; Microsoft::WRL::ComPtr<IUnknown>::~ComPtr<IUnknown>
PUBLIC	??_E?$ComPtr@UIUnknown@@@WRL@Microsoft@@QAEPAXI@Z ; Microsoft::WRL::ComPtr<IUnknown>::`vector deleting destructor'
PUBLIC	??0Game@@QAE@XZ					; Game::Game
PUBLIC	??0Game@@QAE@HHPBD@Z				; Game::Game
PUBLIC	?Go@Game@@QAEHXZ				; Game::Go
PUBLIC	?DoFrame@Game@@AAEXXZ				; Game::DoFrame
PUBLIC	??D?$optional@H@std@@QGBEABHXZ			; std::optional<int>::operator*
PUBLIC	??B?$optional@H@std@@QBE_NXZ			; std::optional<int>::operator bool
PUBLIC	__JustMyCode_Default
PUBLIC	??_C@_0P@BFJJIPJJ@Default?5Window@		; `string'
PUBLIC	__real@3f000000
PUBLIC	__real@3f800000
PUBLIC	__real@43800000
PUBLIC	__xmm@80000000800000008000000080000000
EXTRN	??_M@YGXPAXIIP6EX0@Z@Z:PROC			; `eh vector destructor iterator'
EXTRN	??3@YAXPAXI@Z:PROC				; operator delete
EXTRN	??_V@YAXPAXI@Z:PROC				; operator delete[]
EXTRN	?GetX@Mouse@@QBEHXZ:PROC			; Mouse::GetX
EXTRN	?GetY@Mouse@@QBEHXZ:PROC			; Mouse::GetY
EXTRN	?EndFrame@Graphics@@QAEXXZ:PROC			; Graphics::EndFrame
EXTRN	?ClearBuffer@Graphics@@QAEXMMM@Z:PROC		; Graphics::ClearBuffer
EXTRN	?DrawTriangle@Graphics@@QAEXMMM@Z:PROC		; Graphics::DrawTriangle
EXTRN	??0Window@@QAE@HHPBD@Z:PROC			; Window::Window
EXTRN	??1Window@@QAE@XZ:PROC				; Window::~Window
EXTRN	?Gfx@Window@@QAEAAVGraphics@@XZ:PROC		; Window::Gfx
EXTRN	?ProcessMessages@Window@@SA?AV?$optional@H@std@@XZ:PROC ; Window::ProcessMessages
EXTRN	??0Timer@@QAE@XZ:PROC				; Timer::Timer
EXTRN	?Peek@Timer@@QBEMXZ:PROC			; Timer::Peek
EXTRN	?Wait@Timer@@QBEXH@Z:PROC			; Timer::Wait
EXTRN	@_RTC_CheckStackVars@8:PROC
EXTRN	@__CheckForDebuggerJustMyCode@4:PROC
EXTRN	@__security_check_cookie@4:PROC
EXTRN	__RTC_CheckEsp:PROC
EXTRN	__RTC_InitBase:PROC
EXTRN	__RTC_Shutdown:PROC
EXTRN	___CxxFrameHandler3:PROC
EXTRN	___security_cookie:DWORD
EXTRN	__fltused:DWORD
;	COMDAT __xmm@80000000800000008000000080000000
CONST	SEGMENT
__xmm@80000000800000008000000080000000 DB 00H, 00H, 00H, 080H, 00H, 00H, 00H
	DB	080H, 00H, 00H, 00H, 080H, 00H, 00H, 00H, 080H
CONST	ENDS
;	COMDAT __real@43800000
CONST	SEGMENT
__real@43800000 DD 043800000r			; 256
CONST	ENDS
;	COMDAT __real@3f800000
CONST	SEGMENT
__real@3f800000 DD 03f800000r			; 1
CONST	ENDS
;	COMDAT __real@3f000000
CONST	SEGMENT
__real@3f000000 DD 03f000000r			; 0.5
CONST	ENDS
;	COMDAT rtc$TMZ
rtc$TMZ	SEGMENT
__RTC_Shutdown.rtc$TMZ DD FLAT:__RTC_Shutdown
rtc$TMZ	ENDS
;	COMDAT rtc$IMZ
rtc$IMZ	SEGMENT
__RTC_InitBase.rtc$IMZ DD FLAT:__RTC_InitBase
rtc$IMZ	ENDS
;	COMDAT ??_C@_0P@BFJJIPJJ@Default?5Window@
CONST	SEGMENT
??_C@_0P@BFJJIPJJ@Default?5Window@ DB 'Default Window', 00H ; `string'
CONST	ENDS
;	COMDAT xdata$x
xdata$x	SEGMENT
__ehfuncinfo$??B?$optional@H@std@@QBE_NXZ DD 019930522H
	DD	00H
	DD	00H
	DD	2 DUP(00H)
	DD	2 DUP(00H)
	DD	00H
	DD	05H
xdata$x	ENDS
;	COMDAT xdata$x
xdata$x	SEGMENT
__unwindtable$??0Game@@QAE@HHPBD@Z DD 0ffffffffH
	DD	FLAT:__unwindfunclet$??0Game@@QAE@HHPBD@Z$0
__ehfuncinfo$??0Game@@QAE@HHPBD@Z DD 019930522H
	DD	01H
	DD	FLAT:__unwindtable$??0Game@@QAE@HHPBD@Z
	DD	2 DUP(00H)
	DD	2 DUP(00H)
	DD	00H
	DD	01H
xdata$x	ENDS
;	COMDAT xdata$x
xdata$x	SEGMENT
__unwindtable$??0Game@@QAE@XZ DD 0ffffffffH
	DD	FLAT:__unwindfunclet$??0Game@@QAE@XZ$0
__ehfuncinfo$??0Game@@QAE@XZ DD 019930522H
	DD	01H
	DD	FLAT:__unwindtable$??0Game@@QAE@XZ
	DD	2 DUP(00H)
	DD	2 DUP(00H)
	DD	00H
	DD	01H
xdata$x	ENDS
;	COMDAT xdata$x
xdata$x	SEGMENT
__ehfuncinfo$??_E?$ComPtr@UIUnknown@@@WRL@Microsoft@@QAEPAXI@Z DD 019930522H
	DD	00H
	DD	00H
	DD	2 DUP(00H)
	DD	2 DUP(00H)
	DD	00H
	DD	05H
xdata$x	ENDS
;	COMDAT xdata$x
xdata$x	SEGMENT
__ehfuncinfo$??1?$ComPtr@UIUnknown@@@WRL@Microsoft@@QAE@XZ DD 019930522H
	DD	00H
	DD	00H
	DD	2 DUP(00H)
	DD	2 DUP(00H)
	DD	00H
	DD	05H
xdata$x	ENDS
;	COMDAT xdata$x
xdata$x	SEGMENT
__ehfuncinfo$?InternalRelease@?$ComPtr@UIUnknown@@@WRL@Microsoft@@IAEKXZ DD 019930522H
	DD	00H
	DD	00H
	DD	2 DUP(00H)
	DD	2 DUP(00H)
	DD	00H
	DD	05H
xdata$x	ENDS
;	COMDAT xdata$x
xdata$x	SEGMENT
__ehfuncinfo$?__empty_global_delete@@YAXPAXIW4align_val_t@std@@@Z DD 019930522H
	DD	00H
	DD	00H
	DD	2 DUP(00H)
	DD	2 DUP(00H)
	DD	00H
	DD	05H
xdata$x	ENDS
;	COMDAT xdata$x
xdata$x	SEGMENT
__ehfuncinfo$?__empty_global_delete@@YAXPAXW4align_val_t@std@@@Z DD 019930522H
	DD	00H
	DD	00H
	DD	2 DUP(00H)
	DD	2 DUP(00H)
	DD	00H
	DD	05H
xdata$x	ENDS
;	COMDAT xdata$x
xdata$x	SEGMENT
__ehfuncinfo$?__empty_global_delete@@YAXPAXI@Z DD 019930522H
	DD	00H
	DD	00H
	DD	2 DUP(00H)
	DD	2 DUP(00H)
	DD	00H
	DD	05H
xdata$x	ENDS
;	COMDAT xdata$x
xdata$x	SEGMENT
__ehfuncinfo$?__empty_global_delete@@YAXPAX@Z DD 019930522H
	DD	00H
	DD	00H
	DD	2 DUP(00H)
	DD	2 DUP(00H)
	DD	00H
	DD	05H
xdata$x	ENDS
; Function compile flags: /Odt
;	COMDAT __JustMyCode_Default
_TEXT	SEGMENT
__JustMyCode_Default PROC				; COMDAT
	push	ebp
	mov	ebp, esp
	pop	ebp
	ret	0
__JustMyCode_Default ENDP
_TEXT	ENDS
; Function compile flags: /Odtp /RTCsu /ZI
;	COMDAT ??B?$optional@H@std@@QBE_NXZ
_TEXT	SEGMENT
_this$ = -20						; size = 4
__$EHRec$ = -12						; size = 12
??B?$optional@H@std@@QBE_NXZ PROC			; std::optional<int>::operator bool, COMDAT
; _this$ = ecx
; File C:\Program Files (x86)\Microsoft Visual Studio\2019\Community\VC\Tools\MSVC\14.27.29110\include\optional
; Line 360
	push	ebp
	mov	ebp, esp
	push	-1
	push	__ehhandler$??B?$optional@H@std@@QBE_NXZ
	mov	eax, DWORD PTR fs:0
	push	eax
	sub	esp, 204				; 000000ccH
	push	ebx
	push	esi
	push	edi
	push	ecx
	lea	edi, DWORD PTR [ebp-216]
	mov	ecx, 51					; 00000033H
	mov	eax, -858993460				; ccccccccH
	rep stosd
	pop	ecx
	mov	eax, DWORD PTR ___security_cookie
	xor	eax, ebp
	push	eax
	lea	eax, DWORD PTR __$EHRec$[ebp]
	mov	DWORD PTR fs:0, eax
	mov	DWORD PTR _this$[ebp], ecx
	mov	ecx, OFFSET __2AF06AB2_optional
	call	@__CheckForDebuggerJustMyCode@4
; Line 361
	mov	eax, DWORD PTR _this$[ebp]
	mov	al, BYTE PTR [eax+4]
; Line 362
	mov	ecx, DWORD PTR __$EHRec$[ebp]
	mov	DWORD PTR fs:0, ecx
	pop	ecx
	pop	edi
	pop	esi
	pop	ebx
	add	esp, 216				; 000000d8H
	cmp	ebp, esp
	call	__RTC_CheckEsp
	mov	esp, ebp
	pop	ebp
	ret	0
	int	3
	int	3
	int	3
	int	3
	int	3
_TEXT	ENDS
;	COMDAT text$x
text$x	SEGMENT
__ehhandler$??B?$optional@H@std@@QBE_NXZ:
	npad	1
	npad	1
	mov	edx, DWORD PTR [esp+8]
	lea	eax, DWORD PTR [edx+12]
	mov	ecx, DWORD PTR [edx-220]
	xor	ecx, eax
	call	@__security_check_cookie@4
	mov	eax, OFFSET __ehfuncinfo$??B?$optional@H@std@@QBE_NXZ
	jmp	___CxxFrameHandler3
text$x	ENDS
??B?$optional@H@std@@QBE_NXZ ENDP			; std::optional<int>::operator bool
; Function compile flags: /Odtp /RTCsu /ZI
;	COMDAT ??D?$optional@H@std@@QGBEABHXZ
_TEXT	SEGMENT
_this$ = -8						; size = 4
??D?$optional@H@std@@QGBEABHXZ PROC			; std::optional<int>::operator*, COMDAT
; _this$ = ecx
; File C:\Program Files (x86)\Microsoft Visual Studio\2019\Community\VC\Tools\MSVC\14.27.29110\include\optional
; Line 347
	push	ebp
	mov	ebp, esp
	sub	esp, 204				; 000000ccH
	push	ebx
	push	esi
	push	edi
	push	ecx
	lea	edi, DWORD PTR [ebp-204]
	mov	ecx, 51					; 00000033H
	mov	eax, -858993460				; ccccccccH
	rep stosd
	pop	ecx
	mov	DWORD PTR _this$[ebp], ecx
	mov	ecx, OFFSET __2AF06AB2_optional
	call	@__CheckForDebuggerJustMyCode@4
; Line 348
	mov	eax, DWORD PTR _this$[ebp]
; Line 349
	pop	edi
	pop	esi
	pop	ebx
	add	esp, 204				; 000000ccH
	cmp	ebp, esp
	call	__RTC_CheckEsp
	mov	esp, ebp
	pop	ebp
	ret	0
??D?$optional@H@std@@QGBEABHXZ ENDP			; std::optional<int>::operator*
_TEXT	ENDS
; Function compile flags: /Odtp /RTCsu /ZI
;	COMDAT ?DoFrame@Game@@AAEXXZ
_TEXT	SEGMENT
tv131 = -220						; size = 4
tv150 = -216						; size = 4
tv133 = -216						; size = 4
tv188 = -212						; size = 4
tv135 = -212						; size = 4
tv152 = -208						; size = 4
tv137 = -208						; size = 4
tv72 = -208						; size = 4
_this$ = -8						; size = 4
?DoFrame@Game@@AAEXXZ PROC				; Game::DoFrame, COMDAT
; _this$ = ecx
; File F:\WindowSandbox\WindowSandbox\src\Game.cpp
; Line 18
	push	ebp
	mov	ebp, esp
	sub	esp, 220				; 000000dcH
	push	ebx
	push	esi
	push	edi
	push	ecx
	lea	edi, DWORD PTR [ebp-220]
	mov	ecx, 55					; 00000037H
	mov	eax, -858993460				; ccccccccH
	rep stosd
	pop	ecx
	mov	DWORD PTR _this$[ebp], ecx
	mov	ecx, OFFSET __23CBB436_Game@cpp
	call	@__CheckForDebuggerJustMyCode@4
; Line 19
	mov	ecx, DWORD PTR _this$[ebp]
	call	?Gfx@Window@@QAEAAVGraphics@@XZ		; Window::Gfx
	mov	DWORD PTR tv72[ebp], eax
	push	ecx
	movss	xmm0, DWORD PTR __real@3f000000
	movss	DWORD PTR [esp], xmm0
	push	ecx
	movss	xmm0, DWORD PTR __real@3f000000
	movss	DWORD PTR [esp], xmm0
	push	ecx
	movss	xmm0, DWORD PTR __real@3f000000
	movss	DWORD PTR [esp], xmm0
	mov	ecx, DWORD PTR tv72[ebp]
	call	?ClearBuffer@Graphics@@QAEXMMM@Z	; Graphics::ClearBuffer
; Line 21
	mov	ecx, DWORD PTR _this$[ebp]
	call	?Gfx@Window@@QAEAAVGraphics@@XZ		; Window::Gfx
	mov	DWORD PTR tv137[ebp], eax
	mov	ecx, DWORD PTR _this$[ebp]
	add	ecx, 80					; 00000050H
	call	?GetY@Mouse@@QBEHXZ			; Mouse::GetY
	neg	eax
	cvtsi2ss xmm0, eax
	divss	xmm0, DWORD PTR __real@43800000
	addss	xmm0, DWORD PTR __real@3f800000
	movss	DWORD PTR tv135[ebp], xmm0
	mov	ecx, DWORD PTR _this$[ebp]
	add	ecx, 80					; 00000050H
	call	?GetX@Mouse@@QBEHXZ			; Mouse::GetX
	cvtsi2ss xmm0, eax
	divss	xmm0, DWORD PTR __real@43800000
	subss	xmm0, DWORD PTR __real@3f800000
	movss	DWORD PTR tv133[ebp], xmm0
	mov	ecx, DWORD PTR _this$[ebp]
	add	ecx, 128				; 00000080H
	call	?Peek@Timer@@QBEMXZ			; Timer::Peek
	fstp	DWORD PTR tv131[ebp]
	push	ecx
	movss	xmm0, DWORD PTR tv135[ebp]
	movss	DWORD PTR [esp], xmm0
	push	ecx
	movss	xmm0, DWORD PTR tv133[ebp]
	movss	DWORD PTR [esp], xmm0
	push	ecx
	movss	xmm0, DWORD PTR tv131[ebp]
	movss	DWORD PTR [esp], xmm0
	mov	ecx, DWORD PTR tv137[ebp]
	call	?DrawTriangle@Graphics@@QAEXMMM@Z	; Graphics::DrawTriangle
; Line 27
	mov	ecx, DWORD PTR _this$[ebp]
	call	?Gfx@Window@@QAEAAVGraphics@@XZ		; Window::Gfx
	mov	DWORD PTR tv152[ebp], eax
	mov	ecx, DWORD PTR _this$[ebp]
	add	ecx, 128				; 00000080H
	call	?Peek@Timer@@QBEMXZ			; Timer::Peek
	fstp	DWORD PTR tv188[ebp]
	movss	xmm0, DWORD PTR tv188[ebp]
	xorps	xmm0, DWORD PTR __xmm@80000000800000008000000080000000
	movss	DWORD PTR tv150[ebp], xmm0
	push	ecx
	xorps	xmm0, xmm0
	movss	DWORD PTR [esp], xmm0
	push	ecx
	xorps	xmm0, xmm0
	movss	DWORD PTR [esp], xmm0
	push	ecx
	movss	xmm0, DWORD PTR tv150[ebp]
	movss	DWORD PTR [esp], xmm0
	mov	ecx, DWORD PTR tv152[ebp]
	call	?DrawTriangle@Graphics@@QAEXMMM@Z	; Graphics::DrawTriangle
; Line 32
	mov	ecx, DWORD PTR _this$[ebp]
	call	?Gfx@Window@@QAEAAVGraphics@@XZ		; Window::Gfx
	mov	ecx, eax
	call	?EndFrame@Graphics@@QAEXXZ		; Graphics::EndFrame
; Line 33
	pop	edi
	pop	esi
	pop	ebx
	add	esp, 220				; 000000dcH
	cmp	ebp, esp
	call	__RTC_CheckEsp
	mov	esp, ebp
	pop	ebp
	ret	0
?DoFrame@Game@@AAEXXZ ENDP				; Game::DoFrame
_TEXT	ENDS
; Function compile flags: /Odtp /RTCsu /ZI
;	COMDAT ?Go@Game@@QAEHXZ
_TEXT	SEGMENT
tv77 = -228						; size = 4
_ecode$1 = -28						; size = 8
_this$ = -12						; size = 4
__$ArrayPad$ = -4					; size = 4
?Go@Game@@QAEHXZ PROC					; Game::Go, COMDAT
; _this$ = ecx
; File F:\WindowSandbox\WindowSandbox\src\Game.cpp
; Line 8
	push	ebp
	mov	ebp, esp
	sub	esp, 228				; 000000e4H
	push	ebx
	push	esi
	push	edi
	push	ecx
	lea	edi, DWORD PTR [ebp-228]
	mov	ecx, 57					; 00000039H
	mov	eax, -858993460				; ccccccccH
	rep stosd
	pop	ecx
	mov	eax, DWORD PTR ___security_cookie
	xor	eax, ebp
	mov	DWORD PTR __$ArrayPad$[ebp], eax
	mov	DWORD PTR _this$[ebp], ecx
	mov	ecx, OFFSET __23CBB436_Game@cpp
	call	@__CheckForDebuggerJustMyCode@4
$LN2@Go:
; Line 9
	mov	eax, 1
	test	eax, eax
	je	SHORT $LN1@Go
; Line 10
	lea	eax, DWORD PTR _ecode$1[ebp]
	push	eax
	call	?ProcessMessages@Window@@SA?AV?$optional@H@std@@XZ ; Window::ProcessMessages
	add	esp, 4
	lea	ecx, DWORD PTR _ecode$1[ebp]
	call	??B?$optional@H@std@@QBE_NXZ		; std::optional<int>::operator bool
	movzx	eax, al
	test	eax, eax
	je	SHORT $LN4@Go
; Line 11
	lea	ecx, DWORD PTR _ecode$1[ebp]
	call	??D?$optional@H@std@@QGBEABHXZ		; std::optional<int>::operator*
	mov	eax, DWORD PTR [eax]
	jmp	SHORT $LN1@Go
$LN4@Go:
; Line 13
	mov	ecx, DWORD PTR _this$[ebp]
	call	?DoFrame@Game@@AAEXXZ			; Game::DoFrame
; Line 14
	mov	eax, DWORD PTR _this$[ebp]
	add	eax, 128				; 00000080H
	mov	DWORD PTR tv77[ebp], eax
	push	50					; 00000032H
	mov	ecx, DWORD PTR tv77[ebp]
	call	?Wait@Timer@@QBEXH@Z			; Timer::Wait
; Line 15
	jmp	SHORT $LN2@Go
$LN1@Go:
; Line 16
	push	edx
	mov	ecx, ebp
	push	eax
	lea	edx, DWORD PTR $LN8@Go
	call	@_RTC_CheckStackVars@8
	pop	eax
	pop	edx
	pop	edi
	pop	esi
	pop	ebx
	mov	ecx, DWORD PTR __$ArrayPad$[ebp]
	xor	ecx, ebp
	call	@__security_check_cookie@4
	add	esp, 228				; 000000e4H
	cmp	ebp, esp
	call	__RTC_CheckEsp
	mov	esp, ebp
	pop	ebp
	ret	0
	npad	1
$LN8@Go:
	DD	1
	DD	$LN7@Go
$LN7@Go:
	DD	-28					; ffffffe4H
	DD	8
	DD	$LN6@Go
$LN6@Go:
	DB	101					; 00000065H
	DB	99					; 00000063H
	DB	111					; 0000006fH
	DB	100					; 00000064H
	DB	101					; 00000065H
	DB	0
?Go@Game@@QAEHXZ ENDP					; Game::Go
_TEXT	ENDS
; Function compile flags: /Odtp /RTCsu /ZI
;	COMDAT ??0Game@@QAE@HHPBD@Z
_TEXT	SEGMENT
tv71 = -220						; size = 4
_this$ = -20						; size = 4
__$EHRec$ = -12						; size = 12
_width$ = 8						; size = 4
_height$ = 12						; size = 4
_name$ = 16						; size = 4
??0Game@@QAE@HHPBD@Z PROC				; Game::Game, COMDAT
; _this$ = ecx
; File F:\WindowSandbox\WindowSandbox\src\Game.cpp
; Line 6
	push	ebp
	mov	ebp, esp
	push	-1
	push	__ehhandler$??0Game@@QAE@HHPBD@Z
	mov	eax, DWORD PTR fs:0
	push	eax
	sub	esp, 208				; 000000d0H
	push	ebx
	push	esi
	push	edi
	push	ecx
	lea	edi, DWORD PTR [ebp-220]
	mov	ecx, 52					; 00000034H
	mov	eax, -858993460				; ccccccccH
	rep stosd
	pop	ecx
	mov	eax, DWORD PTR ___security_cookie
	xor	eax, ebp
	push	eax
	lea	eax, DWORD PTR __$EHRec$[ebp]
	mov	DWORD PTR fs:0, eax
	mov	DWORD PTR _this$[ebp], ecx
	mov	ecx, OFFSET __23CBB436_Game@cpp
	call	@__CheckForDebuggerJustMyCode@4
	mov	eax, DWORD PTR _this$[ebp]
	mov	DWORD PTR tv71[ebp], eax
	mov	ecx, DWORD PTR _name$[ebp]
	push	ecx
	mov	edx, DWORD PTR _height$[ebp]
	push	edx
	mov	eax, DWORD PTR _width$[ebp]
	push	eax
	mov	ecx, DWORD PTR tv71[ebp]
	call	??0Window@@QAE@HHPBD@Z			; Window::Window
	mov	DWORD PTR __$EHRec$[ebp+8], 0
	mov	ecx, DWORD PTR _this$[ebp]
	add	ecx, 128				; 00000080H
	call	??0Timer@@QAE@XZ			; Timer::Timer
	mov	DWORD PTR __$EHRec$[ebp+8], -1
	mov	eax, DWORD PTR _this$[ebp]
	mov	ecx, DWORD PTR __$EHRec$[ebp]
	mov	DWORD PTR fs:0, ecx
	pop	ecx
	pop	edi
	pop	esi
	pop	ebx
	add	esp, 220				; 000000dcH
	cmp	ebp, esp
	call	__RTC_CheckEsp
	mov	esp, ebp
	pop	ebp
	ret	12					; 0000000cH
_TEXT	ENDS
;	COMDAT text$x
text$x	SEGMENT
__unwindfunclet$??0Game@@QAE@HHPBD@Z$0:
	mov	ecx, DWORD PTR _this$[ebp]
	jmp	??1Window@@QAE@XZ			; Window::~Window
	int	3
	int	3
	int	3
	int	3
	int	3
__ehhandler$??0Game@@QAE@HHPBD@Z:
	npad	1
	npad	1
	mov	edx, DWORD PTR [esp+8]
	lea	eax, DWORD PTR [edx+12]
	mov	ecx, DWORD PTR [edx-224]
	xor	ecx, eax
	call	@__security_check_cookie@4
	mov	eax, OFFSET __ehfuncinfo$??0Game@@QAE@HHPBD@Z
	jmp	___CxxFrameHandler3
text$x	ENDS
??0Game@@QAE@HHPBD@Z ENDP				; Game::Game
; Function compile flags: /Odtp /RTCsu /ZI
;	COMDAT ??0Game@@QAE@XZ
_TEXT	SEGMENT
tv71 = -220						; size = 4
_this$ = -20						; size = 4
__$EHRec$ = -12						; size = 12
??0Game@@QAE@XZ PROC					; Game::Game, COMDAT
; _this$ = ecx
; File F:\WindowSandbox\WindowSandbox\src\Game.cpp
; Line 4
	push	ebp
	mov	ebp, esp
	push	-1
	push	__ehhandler$??0Game@@QAE@XZ
	mov	eax, DWORD PTR fs:0
	push	eax
	sub	esp, 208				; 000000d0H
	push	ebx
	push	esi
	push	edi
	push	ecx
	lea	edi, DWORD PTR [ebp-220]
	mov	ecx, 52					; 00000034H
	mov	eax, -858993460				; ccccccccH
	rep stosd
	pop	ecx
	mov	eax, DWORD PTR ___security_cookie
	xor	eax, ebp
	push	eax
	lea	eax, DWORD PTR __$EHRec$[ebp]
	mov	DWORD PTR fs:0, eax
	mov	DWORD PTR _this$[ebp], ecx
	mov	ecx, OFFSET __23CBB436_Game@cpp
	call	@__CheckForDebuggerJustMyCode@4
	mov	eax, DWORD PTR _this$[ebp]
	mov	DWORD PTR tv71[ebp], eax
	push	OFFSET ??_C@_0P@BFJJIPJJ@Default?5Window@
	push	512					; 00000200H
	push	512					; 00000200H
	mov	ecx, DWORD PTR tv71[ebp]
	call	??0Window@@QAE@HHPBD@Z			; Window::Window
	mov	DWORD PTR __$EHRec$[ebp+8], 0
	mov	ecx, DWORD PTR _this$[ebp]
	add	ecx, 128				; 00000080H
	call	??0Timer@@QAE@XZ			; Timer::Timer
	mov	DWORD PTR __$EHRec$[ebp+8], -1
	mov	eax, DWORD PTR _this$[ebp]
	mov	ecx, DWORD PTR __$EHRec$[ebp]
	mov	DWORD PTR fs:0, ecx
	pop	ecx
	pop	edi
	pop	esi
	pop	ebx
	add	esp, 220				; 000000dcH
	cmp	ebp, esp
	call	__RTC_CheckEsp
	mov	esp, ebp
	pop	ebp
	ret	0
_TEXT	ENDS
;	COMDAT text$x
text$x	SEGMENT
__unwindfunclet$??0Game@@QAE@XZ$0:
	mov	ecx, DWORD PTR _this$[ebp]
	jmp	??1Window@@QAE@XZ			; Window::~Window
	int	3
	int	3
	int	3
	int	3
	int	3
__ehhandler$??0Game@@QAE@XZ:
	npad	1
	npad	1
	mov	edx, DWORD PTR [esp+8]
	lea	eax, DWORD PTR [edx+12]
	mov	ecx, DWORD PTR [edx-224]
	xor	ecx, eax
	call	@__security_check_cookie@4
	mov	eax, OFFSET __ehfuncinfo$??0Game@@QAE@XZ
	jmp	___CxxFrameHandler3
text$x	ENDS
??0Game@@QAE@XZ ENDP					; Game::Game
; Function compile flags: /Odtp /RTCsu /ZI
;	COMDAT ??_E?$ComPtr@UIUnknown@@@WRL@Microsoft@@QAEPAXI@Z
_TEXT	SEGMENT
_this$ = -20						; size = 4
__$EHRec$ = -12						; size = 12
___flags$ = 8						; size = 4
??_E?$ComPtr@UIUnknown@@@WRL@Microsoft@@QAEPAXI@Z PROC	; Microsoft::WRL::ComPtr<IUnknown>::`vector deleting destructor', COMDAT
; _this$ = ecx
	push	ebp
	mov	ebp, esp
	push	-1
	push	__ehhandler$??_E?$ComPtr@UIUnknown@@@WRL@Microsoft@@QAEPAXI@Z
	mov	eax, DWORD PTR fs:0
	push	eax
	sub	esp, 204				; 000000ccH
	push	ebx
	push	esi
	push	edi
	push	ecx
	lea	edi, DWORD PTR [ebp-216]
	mov	ecx, 51					; 00000033H
	mov	eax, -858993460				; ccccccccH
	rep stosd
	pop	ecx
	mov	eax, DWORD PTR ___security_cookie
	xor	eax, ebp
	push	eax
	lea	eax, DWORD PTR __$EHRec$[ebp]
	mov	DWORD PTR fs:0, eax
	mov	DWORD PTR _this$[ebp], ecx
	mov	eax, DWORD PTR ___flags$[ebp]
	and	eax, 2
	je	SHORT $LN2@vector
	push	OFFSET ??1?$ComPtr@UIUnknown@@@WRL@Microsoft@@QAE@XZ ; Microsoft::WRL::ComPtr<IUnknown>::~ComPtr<IUnknown>
	mov	eax, DWORD PTR _this$[ebp]
	mov	ecx, DWORD PTR [eax-4]
	push	ecx
	push	4
	mov	edx, DWORD PTR _this$[ebp]
	push	edx
	call	??_M@YGXPAXIIP6EX0@Z@Z
	mov	eax, DWORD PTR ___flags$[ebp]
	and	eax, 1
	je	SHORT $LN3@vector
	mov	eax, DWORD PTR _this$[ebp]
	mov	ecx, DWORD PTR [eax-4]
	lea	edx, DWORD PTR [ecx*4+4]
	push	edx
	mov	eax, DWORD PTR _this$[ebp]
	sub	eax, 4
	push	eax
	call	??_V@YAXPAXI@Z				; operator delete[]
	add	esp, 8
$LN3@vector:
	mov	eax, DWORD PTR _this$[ebp]
	sub	eax, 4
	jmp	SHORT $LN5@vector
$LN2@vector:
	mov	ecx, DWORD PTR _this$[ebp]
	call	??1?$ComPtr@UIUnknown@@@WRL@Microsoft@@QAE@XZ ; Microsoft::WRL::ComPtr<IUnknown>::~ComPtr<IUnknown>
	mov	eax, DWORD PTR ___flags$[ebp]
	and	eax, 1
	je	SHORT $LN4@vector
	push	4
	mov	eax, DWORD PTR _this$[ebp]
	push	eax
	call	??3@YAXPAXI@Z				; operator delete
	add	esp, 8
$LN4@vector:
	mov	eax, DWORD PTR _this$[ebp]
$LN5@vector:
	mov	ecx, DWORD PTR __$EHRec$[ebp]
	mov	DWORD PTR fs:0, ecx
	pop	ecx
	pop	edi
	pop	esi
	pop	ebx
	add	esp, 216				; 000000d8H
	cmp	ebp, esp
	call	__RTC_CheckEsp
	mov	esp, ebp
	pop	ebp
	ret	4
	int	3
	int	3
	int	3
	int	3
	int	3
_TEXT	ENDS
;	COMDAT text$x
text$x	SEGMENT
__ehhandler$??_E?$ComPtr@UIUnknown@@@WRL@Microsoft@@QAEPAXI@Z:
	npad	1
	npad	1
	mov	edx, DWORD PTR [esp+8]
	lea	eax, DWORD PTR [edx+12]
	mov	ecx, DWORD PTR [edx-220]
	xor	ecx, eax
	call	@__security_check_cookie@4
	mov	eax, OFFSET __ehfuncinfo$??_E?$ComPtr@UIUnknown@@@WRL@Microsoft@@QAEPAXI@Z
	jmp	___CxxFrameHandler3
text$x	ENDS
??_E?$ComPtr@UIUnknown@@@WRL@Microsoft@@QAEPAXI@Z ENDP	; Microsoft::WRL::ComPtr<IUnknown>::`vector deleting destructor'
; Function compile flags: /Odtp /RTCsu /ZI
;	COMDAT ??1?$ComPtr@UIUnknown@@@WRL@Microsoft@@QAE@XZ
_TEXT	SEGMENT
_this$ = -20						; size = 4
__$EHRec$ = -12						; size = 12
??1?$ComPtr@UIUnknown@@@WRL@Microsoft@@QAE@XZ PROC	; Microsoft::WRL::ComPtr<IUnknown>::~ComPtr<IUnknown>, COMDAT
; _this$ = ecx
; File C:\Program Files (x86)\Windows Kits\10\Include\10.0.18362.0\winrt\wrl\client.h
; Line 230
	push	ebp
	mov	ebp, esp
	push	-1
	push	__ehhandler$??1?$ComPtr@UIUnknown@@@WRL@Microsoft@@QAE@XZ
	mov	eax, DWORD PTR fs:0
	push	eax
	sub	esp, 204				; 000000ccH
	push	ebx
	push	esi
	push	edi
	push	ecx
	lea	edi, DWORD PTR [ebp-216]
	mov	ecx, 51					; 00000033H
	mov	eax, -858993460				; ccccccccH
	rep stosd
	pop	ecx
	mov	eax, DWORD PTR ___security_cookie
	xor	eax, ebp
	push	eax
	lea	eax, DWORD PTR __$EHRec$[ebp]
	mov	DWORD PTR fs:0, eax
	mov	DWORD PTR _this$[ebp], ecx
	mov	ecx, OFFSET __687F9F38_client@h
	call	@__CheckForDebuggerJustMyCode@4
; Line 231
	mov	ecx, DWORD PTR _this$[ebp]
	call	?InternalRelease@?$ComPtr@UIUnknown@@@WRL@Microsoft@@IAEKXZ ; Microsoft::WRL::ComPtr<IUnknown>::InternalRelease
; Line 232
	mov	ecx, DWORD PTR __$EHRec$[ebp]
	mov	DWORD PTR fs:0, ecx
	pop	ecx
	pop	edi
	pop	esi
	pop	ebx
	add	esp, 216				; 000000d8H
	cmp	ebp, esp
	call	__RTC_CheckEsp
	mov	esp, ebp
	pop	ebp
	ret	0
	int	3
	int	3
	int	3
	int	3
	int	3
_TEXT	ENDS
;	COMDAT text$x
text$x	SEGMENT
__ehhandler$??1?$ComPtr@UIUnknown@@@WRL@Microsoft@@QAE@XZ:
	npad	1
	npad	1
	mov	edx, DWORD PTR [esp+8]
	lea	eax, DWORD PTR [edx+12]
	mov	ecx, DWORD PTR [edx-220]
	xor	ecx, eax
	call	@__security_check_cookie@4
	mov	eax, OFFSET __ehfuncinfo$??1?$ComPtr@UIUnknown@@@WRL@Microsoft@@QAE@XZ
	jmp	___CxxFrameHandler3
text$x	ENDS
??1?$ComPtr@UIUnknown@@@WRL@Microsoft@@QAE@XZ ENDP	; Microsoft::WRL::ComPtr<IUnknown>::~ComPtr<IUnknown>
; Function compile flags: /Odtp /RTCsu /ZI
;	COMDAT ?InternalRelease@?$ComPtr@UIUnknown@@@WRL@Microsoft@@IAEKXZ
_TEXT	SEGMENT
_temp$ = -44						; size = 4
_ref$ = -32						; size = 4
_this$ = -20						; size = 4
__$EHRec$ = -12						; size = 12
?InternalRelease@?$ComPtr@UIUnknown@@@WRL@Microsoft@@IAEKXZ PROC ; Microsoft::WRL::ComPtr<IUnknown>::InternalRelease, COMDAT
; _this$ = ecx
; File C:\Program Files (x86)\Windows Kits\10\Include\10.0.18362.0\winrt\wrl\client.h
; Line 169
	push	ebp
	mov	ebp, esp
	push	-1
	push	__ehhandler$?InternalRelease@?$ComPtr@UIUnknown@@@WRL@Microsoft@@IAEKXZ
	mov	eax, DWORD PTR fs:0
	push	eax
	sub	esp, 228				; 000000e4H
	push	ebx
	push	esi
	push	edi
	push	ecx
	lea	edi, DWORD PTR [ebp-240]
	mov	ecx, 57					; 00000039H
	mov	eax, -858993460				; ccccccccH
	rep stosd
	pop	ecx
	mov	eax, DWORD PTR ___security_cookie
	xor	eax, ebp
	push	eax
	lea	eax, DWORD PTR __$EHRec$[ebp]
	mov	DWORD PTR fs:0, eax
	mov	DWORD PTR _this$[ebp], ecx
	mov	ecx, OFFSET __687F9F38_client@h
	call	@__CheckForDebuggerJustMyCode@4
; Line 170
	mov	DWORD PTR _ref$[ebp], 0
; Line 171
	mov	eax, DWORD PTR _this$[ebp]
	mov	ecx, DWORD PTR [eax]
	mov	DWORD PTR _temp$[ebp], ecx
; Line 173
	cmp	DWORD PTR _temp$[ebp], 0
	je	SHORT $LN2@InternalRe
; Line 175
	mov	eax, DWORD PTR _this$[ebp]
	mov	DWORD PTR [eax], 0
; Line 176
	mov	eax, DWORD PTR _temp$[ebp]
	mov	ecx, DWORD PTR [eax]
	mov	esi, esp
	mov	edx, DWORD PTR _temp$[ebp]
	push	edx
	mov	eax, DWORD PTR [ecx+8]
	call	eax
	cmp	esi, esp
	call	__RTC_CheckEsp
	mov	DWORD PTR _ref$[ebp], eax
$LN2@InternalRe:
; Line 179
	mov	eax, DWORD PTR _ref$[ebp]
; Line 180
	mov	ecx, DWORD PTR __$EHRec$[ebp]
	mov	DWORD PTR fs:0, ecx
	pop	ecx
	pop	edi
	pop	esi
	pop	ebx
	add	esp, 240				; 000000f0H
	cmp	ebp, esp
	call	__RTC_CheckEsp
	mov	esp, ebp
	pop	ebp
	ret	0
	int	3
	int	3
	int	3
	int	3
	int	3
_TEXT	ENDS
;	COMDAT text$x
text$x	SEGMENT
__ehhandler$?InternalRelease@?$ComPtr@UIUnknown@@@WRL@Microsoft@@IAEKXZ:
	npad	1
	npad	1
	mov	edx, DWORD PTR [esp+8]
	lea	eax, DWORD PTR [edx+12]
	mov	ecx, DWORD PTR [edx-244]
	xor	ecx, eax
	call	@__security_check_cookie@4
	mov	eax, OFFSET __ehfuncinfo$?InternalRelease@?$ComPtr@UIUnknown@@@WRL@Microsoft@@IAEKXZ
	jmp	___CxxFrameHandler3
text$x	ENDS
?InternalRelease@?$ComPtr@UIUnknown@@@WRL@Microsoft@@IAEKXZ ENDP ; Microsoft::WRL::ComPtr<IUnknown>::InternalRelease
; Function compile flags: /Odtp /RTCsu /ZI
;	COMDAT ?__empty_global_delete@@YAXPAXIW4align_val_t@std@@@Z
_TEXT	SEGMENT
__$EHRec$ = -12						; size = 12
___formal$ = 8						; size = 4
___formal$ = 12						; size = 4
___formal$ = 16						; size = 4
?__empty_global_delete@@YAXPAXIW4align_val_t@std@@@Z PROC ; __empty_global_delete, COMDAT
; File F:\WindowSandbox\WindowSandbox\src\Game.cpp
; Line 34
	push	ebp
	mov	ebp, esp
	push	-1
	push	__ehhandler$?__empty_global_delete@@YAXPAXIW4align_val_t@std@@@Z
	mov	eax, DWORD PTR fs:0
	push	eax
	sub	esp, 192				; 000000c0H
	push	ebx
	push	esi
	push	edi
	lea	edi, DWORD PTR [ebp-204]
	mov	ecx, 48					; 00000030H
	mov	eax, -858993460				; ccccccccH
	rep stosd
	mov	eax, DWORD PTR ___security_cookie
	xor	eax, ebp
	push	eax
	lea	eax, DWORD PTR __$EHRec$[ebp]
	mov	DWORD PTR fs:0, eax
	mov	ecx, OFFSET __23CBB436_Game@cpp
	call	@__CheckForDebuggerJustMyCode@4
	mov	ecx, DWORD PTR __$EHRec$[ebp]
	mov	DWORD PTR fs:0, ecx
	pop	ecx
	pop	edi
	pop	esi
	pop	ebx
	add	esp, 204				; 000000ccH
	cmp	ebp, esp
	call	__RTC_CheckEsp
	mov	esp, ebp
	pop	ebp
	ret	0
	int	3
	int	3
	int	3
	int	3
	int	3
_TEXT	ENDS
;	COMDAT text$x
text$x	SEGMENT
__ehhandler$?__empty_global_delete@@YAXPAXIW4align_val_t@std@@@Z:
	npad	1
	npad	1
	mov	edx, DWORD PTR [esp+8]
	lea	eax, DWORD PTR [edx+12]
	mov	ecx, DWORD PTR [edx-208]
	xor	ecx, eax
	call	@__security_check_cookie@4
	mov	eax, OFFSET __ehfuncinfo$?__empty_global_delete@@YAXPAXIW4align_val_t@std@@@Z
	jmp	___CxxFrameHandler3
text$x	ENDS
?__empty_global_delete@@YAXPAXIW4align_val_t@std@@@Z ENDP ; __empty_global_delete
; Function compile flags: /Odtp /RTCsu /ZI
;	COMDAT ?__empty_global_delete@@YAXPAXW4align_val_t@std@@@Z
_TEXT	SEGMENT
__$EHRec$ = -12						; size = 12
___formal$ = 8						; size = 4
___formal$ = 12						; size = 4
?__empty_global_delete@@YAXPAXW4align_val_t@std@@@Z PROC ; __empty_global_delete, COMDAT
; File F:\WindowSandbox\WindowSandbox\src\Game.cpp
; Line 34
	push	ebp
	mov	ebp, esp
	push	-1
	push	__ehhandler$?__empty_global_delete@@YAXPAXW4align_val_t@std@@@Z
	mov	eax, DWORD PTR fs:0
	push	eax
	sub	esp, 192				; 000000c0H
	push	ebx
	push	esi
	push	edi
	lea	edi, DWORD PTR [ebp-204]
	mov	ecx, 48					; 00000030H
	mov	eax, -858993460				; ccccccccH
	rep stosd
	mov	eax, DWORD PTR ___security_cookie
	xor	eax, ebp
	push	eax
	lea	eax, DWORD PTR __$EHRec$[ebp]
	mov	DWORD PTR fs:0, eax
	mov	ecx, OFFSET __23CBB436_Game@cpp
	call	@__CheckForDebuggerJustMyCode@4
	mov	ecx, DWORD PTR __$EHRec$[ebp]
	mov	DWORD PTR fs:0, ecx
	pop	ecx
	pop	edi
	pop	esi
	pop	ebx
	add	esp, 204				; 000000ccH
	cmp	ebp, esp
	call	__RTC_CheckEsp
	mov	esp, ebp
	pop	ebp
	ret	0
	int	3
	int	3
	int	3
	int	3
	int	3
_TEXT	ENDS
;	COMDAT text$x
text$x	SEGMENT
__ehhandler$?__empty_global_delete@@YAXPAXW4align_val_t@std@@@Z:
	npad	1
	npad	1
	mov	edx, DWORD PTR [esp+8]
	lea	eax, DWORD PTR [edx+12]
	mov	ecx, DWORD PTR [edx-208]
	xor	ecx, eax
	call	@__security_check_cookie@4
	mov	eax, OFFSET __ehfuncinfo$?__empty_global_delete@@YAXPAXW4align_val_t@std@@@Z
	jmp	___CxxFrameHandler3
text$x	ENDS
?__empty_global_delete@@YAXPAXW4align_val_t@std@@@Z ENDP ; __empty_global_delete
; Function compile flags: /Odtp /RTCsu /ZI
;	COMDAT ?__empty_global_delete@@YAXPAXI@Z
_TEXT	SEGMENT
__$EHRec$ = -12						; size = 12
___formal$ = 8						; size = 4
___formal$ = 12						; size = 4
?__empty_global_delete@@YAXPAXI@Z PROC			; __empty_global_delete, COMDAT
; File F:\WindowSandbox\WindowSandbox\src\Game.cpp
; Line 34
	push	ebp
	mov	ebp, esp
	push	-1
	push	__ehhandler$?__empty_global_delete@@YAXPAXI@Z
	mov	eax, DWORD PTR fs:0
	push	eax
	sub	esp, 192				; 000000c0H
	push	ebx
	push	esi
	push	edi
	lea	edi, DWORD PTR [ebp-204]
	mov	ecx, 48					; 00000030H
	mov	eax, -858993460				; ccccccccH
	rep stosd
	mov	eax, DWORD PTR ___security_cookie
	xor	eax, ebp
	push	eax
	lea	eax, DWORD PTR __$EHRec$[ebp]
	mov	DWORD PTR fs:0, eax
	mov	ecx, OFFSET __23CBB436_Game@cpp
	call	@__CheckForDebuggerJustMyCode@4
	mov	ecx, DWORD PTR __$EHRec$[ebp]
	mov	DWORD PTR fs:0, ecx
	pop	ecx
	pop	edi
	pop	esi
	pop	ebx
	add	esp, 204				; 000000ccH
	cmp	ebp, esp
	call	__RTC_CheckEsp
	mov	esp, ebp
	pop	ebp
	ret	0
	int	3
	int	3
	int	3
	int	3
	int	3
_TEXT	ENDS
;	COMDAT text$x
text$x	SEGMENT
__ehhandler$?__empty_global_delete@@YAXPAXI@Z:
	npad	1
	npad	1
	mov	edx, DWORD PTR [esp+8]
	lea	eax, DWORD PTR [edx+12]
	mov	ecx, DWORD PTR [edx-208]
	xor	ecx, eax
	call	@__security_check_cookie@4
	mov	eax, OFFSET __ehfuncinfo$?__empty_global_delete@@YAXPAXI@Z
	jmp	___CxxFrameHandler3
text$x	ENDS
?__empty_global_delete@@YAXPAXI@Z ENDP			; __empty_global_delete
; Function compile flags: /Odtp /RTCsu /ZI
;	COMDAT ?__empty_global_delete@@YAXPAX@Z
_TEXT	SEGMENT
__$EHRec$ = -12						; size = 12
___formal$ = 8						; size = 4
?__empty_global_delete@@YAXPAX@Z PROC			; __empty_global_delete, COMDAT
; File F:\WindowSandbox\WindowSandbox\src\Game.cpp
; Line 34
	push	ebp
	mov	ebp, esp
	push	-1
	push	__ehhandler$?__empty_global_delete@@YAXPAX@Z
	mov	eax, DWORD PTR fs:0
	push	eax
	sub	esp, 192				; 000000c0H
	push	ebx
	push	esi
	push	edi
	lea	edi, DWORD PTR [ebp-204]
	mov	ecx, 48					; 00000030H
	mov	eax, -858993460				; ccccccccH
	rep stosd
	mov	eax, DWORD PTR ___security_cookie
	xor	eax, ebp
	push	eax
	lea	eax, DWORD PTR __$EHRec$[ebp]
	mov	DWORD PTR fs:0, eax
	mov	ecx, OFFSET __23CBB436_Game@cpp
	call	@__CheckForDebuggerJustMyCode@4
	mov	ecx, DWORD PTR __$EHRec$[ebp]
	mov	DWORD PTR fs:0, ecx
	pop	ecx
	pop	edi
	pop	esi
	pop	ebx
	add	esp, 204				; 000000ccH
	cmp	ebp, esp
	call	__RTC_CheckEsp
	mov	esp, ebp
	pop	ebp
	ret	0
	int	3
	int	3
	int	3
	int	3
	int	3
_TEXT	ENDS
;	COMDAT text$x
text$x	SEGMENT
__ehhandler$?__empty_global_delete@@YAXPAX@Z:
	npad	1
	npad	1
	mov	edx, DWORD PTR [esp+8]
	lea	eax, DWORD PTR [edx+12]
	mov	ecx, DWORD PTR [edx-208]
	xor	ecx, eax
	call	@__security_check_cookie@4
	mov	eax, OFFSET __ehfuncinfo$?__empty_global_delete@@YAXPAX@Z
	jmp	___CxxFrameHandler3
text$x	ENDS
?__empty_global_delete@@YAXPAX@Z ENDP			; __empty_global_delete
END
