; Listing generated by Microsoft (R) Optimizing Compiler Version 19.27.29111.0 

	TITLE	F:\WindowSandbox\WindowSandbox\src\Keyboard.cpp
	.686P
	.XMM
	include listing.inc
	.model	flat

INCLUDELIB MSVCRTD
INCLUDELIB OLDNAMES

msvcjmc	SEGMENT
__8906660C_vcruntime_new@h DB 01H
__09340588_corecrt_math@h DB 01H
__24E9E95F_stdlib@h DB 01H
__F8119FB4_cstdlib DB 01H
__F66CEB67_corecrt_stdio_config@h DB 01H
__101834BA_corecrt_wstdio@h DB 01H
__AD6A91B7_stdio@h DB 01H
__367CC694_corecrt_memcpy_s@h DB 01H
__5467428D_corecrt_wconio@h DB 01H
__4442441F_corecrt_wio@h DB 01H
__DC9673E3_corecrt_wstring@h DB 01H
__45F4AF76_corecrt_wtime@h DB 01H
__186FF47F_stat@h DB 01H
__534C724A_wchar@h DB 01H
__F2870A2C_limits DB 01H
__85A9AA98_type_traits DB 01H
__B0C4CEA9_malloc@h DB 01H
__E75714E4_vcruntime_exception@h DB 01H
__E4152856_exception DB 01H
__35D7DDB3_corecrt_memory@h DB 01H
__A29A7DFB_string@h DB 01H
__4324C6B3_xutility DB 01H
__A58979FC_xmemory DB 01H
__0ED96A82_algorithm DB 01H
__D15AFF60_xstring DB 01H
__781ADC3E_Keyboard@h DB 01H
__E561F523_queue DB 01H
__BDCF1AB3_Keyboard@cpp DB 01H
__3990E35C_bitset DB 01H
__0657B1E2_deque DB 01H
__CF1C1A3F_utility DB 01H
__38038D2D_xstddef DB 01H
msvcjmc	ENDS
PUBLIC	??2@YAPAXIPAX@Z					; operator new
PUBLIC	?max@?$numeric_limits@H@std@@SAHXZ		; std::numeric_limits<int>::max
PUBLIC	??0exception@std@@QAE@QBDH@Z			; std::exception::exception
PUBLIC	??0exception@std@@QAE@ABV01@@Z			; std::exception::exception
PUBLIC	??1exception@std@@UAE@XZ			; std::exception::~exception
PUBLIC	?what@exception@std@@UBEPBDXZ			; std::exception::what
PUBLIC	??_Gexception@std@@UAEPAXI@Z			; std::exception::`scalar deleting destructor'
PUBLIC	??0bad_alloc@std@@AAE@QBD@Z			; std::bad_alloc::bad_alloc
PUBLIC	??1bad_alloc@std@@UAE@XZ			; std::bad_alloc::~bad_alloc
PUBLIC	??0bad_alloc@std@@QAE@ABV01@@Z			; std::bad_alloc::bad_alloc
PUBLIC	??_Gbad_alloc@std@@UAEPAXI@Z			; std::bad_alloc::`scalar deleting destructor'
PUBLIC	??0bad_array_new_length@std@@QAE@XZ		; std::bad_array_new_length::bad_array_new_length
PUBLIC	??1bad_array_new_length@std@@UAE@XZ		; std::bad_array_new_length::~bad_array_new_length
PUBLIC	??0bad_array_new_length@std@@QAE@ABV01@@Z	; std::bad_array_new_length::bad_array_new_length
PUBLIC	??_Gbad_array_new_length@std@@UAEPAXI@Z		; std::bad_array_new_length::`scalar deleting destructor'
PUBLIC	?_Throw_bad_array_new_length@std@@YAXXZ		; std::_Throw_bad_array_new_length
PUBLIC	?_Allocate@_Default_allocate_traits@std@@SAPAXI@Z ; std::_Default_allocate_traits::_Allocate
PUBLIC	?_Adjust_manually_vector_aligned@std@@YAXAAPAXAAI@Z ; std::_Adjust_manually_vector_aligned
PUBLIC	??0_Container_proxy@std@@QAE@PAU_Container_base12@1@@Z ; std::_Container_proxy::_Container_proxy
PUBLIC	??0_Container_base12@std@@QAE@XZ		; std::_Container_base12::_Container_base12
PUBLIC	?_Orphan_all@_Container_base12@std@@QAEXXZ	; std::_Container_base12::_Orphan_all
PUBLIC	?_Swap_proxy_and_iterators@_Container_base12@std@@QAEXAAU12@@Z ; std::_Container_base12::_Swap_proxy_and_iterators
PUBLIC	??$_Construct_in_place@U_Container_proxy@std@@PAU_Container_base12@2@@std@@YAXAAU_Container_proxy@0@$$QAPAU_Container_base12@0@@Z ; std::_Construct_in_place<std::_Container_proxy,std::_Container_base12 *>
PUBLIC	??0?$allocator@D@std@@QAE@XZ			; std::allocator<char>::allocator<char>
PUBLIC	?deallocate@?$allocator@D@std@@QAEXQADI@Z	; std::allocator<char>::deallocate
PUBLIC	?allocate@?$allocator@D@std@@QAEPADI@Z		; std::allocator<char>::allocate
PUBLIC	?max_size@?$_Default_allocator_traits@V?$allocator@D@std@@@std@@SAIABV?$allocator@D@2@@Z ; std::_Default_allocator_traits<std::allocator<char> >::max_size
PUBLIC	??0Event@Keyboard@@QAE@XZ			; Keyboard::Event::Event
PUBLIC	??0Event@Keyboard@@QAE@W4Type@01@E@Z		; Keyboard::Event::Event
PUBLIC	?KeyIsPressed@Keyboard@@QBE_NE@Z		; Keyboard::KeyIsPressed
PUBLIC	?ReadKey@Keyboard@@QAE?AVEvent@1@XZ		; Keyboard::ReadKey
PUBLIC	?KeyIsEmpty@Keyboard@@QBE_NXZ			; Keyboard::KeyIsEmpty
PUBLIC	?ClearKey@Keyboard@@QAEXXZ			; Keyboard::ClearKey
PUBLIC	?ReadChar@Keyboard@@QAEDXZ			; Keyboard::ReadChar
PUBLIC	?CharIsEmpty@Keyboard@@QBE_NXZ			; Keyboard::CharIsEmpty
PUBLIC	?ClearChar@Keyboard@@QAEXXZ			; Keyboard::ClearChar
PUBLIC	?Clear@Keyboard@@QAEXXZ				; Keyboard::Clear
PUBLIC	?EnableAutorepeat@Keyboard@@QAEXXZ		; Keyboard::EnableAutorepeat
PUBLIC	?DisableAutorepeat@Keyboard@@QAEXXZ		; Keyboard::DisableAutorepeat
PUBLIC	?AutorepeatIsEnabled@Keyboard@@QBE_NXZ		; Keyboard::AutorepeatIsEnabled
PUBLIC	?OnKeyPressed@Keyboard@@AAEXE@Z			; Keyboard::OnKeyPressed
PUBLIC	?OnKeyReleased@Keyboard@@AAEXE@Z		; Keyboard::OnKeyReleased
PUBLIC	?OnChar@Keyboard@@AAEXD@Z			; Keyboard::OnChar
PUBLIC	?ClearState@Keyboard@@AAEXXZ			; Keyboard::ClearState
PUBLIC	?_Validate@?$bitset@$0BAA@@std@@SAXI@Z		; std::bitset<256>::_Validate
PUBLIC	?_Subscript@?$bitset@$0BAA@@std@@QBE_NI@Z	; std::bitset<256>::_Subscript
PUBLIC	??A?$bitset@$0BAA@@std@@QBE_NI@Z		; std::bitset<256>::operator[]
PUBLIC	??A?$bitset@$0BAA@@std@@QAE?AVreference@01@I@Z	; std::bitset<256>::operator[]
PUBLIC	?reset@?$bitset@$0BAA@@std@@QAEAAV12@XZ		; std::bitset<256>::reset
PUBLIC	?_Set_unchecked@?$bitset@$0BAA@@std@@AAEAAV12@I_N@Z ; std::bitset<256>::_Set_unchecked
PUBLIC	??0?$allocator@VEvent@Keyboard@@@std@@QAE@XZ	; std::allocator<Keyboard::Event>::allocator<Keyboard::Event>
PUBLIC	?deallocate@?$allocator@VEvent@Keyboard@@@std@@QAEXQAVEvent@Keyboard@@I@Z ; std::allocator<Keyboard::Event>::deallocate
PUBLIC	?allocate@?$allocator@VEvent@Keyboard@@@std@@QAEPAVEvent@Keyboard@@I@Z ; std::allocator<Keyboard::Event>::allocate
PUBLIC	?max_size@?$_Default_allocator_traits@V?$allocator@VEvent@Keyboard@@@std@@@std@@SAIABV?$allocator@VEvent@Keyboard@@@2@@Z ; std::_Default_allocator_traits<std::allocator<Keyboard::Event> >::max_size
PUBLIC	?deallocate@?$allocator@PAVEvent@Keyboard@@@std@@QAEXQAPAVEvent@Keyboard@@I@Z ; std::allocator<Keyboard::Event *>::deallocate
PUBLIC	?allocate@?$allocator@PAVEvent@Keyboard@@@std@@QAEPAPAVEvent@Keyboard@@I@Z ; std::allocator<Keyboard::Event *>::allocate
PUBLIC	??0?$deque@VEvent@Keyboard@@V?$allocator@VEvent@Keyboard@@@std@@@std@@QAE@XZ ; std::deque<Keyboard::Event,std::allocator<Keyboard::Event> >::deque<Keyboard::Event,std::allocator<Keyboard::Event> >
PUBLIC	?_Move_assign@?$deque@VEvent@Keyboard@@V?$allocator@VEvent@Keyboard@@@std@@@std@@AAEXAAV12@U_Equal_allocators@2@@Z ; std::deque<Keyboard::Event,std::allocator<Keyboard::Event> >::_Move_assign
PUBLIC	??4?$deque@VEvent@Keyboard@@V?$allocator@VEvent@Keyboard@@@std@@@std@@QAEAAV01@$$QAV01@@Z ; std::deque<Keyboard::Event,std::allocator<Keyboard::Event> >::operator=
PUBLIC	?_Take_contents@?$deque@VEvent@Keyboard@@V?$allocator@VEvent@Keyboard@@@std@@@std@@AAEXAAV12@@Z ; std::deque<Keyboard::Event,std::allocator<Keyboard::Event> >::_Take_contents
PUBLIC	?push_back@?$deque@VEvent@Keyboard@@V?$allocator@VEvent@Keyboard@@@std@@@std@@QAEX$$QAVEvent@Keyboard@@@Z ; std::deque<Keyboard::Event,std::allocator<Keyboard::Event> >::push_back
PUBLIC	??1?$deque@VEvent@Keyboard@@V?$allocator@VEvent@Keyboard@@@std@@@std@@QAE@XZ ; std::deque<Keyboard::Event,std::allocator<Keyboard::Event> >::~deque<Keyboard::Event,std::allocator<Keyboard::Event> >
PUBLIC	?_Unchecked_begin@?$deque@VEvent@Keyboard@@V?$allocator@VEvent@Keyboard@@@std@@@std@@QAE?AV?$_Deque_unchecked_iterator@V?$_Deque_val@U?$_Deque_simple_types@VEvent@Keyboard@@@std@@@std@@@2@XZ ; std::deque<Keyboard::Event,std::allocator<Keyboard::Event> >::_Unchecked_begin
PUBLIC	?size@?$deque@VEvent@Keyboard@@V?$allocator@VEvent@Keyboard@@@std@@@std@@QBEIXZ ; std::deque<Keyboard::Event,std::allocator<Keyboard::Event> >::size
PUBLIC	?max_size@?$deque@VEvent@Keyboard@@V?$allocator@VEvent@Keyboard@@@std@@@std@@QBEIXZ ; std::deque<Keyboard::Event,std::allocator<Keyboard::Event> >::max_size
PUBLIC	?empty@?$deque@VEvent@Keyboard@@V?$allocator@VEvent@Keyboard@@@std@@@std@@QBE_NXZ ; std::deque<Keyboard::Event,std::allocator<Keyboard::Event> >::empty
PUBLIC	?front@?$deque@VEvent@Keyboard@@V?$allocator@VEvent@Keyboard@@@std@@@std@@QAEAAVEvent@Keyboard@@XZ ; std::deque<Keyboard::Event,std::allocator<Keyboard::Event> >::front
PUBLIC	?pop_front@?$deque@VEvent@Keyboard@@V?$allocator@VEvent@Keyboard@@@std@@@std@@QAEXXZ ; std::deque<Keyboard::Event,std::allocator<Keyboard::Event> >::pop_front
PUBLIC	?pop_back@?$deque@VEvent@Keyboard@@V?$allocator@VEvent@Keyboard@@@std@@@std@@QAEXXZ ; std::deque<Keyboard::Event,std::allocator<Keyboard::Event> >::pop_back
PUBLIC	?_Xlen@?$deque@VEvent@Keyboard@@V?$allocator@VEvent@Keyboard@@@std@@@std@@ABEXXZ ; std::deque<Keyboard::Event,std::allocator<Keyboard::Event> >::_Xlen
PUBLIC	?_Growmap@?$deque@VEvent@Keyboard@@V?$allocator@VEvent@Keyboard@@@std@@@std@@AAEXI@Z ; std::deque<Keyboard::Event,std::allocator<Keyboard::Event> >::_Growmap
PUBLIC	?_Tidy@?$deque@VEvent@Keyboard@@V?$allocator@VEvent@Keyboard@@@std@@@std@@AAEXXZ ; std::deque<Keyboard::Event,std::allocator<Keyboard::Event> >::_Tidy
PUBLIC	?_Orphan_off@?$deque@VEvent@Keyboard@@V?$allocator@VEvent@Keyboard@@@std@@@std@@ABEXI@Z ; std::deque<Keyboard::Event,std::allocator<Keyboard::Event> >::_Orphan_off
PUBLIC	?_Getblock@?$deque@VEvent@Keyboard@@V?$allocator@VEvent@Keyboard@@@std@@@std@@ABEII@Z ; std::deque<Keyboard::Event,std::allocator<Keyboard::Event> >::_Getblock
PUBLIC	?_Orphan_all@?$deque@VEvent@Keyboard@@V?$allocator@VEvent@Keyboard@@@std@@@std@@AAEXXZ ; std::deque<Keyboard::Event,std::allocator<Keyboard::Event> >::_Orphan_all
PUBLIC	?_Getal@?$deque@VEvent@Keyboard@@V?$allocator@VEvent@Keyboard@@@std@@@std@@AAEAAV?$allocator@VEvent@Keyboard@@@2@XZ ; std::deque<Keyboard::Event,std::allocator<Keyboard::Event> >::_Getal
PUBLIC	?_Getal@?$deque@VEvent@Keyboard@@V?$allocator@VEvent@Keyboard@@@std@@@std@@ABEABV?$allocator@VEvent@Keyboard@@@2@XZ ; std::deque<Keyboard::Event,std::allocator<Keyboard::Event> >::_Getal
PUBLIC	?_Get_data@?$deque@VEvent@Keyboard@@V?$allocator@VEvent@Keyboard@@@std@@@std@@AAEAAV?$_Deque_val@U?$_Deque_simple_types@VEvent@Keyboard@@@std@@@2@XZ ; std::deque<Keyboard::Event,std::allocator<Keyboard::Event> >::_Get_data
PUBLIC	?_Get_data@?$deque@VEvent@Keyboard@@V?$allocator@VEvent@Keyboard@@@std@@@std@@ABEABV?$_Deque_val@U?$_Deque_simple_types@VEvent@Keyboard@@@std@@@2@XZ ; std::deque<Keyboard::Event,std::allocator<Keyboard::Event> >::_Get_data
PUBLIC	?_Map@?$deque@VEvent@Keyboard@@V?$allocator@VEvent@Keyboard@@@std@@@std@@AAEAAPAPAVEvent@Keyboard@@XZ ; std::deque<Keyboard::Event,std::allocator<Keyboard::Event> >::_Map
PUBLIC	?_Mapsize@?$deque@VEvent@Keyboard@@V?$allocator@VEvent@Keyboard@@@std@@@std@@AAEAAIXZ ; std::deque<Keyboard::Event,std::allocator<Keyboard::Event> >::_Mapsize
PUBLIC	?_Myoff@?$deque@VEvent@Keyboard@@V?$allocator@VEvent@Keyboard@@@std@@@std@@AAEAAIXZ ; std::deque<Keyboard::Event,std::allocator<Keyboard::Event> >::_Myoff
PUBLIC	?_Myoff@?$deque@VEvent@Keyboard@@V?$allocator@VEvent@Keyboard@@@std@@@std@@ABEABIXZ ; std::deque<Keyboard::Event,std::allocator<Keyboard::Event> >::_Myoff
PUBLIC	?_Mysize@?$deque@VEvent@Keyboard@@V?$allocator@VEvent@Keyboard@@@std@@@std@@AAEAAIXZ ; std::deque<Keyboard::Event,std::allocator<Keyboard::Event> >::_Mysize
PUBLIC	?_Mysize@?$deque@VEvent@Keyboard@@V?$allocator@VEvent@Keyboard@@@std@@@std@@ABEABIXZ ; std::deque<Keyboard::Event,std::allocator<Keyboard::Event> >::_Mysize
PUBLIC	??0?$_Deque_val@U?$_Deque_simple_types@VEvent@Keyboard@@@std@@@std@@QAE@XZ ; std::_Deque_val<std::_Deque_simple_types<Keyboard::Event> >::_Deque_val<std::_Deque_simple_types<Keyboard::Event> >
PUBLIC	?_Getblock@?$_Deque_val@U?$_Deque_simple_types@VEvent@Keyboard@@@std@@@std@@QBEII@Z ; std::_Deque_val<std::_Deque_simple_types<Keyboard::Event> >::_Getblock
PUBLIC	?_Get_first@?$_Compressed_pair@V?$allocator@VEvent@Keyboard@@@std@@V?$_Deque_val@U?$_Deque_simple_types@VEvent@Keyboard@@@std@@@2@$00@std@@QAEAAV?$allocator@VEvent@Keyboard@@@2@XZ ; std::_Compressed_pair<std::allocator<Keyboard::Event>,std::_Deque_val<std::_Deque_simple_types<Keyboard::Event> >,1>::_Get_first
PUBLIC	?_Get_first@?$_Compressed_pair@V?$allocator@VEvent@Keyboard@@@std@@V?$_Deque_val@U?$_Deque_simple_types@VEvent@Keyboard@@@std@@@2@$00@std@@QBEABV?$allocator@VEvent@Keyboard@@@2@XZ ; std::_Compressed_pair<std::allocator<Keyboard::Event>,std::_Deque_val<std::_Deque_simple_types<Keyboard::Event> >,1>::_Get_first
PUBLIC	??0?$queue@VEvent@Keyboard@@V?$deque@VEvent@Keyboard@@V?$allocator@VEvent@Keyboard@@@std@@@std@@@std@@QAE@XZ ; std::queue<Keyboard::Event,std::deque<Keyboard::Event,std::allocator<Keyboard::Event> > >::queue<Keyboard::Event,std::deque<Keyboard::Event,std::allocator<Keyboard::Event> > >
PUBLIC	?empty@?$queue@VEvent@Keyboard@@V?$deque@VEvent@Keyboard@@V?$allocator@VEvent@Keyboard@@@std@@@std@@@std@@QBE_NXZ ; std::queue<Keyboard::Event,std::deque<Keyboard::Event,std::allocator<Keyboard::Event> > >::empty
PUBLIC	?size@?$queue@VEvent@Keyboard@@V?$deque@VEvent@Keyboard@@V?$allocator@VEvent@Keyboard@@@std@@@std@@@std@@QBEIXZ ; std::queue<Keyboard::Event,std::deque<Keyboard::Event,std::allocator<Keyboard::Event> > >::size
PUBLIC	?front@?$queue@VEvent@Keyboard@@V?$deque@VEvent@Keyboard@@V?$allocator@VEvent@Keyboard@@@std@@@std@@@std@@QAEAAVEvent@Keyboard@@XZ ; std::queue<Keyboard::Event,std::deque<Keyboard::Event,std::allocator<Keyboard::Event> > >::front
PUBLIC	?push@?$queue@VEvent@Keyboard@@V?$deque@VEvent@Keyboard@@V?$allocator@VEvent@Keyboard@@@std@@@std@@@std@@QAEX$$QAVEvent@Keyboard@@@Z ; std::queue<Keyboard::Event,std::deque<Keyboard::Event,std::allocator<Keyboard::Event> > >::push
PUBLIC	?pop@?$queue@VEvent@Keyboard@@V?$deque@VEvent@Keyboard@@V?$allocator@VEvent@Keyboard@@@std@@@std@@@std@@QAEXXZ ; std::queue<Keyboard::Event,std::deque<Keyboard::Event,std::allocator<Keyboard::Event> > >::pop
PUBLIC	??1?$queue@VEvent@Keyboard@@V?$deque@VEvent@Keyboard@@V?$allocator@VEvent@Keyboard@@@std@@@std@@@std@@QAE@XZ ; std::queue<Keyboard::Event,std::deque<Keyboard::Event,std::allocator<Keyboard::Event> > >::~queue<Keyboard::Event,std::deque<Keyboard::Event,std::allocator<Keyboard::Event> > >
PUBLIC	??4?$queue@VEvent@Keyboard@@V?$deque@VEvent@Keyboard@@V?$allocator@VEvent@Keyboard@@@std@@@std@@@std@@QAEAAV01@$$QAV01@@Z ; std::queue<Keyboard::Event,std::deque<Keyboard::Event,std::allocator<Keyboard::Event> > >::operator=
PUBLIC	?deallocate@?$allocator@PAD@std@@QAEXQAPADI@Z	; std::allocator<char *>::deallocate
PUBLIC	?allocate@?$allocator@PAD@std@@QAEPAPADI@Z	; std::allocator<char *>::allocate
PUBLIC	??0?$deque@DV?$allocator@D@std@@@std@@QAE@XZ	; std::deque<char,std::allocator<char> >::deque<char,std::allocator<char> >
PUBLIC	?_Move_assign@?$deque@DV?$allocator@D@std@@@std@@AAEXAAV12@U_Equal_allocators@2@@Z ; std::deque<char,std::allocator<char> >::_Move_assign
PUBLIC	??4?$deque@DV?$allocator@D@std@@@std@@QAEAAV01@$$QAV01@@Z ; std::deque<char,std::allocator<char> >::operator=
PUBLIC	?_Take_contents@?$deque@DV?$allocator@D@std@@@std@@AAEXAAV12@@Z ; std::deque<char,std::allocator<char> >::_Take_contents
PUBLIC	??1?$deque@DV?$allocator@D@std@@@std@@QAE@XZ	; std::deque<char,std::allocator<char> >::~deque<char,std::allocator<char> >
PUBLIC	?_Unchecked_begin@?$deque@DV?$allocator@D@std@@@std@@QAE?AV?$_Deque_unchecked_iterator@V?$_Deque_val@U?$_Deque_simple_types@D@std@@@std@@@2@XZ ; std::deque<char,std::allocator<char> >::_Unchecked_begin
PUBLIC	?size@?$deque@DV?$allocator@D@std@@@std@@QBEIXZ	; std::deque<char,std::allocator<char> >::size
PUBLIC	?max_size@?$deque@DV?$allocator@D@std@@@std@@QBEIXZ ; std::deque<char,std::allocator<char> >::max_size
PUBLIC	?empty@?$deque@DV?$allocator@D@std@@@std@@QBE_NXZ ; std::deque<char,std::allocator<char> >::empty
PUBLIC	?front@?$deque@DV?$allocator@D@std@@@std@@QAEAADXZ ; std::deque<char,std::allocator<char> >::front
PUBLIC	?pop_front@?$deque@DV?$allocator@D@std@@@std@@QAEXXZ ; std::deque<char,std::allocator<char> >::pop_front
PUBLIC	?push_back@?$deque@DV?$allocator@D@std@@@std@@QAEXABD@Z ; std::deque<char,std::allocator<char> >::push_back
PUBLIC	?pop_back@?$deque@DV?$allocator@D@std@@@std@@QAEXXZ ; std::deque<char,std::allocator<char> >::pop_back
PUBLIC	?_Xlen@?$deque@DV?$allocator@D@std@@@std@@ABEXXZ ; std::deque<char,std::allocator<char> >::_Xlen
PUBLIC	?_Growmap@?$deque@DV?$allocator@D@std@@@std@@AAEXI@Z ; std::deque<char,std::allocator<char> >::_Growmap
PUBLIC	?_Tidy@?$deque@DV?$allocator@D@std@@@std@@AAEXXZ ; std::deque<char,std::allocator<char> >::_Tidy
PUBLIC	?_Orphan_off@?$deque@DV?$allocator@D@std@@@std@@ABEXI@Z ; std::deque<char,std::allocator<char> >::_Orphan_off
PUBLIC	?_Getblock@?$deque@DV?$allocator@D@std@@@std@@ABEII@Z ; std::deque<char,std::allocator<char> >::_Getblock
PUBLIC	?_Orphan_all@?$deque@DV?$allocator@D@std@@@std@@AAEXXZ ; std::deque<char,std::allocator<char> >::_Orphan_all
PUBLIC	?_Getal@?$deque@DV?$allocator@D@std@@@std@@AAEAAV?$allocator@D@2@XZ ; std::deque<char,std::allocator<char> >::_Getal
PUBLIC	?_Getal@?$deque@DV?$allocator@D@std@@@std@@ABEABV?$allocator@D@2@XZ ; std::deque<char,std::allocator<char> >::_Getal
PUBLIC	?_Get_data@?$deque@DV?$allocator@D@std@@@std@@AAEAAV?$_Deque_val@U?$_Deque_simple_types@D@std@@@2@XZ ; std::deque<char,std::allocator<char> >::_Get_data
PUBLIC	?_Get_data@?$deque@DV?$allocator@D@std@@@std@@ABEABV?$_Deque_val@U?$_Deque_simple_types@D@std@@@2@XZ ; std::deque<char,std::allocator<char> >::_Get_data
PUBLIC	?_Map@?$deque@DV?$allocator@D@std@@@std@@AAEAAPAPADXZ ; std::deque<char,std::allocator<char> >::_Map
PUBLIC	?_Mapsize@?$deque@DV?$allocator@D@std@@@std@@AAEAAIXZ ; std::deque<char,std::allocator<char> >::_Mapsize
PUBLIC	?_Myoff@?$deque@DV?$allocator@D@std@@@std@@AAEAAIXZ ; std::deque<char,std::allocator<char> >::_Myoff
PUBLIC	?_Myoff@?$deque@DV?$allocator@D@std@@@std@@ABEABIXZ ; std::deque<char,std::allocator<char> >::_Myoff
PUBLIC	?_Mysize@?$deque@DV?$allocator@D@std@@@std@@AAEAAIXZ ; std::deque<char,std::allocator<char> >::_Mysize
PUBLIC	?_Mysize@?$deque@DV?$allocator@D@std@@@std@@ABEABIXZ ; std::deque<char,std::allocator<char> >::_Mysize
PUBLIC	??0?$_Deque_val@U?$_Deque_simple_types@D@std@@@std@@QAE@XZ ; std::_Deque_val<std::_Deque_simple_types<char> >::_Deque_val<std::_Deque_simple_types<char> >
PUBLIC	?_Getblock@?$_Deque_val@U?$_Deque_simple_types@D@std@@@std@@QBEII@Z ; std::_Deque_val<std::_Deque_simple_types<char> >::_Getblock
PUBLIC	?_Get_first@?$_Compressed_pair@V?$allocator@D@std@@V?$_Deque_val@U?$_Deque_simple_types@D@std@@@2@$00@std@@QAEAAV?$allocator@D@2@XZ ; std::_Compressed_pair<std::allocator<char>,std::_Deque_val<std::_Deque_simple_types<char> >,1>::_Get_first
PUBLIC	?_Get_first@?$_Compressed_pair@V?$allocator@D@std@@V?$_Deque_val@U?$_Deque_simple_types@D@std@@@2@$00@std@@QBEABV?$allocator@D@2@XZ ; std::_Compressed_pair<std::allocator<char>,std::_Deque_val<std::_Deque_simple_types<char> >,1>::_Get_first
PUBLIC	??0?$queue@DV?$deque@DV?$allocator@D@std@@@std@@@std@@QAE@XZ ; std::queue<char,std::deque<char,std::allocator<char> > >::queue<char,std::deque<char,std::allocator<char> > >
PUBLIC	?empty@?$queue@DV?$deque@DV?$allocator@D@std@@@std@@@std@@QBE_NXZ ; std::queue<char,std::deque<char,std::allocator<char> > >::empty
PUBLIC	?size@?$queue@DV?$deque@DV?$allocator@D@std@@@std@@@std@@QBEIXZ ; std::queue<char,std::deque<char,std::allocator<char> > >::size
PUBLIC	?front@?$queue@DV?$deque@DV?$allocator@D@std@@@std@@@std@@QAEAADXZ ; std::queue<char,std::deque<char,std::allocator<char> > >::front
PUBLIC	?push@?$queue@DV?$deque@DV?$allocator@D@std@@@std@@@std@@QAEXABD@Z ; std::queue<char,std::deque<char,std::allocator<char> > >::push
PUBLIC	?pop@?$queue@DV?$deque@DV?$allocator@D@std@@@std@@@std@@QAEXXZ ; std::queue<char,std::deque<char,std::allocator<char> > >::pop
PUBLIC	??1?$queue@DV?$deque@DV?$allocator@D@std@@@std@@@std@@QAE@XZ ; std::queue<char,std::deque<char,std::allocator<char> > >::~queue<char,std::deque<char,std::allocator<char> > >
PUBLIC	??4?$queue@DV?$deque@DV?$allocator@D@std@@@std@@@std@@QAEAAV01@$$QAV01@@Z ; std::queue<char,std::deque<char,std::allocator<char> > >::operator=
PUBLIC	??1reference@?$bitset@$0BAA@@std@@QAE@XZ	; std::bitset<256>::reference::~reference
PUBLIC	??4reference@?$bitset@$0BAA@@std@@QAEAAV012@_N@Z ; std::bitset<256>::reference::operator=
PUBLIC	??0reference@?$bitset@$0BAA@@std@@AAE@AAV12@I@Z	; std::bitset<256>::reference::reference
PUBLIC	??$TrimBuffer@VEvent@Keyboard@@@Keyboard@@CAXAAV?$queue@VEvent@Keyboard@@V?$deque@VEvent@Keyboard@@V?$allocator@VEvent@Keyboard@@@std@@@std@@@std@@@Z ; Keyboard::TrimBuffer<Keyboard::Event>
PUBLIC	??$TrimBuffer@D@Keyboard@@CAXAAV?$queue@DV?$deque@DV?$allocator@D@std@@@std@@@std@@@Z ; Keyboard::TrimBuffer<char>
PUBLIC	?allocate@?$allocator@U_Container_proxy@std@@@std@@QAEPAU_Container_proxy@2@I@Z ; std::allocator<std::_Container_proxy>::allocate
PUBLIC	??$?0D@?$allocator@U_Container_proxy@std@@@std@@QAE@ABV?$allocator@D@1@@Z ; std::allocator<std::_Container_proxy>::allocator<std::_Container_proxy><char>
PUBLIC	??$exchange@PAU_Container_proxy@std@@$$T@std@@YAPAU_Container_proxy@0@AAPAU10@$$QA$$T@Z ; std::exchange<std::_Container_proxy *,std::nullptr_t>
PUBLIC	??$_Delete_plain_internal@V?$allocator@U_Container_proxy@std@@@std@@@std@@YAXAAV?$allocator@U_Container_proxy@std@@@0@QAU_Container_proxy@0@@Z ; std::_Delete_plain_internal<std::allocator<std::_Container_proxy> >
PUBLIC	??$addressof@V?$deque@DV?$allocator@D@std@@@std@@@std@@YAPAV?$deque@DV?$allocator@D@std@@@0@AAV10@@Z ; std::addressof<std::deque<char,std::allocator<char> > >
PUBLIC	??$?0$$V@?$_Compressed_pair@V?$allocator@D@std@@V?$_Deque_val@U?$_Deque_simple_types@D@std@@@2@$00@std@@QAE@U_Zero_then_variadic_args_t@1@@Z ; std::_Compressed_pair<std::allocator<char>,std::_Deque_val<std::_Deque_simple_types<char> >,1>::_Compressed_pair<std::allocator<char>,std::_Deque_val<std::_Deque_simple_types<char> >,1><>
PUBLIC	??$_Alloc_proxy@V?$allocator@U_Container_proxy@std@@@std@@@_Container_base12@std@@QAEX$$QAV?$allocator@U_Container_proxy@std@@@1@@Z ; std::_Container_base12::_Alloc_proxy<std::allocator<std::_Container_proxy> >
PUBLIC	??$move@AAVEvent@Keyboard@@@std@@YA$$QAVEvent@Keyboard@@AAV12@@Z ; std::move<Keyboard::Event &>
PUBLIC	??$?0VEvent@Keyboard@@@?$allocator@U_Container_proxy@std@@@std@@QAE@ABV?$allocator@VEvent@Keyboard@@@1@@Z ; std::allocator<std::_Container_proxy>::allocator<std::_Container_proxy><Keyboard::Event>
PUBLIC	??$addressof@V?$deque@VEvent@Keyboard@@V?$allocator@VEvent@Keyboard@@@std@@@std@@@std@@YAPAV?$deque@VEvent@Keyboard@@V?$allocator@VEvent@Keyboard@@@std@@@0@AAV10@@Z ; std::addressof<std::deque<Keyboard::Event,std::allocator<Keyboard::Event> > >
PUBLIC	??$?0$$V@?$_Compressed_pair@V?$allocator@VEvent@Keyboard@@@std@@V?$_Deque_val@U?$_Deque_simple_types@VEvent@Keyboard@@@std@@@2@$00@std@@QAE@U_Zero_then_variadic_args_t@1@@Z ; std::_Compressed_pair<std::allocator<Keyboard::Event>,std::_Deque_val<std::_Deque_simple_types<Keyboard::Event> >,1>::_Compressed_pair<std::allocator<Keyboard::Event>,std::_Deque_val<std::_Deque_simple_types<Keyboard::Event> >,1><>
PUBLIC	??$_Unfancy@U_Container_proxy@std@@@std@@YAPAU_Container_proxy@0@PAU10@@Z ; std::_Unfancy<std::_Container_proxy>
PUBLIC	??$?0D@?$allocator@PAD@std@@QAE@ABV?$allocator@D@1@@Z ; std::allocator<char *>::allocator<char *><char>
PUBLIC	??$_Destroy_in_place@PAD@std@@YAXAAPAD@Z	; std::_Destroy_in_place<char *>
PUBLIC	??$_Emplace_back_internal@ABD@?$deque@DV?$allocator@D@std@@@std@@AAEXABD@Z ; std::deque<char,std::allocator<char> >::_Emplace_back_internal<char const &>
PUBLIC	??$_Unfancy@D@std@@YAPADPAD@Z			; std::_Unfancy<char>
PUBLIC	??$destroy@D@?$_Default_allocator_traits@V?$allocator@D@std@@@std@@SAXAAV?$allocator@D@1@QAD@Z ; std::_Default_allocator_traits<std::allocator<char> >::destroy<char>
PUBLIC	??0?$_Deque_unchecked_const_iterator@V?$_Deque_val@U?$_Deque_simple_types@D@std@@@std@@@std@@QAE@IPBU_Container_base12@1@@Z ; std::_Deque_unchecked_const_iterator<std::_Deque_val<std::_Deque_simple_types<char> > >::_Deque_unchecked_const_iterator<std::_Deque_val<std::_Deque_simple_types<char> > >
PUBLIC	??D?$_Deque_unchecked_const_iterator@V?$_Deque_val@U?$_Deque_simple_types@D@std@@@std@@@std@@QBEABDXZ ; std::_Deque_unchecked_const_iterator<std::_Deque_val<std::_Deque_simple_types<char> > >::operator*
PUBLIC	??D?$_Deque_unchecked_iterator@V?$_Deque_val@U?$_Deque_simple_types@D@std@@@std@@@std@@QBEAADXZ ; std::_Deque_unchecked_iterator<std::_Deque_val<std::_Deque_simple_types<char> > >::operator*
PUBLIC	??0?$_Deque_unchecked_iterator@V?$_Deque_val@U?$_Deque_simple_types@D@std@@@std@@@std@@QAE@IPBU_Container_base12@1@@Z ; std::_Deque_unchecked_iterator<std::_Deque_val<std::_Deque_simple_types<char> > >::_Deque_unchecked_iterator<std::_Deque_val<std::_Deque_simple_types<char> > >
PUBLIC	??$_Pocma@V?$allocator@D@std@@@std@@YAXAAV?$allocator@D@0@0@Z ; std::_Pocma<std::allocator<char> >
PUBLIC	??$?0VEvent@Keyboard@@@?$allocator@PAVEvent@Keyboard@@@std@@QAE@ABV?$allocator@VEvent@Keyboard@@@1@@Z ; std::allocator<Keyboard::Event *>::allocator<Keyboard::Event *><Keyboard::Event>
PUBLIC	??$_Destroy_in_place@PAVEvent@Keyboard@@@std@@YAXAAPAVEvent@Keyboard@@@Z ; std::_Destroy_in_place<Keyboard::Event *>
PUBLIC	??$_Unfancy@VEvent@Keyboard@@@std@@YAPAVEvent@Keyboard@@PAV12@@Z ; std::_Unfancy<Keyboard::Event>
PUBLIC	??$destroy@VEvent@Keyboard@@@?$_Default_allocator_traits@V?$allocator@VEvent@Keyboard@@@std@@@std@@SAXAAV?$allocator@VEvent@Keyboard@@@1@QAVEvent@Keyboard@@@Z ; std::_Default_allocator_traits<std::allocator<Keyboard::Event> >::destroy<Keyboard::Event>
PUBLIC	??0?$_Deque_unchecked_const_iterator@V?$_Deque_val@U?$_Deque_simple_types@VEvent@Keyboard@@@std@@@std@@@std@@QAE@IPBU_Container_base12@1@@Z ; std::_Deque_unchecked_const_iterator<std::_Deque_val<std::_Deque_simple_types<Keyboard::Event> > >::_Deque_unchecked_const_iterator<std::_Deque_val<std::_Deque_simple_types<Keyboard::Event> > >
PUBLIC	??D?$_Deque_unchecked_const_iterator@V?$_Deque_val@U?$_Deque_simple_types@VEvent@Keyboard@@@std@@@std@@@std@@QBEABVEvent@Keyboard@@XZ ; std::_Deque_unchecked_const_iterator<std::_Deque_val<std::_Deque_simple_types<Keyboard::Event> > >::operator*
PUBLIC	??D?$_Deque_unchecked_iterator@V?$_Deque_val@U?$_Deque_simple_types@VEvent@Keyboard@@@std@@@std@@@std@@QBEAAVEvent@Keyboard@@XZ ; std::_Deque_unchecked_iterator<std::_Deque_val<std::_Deque_simple_types<Keyboard::Event> > >::operator*
PUBLIC	??0?$_Deque_unchecked_iterator@V?$_Deque_val@U?$_Deque_simple_types@VEvent@Keyboard@@@std@@@std@@@std@@QAE@IPBU_Container_base12@1@@Z ; std::_Deque_unchecked_iterator<std::_Deque_val<std::_Deque_simple_types<Keyboard::Event> > >::_Deque_unchecked_iterator<std::_Deque_val<std::_Deque_simple_types<Keyboard::Event> > >
PUBLIC	??$_Emplace_back_internal@VEvent@Keyboard@@@?$deque@VEvent@Keyboard@@V?$allocator@VEvent@Keyboard@@@std@@@std@@AAEX$$QAVEvent@Keyboard@@@Z ; std::deque<Keyboard::Event,std::allocator<Keyboard::Event> >::_Emplace_back_internal<Keyboard::Event>
PUBLIC	??$_Pocma@V?$allocator@VEvent@Keyboard@@@std@@@std@@YAXAAV?$allocator@VEvent@Keyboard@@@0@0@Z ; std::_Pocma<std::allocator<Keyboard::Event> >
PUBLIC	??$_Get_size_of_n@$07@std@@YAII@Z		; std::_Get_size_of_n<8>
PUBLIC	??$_Allocate@$07U_Default_allocate_traits@std@@$0A@@std@@YAPAXI@Z ; std::_Allocate<8,std::_Default_allocate_traits,0>
PUBLIC	??$addressof@V?$_Deque_val@U?$_Deque_simple_types@D@std@@@std@@@std@@YAPAV?$_Deque_val@U?$_Deque_simple_types@D@std@@@0@AAV10@@Z ; std::addressof<std::_Deque_val<std::_Deque_simple_types<char> > >
PUBLIC	??$_Deallocate@$07$0A@@std@@YAXPAXI@Z		; std::_Deallocate<8,0>
PUBLIC	??$addressof@V?$_Deque_val@U?$_Deque_simple_types@VEvent@Keyboard@@@std@@@std@@@std@@YAPAV?$_Deque_val@U?$_Deque_simple_types@VEvent@Keyboard@@@std@@@0@AAV10@@Z ; std::addressof<std::_Deque_val<std::_Deque_simple_types<Keyboard::Event> > >
PUBLIC	??$addressof@U_Container_proxy@std@@@std@@YAPAU_Container_proxy@0@AAU10@@Z ; std::addressof<std::_Container_proxy>
PUBLIC	??$forward@PAU_Container_base12@std@@@std@@YA$$QAPAU_Container_base12@0@AAPAU10@@Z ; std::forward<std::_Container_base12 *>
PUBLIC	??$_Deallocate_plain@V?$allocator@U_Container_proxy@std@@@std@@@std@@YAXAAV?$allocator@U_Container_proxy@std@@@0@QAU_Container_proxy@0@@Z ; std::_Deallocate_plain<std::allocator<std::_Container_proxy> >
PUBLIC	??$forward@ABD@std@@YAABDABD@Z			; std::forward<char const &>
PUBLIC	??$construct@DABD@?$_Default_allocator_traits@V?$allocator@D@std@@@std@@SAXAAV?$allocator@D@1@QADABD@Z ; std::_Default_allocator_traits<std::allocator<char> >::construct<char,char const &>
PUBLIC	??$move@AAV?$allocator@D@std@@@std@@YA$$QAV?$allocator@D@0@AAV10@@Z ; std::move<std::allocator<char> &>
PUBLIC	??$forward@VEvent@Keyboard@@@std@@YA$$QAVEvent@Keyboard@@AAV12@@Z ; std::forward<Keyboard::Event>
PUBLIC	??$construct@VEvent@Keyboard@@V12@@?$_Default_allocator_traits@V?$allocator@VEvent@Keyboard@@@std@@@std@@SAXAAV?$allocator@VEvent@Keyboard@@@1@QAVEvent@Keyboard@@$$QAV34@@Z ; std::_Default_allocator_traits<std::allocator<Keyboard::Event> >::construct<Keyboard::Event,Keyboard::Event>
PUBLIC	??$move@AAV?$allocator@VEvent@Keyboard@@@std@@@std@@YA$$QAV?$allocator@VEvent@Keyboard@@@0@AAV10@@Z ; std::move<std::allocator<Keyboard::Event> &>
PUBLIC	??$_Allocate_manually_vector_aligned@U_Default_allocate_traits@std@@@std@@YAPAXI@Z ; std::_Allocate_manually_vector_aligned<std::_Default_allocate_traits>
PUBLIC	??$uninitialized_copy@PAPADPAPAD@std@@YAPAPADQAPAD0PAPAD@Z ; std::uninitialized_copy<char * *,char * *>
PUBLIC	??$_Uninitialized_value_construct_n_unchecked1@PAPADI@std@@YAPAPADPAPADI@Z ; std::_Uninitialized_value_construct_n_unchecked1<char * *,unsigned int>
PUBLIC	??$_Destroy_range@PAPAD@std@@YAXPAPADQAPAD@Z	; std::_Destroy_range<char * *>
PUBLIC	??$uninitialized_copy@PAPAVEvent@Keyboard@@PAPAV12@@std@@YAPAPAVEvent@Keyboard@@QAPAV12@0PAPAV12@@Z ; std::uninitialized_copy<Keyboard::Event * *,Keyboard::Event * *>
PUBLIC	??$_Uninitialized_value_construct_n_unchecked1@PAPAVEvent@Keyboard@@I@std@@YAPAPAVEvent@Keyboard@@PAPAV12@I@Z ; std::_Uninitialized_value_construct_n_unchecked1<Keyboard::Event * *,unsigned int>
PUBLIC	??$_Destroy_range@PAPAVEvent@Keyboard@@@std@@YAXPAPAVEvent@Keyboard@@QAPAV12@@Z ; std::_Destroy_range<Keyboard::Event * *>
PUBLIC	??$min@I@std@@YAABIABI0@Z			; std::min<unsigned int>
PUBLIC	??$_Get_size_of_n@$03@std@@YAII@Z		; std::_Get_size_of_n<4>
PUBLIC	??$_Get_size_of_n@$00@std@@YAII@Z		; std::_Get_size_of_n<1>
PUBLIC	?deallocate@?$_Default_allocator_traits@V?$allocator@U_Container_proxy@std@@@std@@@std@@SAXAAV?$allocator@U_Container_proxy@std@@@2@QAU_Container_proxy@2@I@Z ; std::_Default_allocator_traits<std::allocator<std::_Container_proxy> >::deallocate
PUBLIC	??$_Adl_verify_range@PAPADPAPAD@std@@YAXABQAPAD0@Z ; std::_Adl_verify_range<char * *,char * *>
PUBLIC	??$_Get_unwrapped@ABQAPAD@std@@YA@ABQAPAD@Z	; std::_Get_unwrapped<char * * const &>
PUBLIC	??$_Idl_distance@PAPADPAPAD@std@@YA@ABQAPAD0@Z	; std::_Idl_distance<char * *,char * *>
PUBLIC	??$_Get_unwrapped_n@AAPAPADH@std@@YA@AAPAPADH@Z	; std::_Get_unwrapped_n<char * * &,int>
PUBLIC	??$_Copy_memmove@PAPADPAPAD@std@@YAPAPADPAPAD00@Z ; std::_Copy_memmove<char * *,char * *>
PUBLIC	??$_Seek_wrapped@PAPADAAPAPAD@std@@YAXAAPAPAD0@Z ; std::_Seek_wrapped<char * *,char * * &>
PUBLIC	??$_Zero_range@PAPAD@std@@YAPAPADQAPAD0@Z	; std::_Zero_range<char * *>
PUBLIC	??$_Adl_verify_range@PAPAVEvent@Keyboard@@PAPAV12@@std@@YAXABQAPAVEvent@Keyboard@@0@Z ; std::_Adl_verify_range<Keyboard::Event * *,Keyboard::Event * *>
PUBLIC	??$_Get_unwrapped@ABQAPAVEvent@Keyboard@@@std@@YA@ABQAPAVEvent@Keyboard@@@Z ; std::_Get_unwrapped<Keyboard::Event * * const &>
PUBLIC	??$_Idl_distance@PAPAVEvent@Keyboard@@PAPAV12@@std@@YA@ABQAPAVEvent@Keyboard@@0@Z ; std::_Idl_distance<Keyboard::Event * *,Keyboard::Event * *>
PUBLIC	??$_Get_unwrapped_n@AAPAPAVEvent@Keyboard@@H@std@@YA@AAPAPAVEvent@Keyboard@@H@Z ; std::_Get_unwrapped_n<Keyboard::Event * * &,int>
PUBLIC	??$_Copy_memmove@PAPAVEvent@Keyboard@@PAPAV12@@std@@YAPAPAVEvent@Keyboard@@PAPAV12@00@Z ; std::_Copy_memmove<Keyboard::Event * *,Keyboard::Event * *>
PUBLIC	??$_Seek_wrapped@PAPAVEvent@Keyboard@@AAPAPAV12@@std@@YAXAAPAPAVEvent@Keyboard@@0@Z ; std::_Seek_wrapped<Keyboard::Event * *,Keyboard::Event * * &>
PUBLIC	??$_Zero_range@PAPAVEvent@Keyboard@@@std@@YAPAPAVEvent@Keyboard@@QAPAV12@0@Z ; std::_Zero_range<Keyboard::Event * *>
PUBLIC	??$_Verify_range@PAD@std@@YAXQBQAD0@Z		; std::_Verify_range<char *>
PUBLIC	??$_Verify_range@PAVEvent@Keyboard@@@std@@YAXQBQAVEvent@Keyboard@@0@Z ; std::_Verify_range<Keyboard::Event *>
PUBLIC	__JustMyCode_Default
PUBLIC	??_7exception@std@@6B@				; std::exception::`vftable'
PUBLIC	??_C@_0BC@EOODALEL@Unknown?5exception@		; `string'
PUBLIC	??_7bad_alloc@std@@6B@				; std::bad_alloc::`vftable'
PUBLIC	??_7bad_array_new_length@std@@6B@		; std::bad_array_new_length::`vftable'
PUBLIC	??_C@_0BF@KINCDENJ@bad?5array?5new?5length@	; `string'
PUBLIC	__TI3?AVbad_array_new_length@std@@
PUBLIC	__CTA3?AVbad_array_new_length@std@@
PUBLIC	??_R0?AVbad_array_new_length@std@@@8		; std::bad_array_new_length `RTTI Type Descriptor'
PUBLIC	__CT??_R0?AVbad_array_new_length@std@@@8??0bad_array_new_length@std@@QAE@ABV01@@Z12
PUBLIC	??_R0?AVbad_alloc@std@@@8			; std::bad_alloc `RTTI Type Descriptor'
PUBLIC	__CT??_R0?AVbad_alloc@std@@@8??0bad_alloc@std@@QAE@ABV01@@Z12
PUBLIC	??_R0?AVexception@std@@@8			; std::exception `RTTI Type Descriptor'
PUBLIC	__CT??_R0?AVexception@std@@@8??0exception@std@@QAE@ABV01@@Z12
PUBLIC	?__LINE__Var@?0??_Adjust_manually_vector_aligned@std@@YAXAAPAXAAI@Z@4JA ; `std::_Adjust_manually_vector_aligned'::`1'::__LINE__Var
PUBLIC	??_C@_0BB@FCMFBGOM@invalid?5argument@		; `string'
PUBLIC	??_C@_02DKCKIIND@?$CFs@				; `string'
PUBLIC	??_C@_0GI@JMEOMKJO@C?3?2Program?5Files?5?$CIx86?$CJ?2Microsof@ ; `string'
PUBLIC	??_C@_1NA@FEEOBALC@?$AAC?$AA?3?$AA?2?$AAP?$AAr?$AAo?$AAg?$AAr?$AAa?$AAm?$AA?5?$AAF?$AAi?$AAl?$AAe@ ; `string'
PUBLIC	??_C@_1EK@NIFDJFDG@?$AAs?$AAt?$AAd?$AA?3?$AA?3?$AA_?$AAA?$AAd?$AAj?$AAu?$AAs?$AAt?$AA_?$AAm?$AAa@ ; `string'
PUBLIC	??_C@_1CG@JNLFBNGN@?$AA?$CC?$AAi?$AAn?$AAv?$AAa?$AAl?$AAi?$AAd?$AA?5?$AAa?$AAr?$AAg?$AAu?$AAm?$AAe@ ; `string'
PUBLIC	??_C@_0BH@EDKEEENI@deque?5empty?5before?5pop@	; `string'
PUBLIC	??_C@_0GG@LDDGPICM@C?3?2Program?5Files?5?$CIx86?$CJ?2Microsof@ ; `string'
PUBLIC	??_C@_1MM@LIKMHCEL@?$AAC?$AA?3?$AA?2?$AAP?$AAr?$AAo?$AAg?$AAr?$AAa?$AAm?$AA?5?$AAF?$AAi?$AAl?$AAe@ ; `string'
PUBLIC	??_C@_1HA@NKEJNHOK@?$AAs?$AAt?$AAd?$AA?3?$AA?3?$AAd?$AAe?$AAq?$AAu?$AAe?$AA?$DM?$AAc?$AAh?$AAa?$AAr@ ; `string'
PUBLIC	??_C@_1DC@NJAACHCD@?$AA?$CC?$AAd?$AAe?$AAq?$AAu?$AAe?$AA?5?$AAe?$AAm?$AAp?$AAt?$AAy?$AA?5?$AAb?$AAe@ ; `string'
PUBLIC	??_C@_0BO@PEOHNLIM@front?$CI?$CJ?5called?5on?5empty?5deque@ ; `string'
PUBLIC	??_C@_1GI@BPJJIAKH@?$AAs?$AAt?$AAd?$AA?3?$AA?3?$AAd?$AAe?$AAq?$AAu?$AAe?$AA?$DM?$AAc?$AAh?$AAa?$AAr@ ; `string'
PUBLIC	??_C@_1EA@EELNAHHD@?$AA?$CC?$AAf?$AAr?$AAo?$AAn?$AAt?$AA?$CI?$AA?$CJ?$AA?5?$AAc?$AAa?$AAl?$AAl?$AAe?$AAd@ ; `string'
PUBLIC	??_C@_1LE@PABFFGOC@?$AAs?$AAt?$AAd?$AA?3?$AA?3?$AAd?$AAe?$AAq?$AAu?$AAe?$AA?$DM?$AAc?$AAl?$AAa?$AAs@ ; `string'
PUBLIC	??_C@_1KM@GHGDHMGE@?$AAs?$AAt?$AAd?$AA?3?$AA?3?$AAd?$AAe?$AAq?$AAu?$AAe?$AA?$DM?$AAc?$AAl?$AAa?$AAs@ ; `string'
PUBLIC	??_C@_0BL@HJCCEGKP@bitset?5index?5outside?5range@ ; `string'
PUBLIC	??_C@_0GH@IAKBMDAE@C?3?2Program?5Files?5?$CIx86?$CJ?2Microsof@ ; `string'
PUBLIC	??_C@_1MO@JEFFMNEN@?$AAC?$AA?3?$AA?2?$AAP?$AAr?$AAo?$AAg?$AAr?$AAa?$AAm?$AA?5?$AAF?$AAi?$AAl?$AAe@ ; `string'
PUBLIC	??_C@_1DI@OGKEDBLC@?$AAs?$AAt?$AAd?$AA?3?$AA?3?$AAb?$AAi?$AAt?$AAs?$AAe?$AAt?$AA?$DM?$AA2?$AA5?$AA6@ ; `string'
PUBLIC	??_C@_1DK@HOGMKJJH@?$AA?$CC?$AAb?$AAi?$AAt?$AAs?$AAe?$AAt?$AA?5?$AAi?$AAn?$AAd?$AAe?$AAx?$AA?5?$AAo@ ; `string'
PUBLIC	??_C@_1GO@EGGDOJHA@?$AAs?$AAt?$AAd?$AA?3?$AA?3?$AAd?$AAe?$AAq?$AAu?$AAe?$AA?$DM?$AAc?$AAh?$AAa?$AAr@ ; `string'
PUBLIC	??_C@_1LC@OPOCPHBN@?$AAs?$AAt?$AAd?$AA?3?$AA?3?$AAd?$AAe?$AAq?$AAu?$AAe?$AA?$DM?$AAc?$AAl?$AAa?$AAs@ ; `string'
PUBLIC	??_C@_0BC@KBDMBKEH@deque?$DMT?$DO?5too?5long@	; `string'
PUBLIC	??_C@_1EO@GFNCMDLA@?$AAs?$AAt?$AAd?$AA?3?$AA?3?$AA_?$AAA?$AAl?$AAl?$AAo?$AAc?$AAa?$AAt?$AAe?$AA_@ ; `string'
PUBLIC	??_C@_0BJ@HAJGEHKO@transposed?5pointer?5range@	; `string'
PUBLIC	??_C@_0GJ@NENAPENJ@C?3?2Program?5Files?5?$CIx86?$CJ?2Microsof@ ; `string'
PUBLIC	??_C@_1NC@MGIEKFBC@?$AAC?$AA?3?$AA?2?$AAP?$AAr?$AAo?$AAg?$AAr?$AAa?$AAm?$AA?5?$AAF?$AAi?$AAl?$AAe@ ; `string'
PUBLIC	??_C@_1CG@LJCPDKEJ@?$AAs?$AAt?$AAd?$AA?3?$AA?3?$AA_?$AAV?$AAe?$AAr?$AAi?$AAf?$AAy?$AA_?$AAr?$AAa@ ; `string'
PUBLIC	??_C@_1DG@FJIKMGFD@?$AA?$CC?$AAt?$AAr?$AAa?$AAn?$AAs?$AAp?$AAo?$AAs?$AAe?$AAd?$AA?5?$AAp?$AAo?$AAi@ ; `string'
PUBLIC	??_R4exception@std@@6B@				; std::exception::`RTTI Complete Object Locator'
PUBLIC	??_R3exception@std@@8				; std::exception::`RTTI Class Hierarchy Descriptor'
PUBLIC	??_R2exception@std@@8				; std::exception::`RTTI Base Class Array'
PUBLIC	??_R1A@?0A@EA@exception@std@@8			; std::exception::`RTTI Base Class Descriptor at (0,-1,0,64)'
PUBLIC	??_R4bad_alloc@std@@6B@				; std::bad_alloc::`RTTI Complete Object Locator'
PUBLIC	??_R3bad_alloc@std@@8				; std::bad_alloc::`RTTI Class Hierarchy Descriptor'
PUBLIC	??_R2bad_alloc@std@@8				; std::bad_alloc::`RTTI Base Class Array'
PUBLIC	??_R1A@?0A@EA@bad_alloc@std@@8			; std::bad_alloc::`RTTI Base Class Descriptor at (0,-1,0,64)'
PUBLIC	??_R4bad_array_new_length@std@@6B@		; std::bad_array_new_length::`RTTI Complete Object Locator'
PUBLIC	??_R3bad_array_new_length@std@@8		; std::bad_array_new_length::`RTTI Class Hierarchy Descriptor'
PUBLIC	??_R2bad_array_new_length@std@@8		; std::bad_array_new_length::`RTTI Base Class Array'
PUBLIC	??_R1A@?0A@EA@bad_array_new_length@std@@8	; std::bad_array_new_length::`RTTI Base Class Descriptor at (0,-1,0,64)'
EXTRN	??2@YAPAXI@Z:PROC				; operator new
EXTRN	??3@YAXPAXI@Z:PROC				; operator delete
EXTRN	__imp___invalid_parameter:PROC
EXTRN	__imp___CrtDbgReport:PROC
EXTRN	__imp_??0_Lockit@std@@QAE@H@Z:PROC
EXTRN	__imp_??1_Lockit@std@@QAE@XZ:PROC
EXTRN	_memmove:PROC
EXTRN	_memset:PROC
EXTRN	___std_exception_copy:PROC
EXTRN	___std_exception_destroy:PROC
EXTRN	??_Eexception@std@@UAEPAXI@Z:PROC		; std::exception::`vector deleting destructor'
EXTRN	??_Ebad_alloc@std@@UAEPAXI@Z:PROC		; std::bad_alloc::`vector deleting destructor'
EXTRN	??_Ebad_array_new_length@std@@UAEPAXI@Z:PROC	; std::bad_array_new_length::`vector deleting destructor'
EXTRN	?_Xlength_error@std@@YAXPBD@Z:PROC		; std::_Xlength_error
EXTRN	@_RTC_CheckStackVars@8:PROC
EXTRN	@__CheckForDebuggerJustMyCode@4:PROC
EXTRN	@__security_check_cookie@4:PROC
EXTRN	__CxxThrowException@8:PROC
EXTRN	__RTC_CheckEsp:PROC
EXTRN	__RTC_InitBase:PROC
EXTRN	__RTC_Shutdown:PROC
EXTRN	___CxxFrameHandler3:PROC
EXTRN	__allshl:PROC
EXTRN	??_7type_info@@6B@:QWORD			; type_info::`vftable'
EXTRN	___security_cookie:DWORD
;	COMDAT rtc$TMZ
rtc$TMZ	SEGMENT
__RTC_Shutdown.rtc$TMZ DD FLAT:__RTC_Shutdown
rtc$TMZ	ENDS
;	COMDAT rtc$IMZ
rtc$IMZ	SEGMENT
__RTC_InitBase.rtc$IMZ DD FLAT:__RTC_InitBase
rtc$IMZ	ENDS
;	COMDAT ??_R1A@?0A@EA@bad_array_new_length@std@@8
rdata$r	SEGMENT
??_R1A@?0A@EA@bad_array_new_length@std@@8 DD FLAT:??_R0?AVbad_array_new_length@std@@@8 ; std::bad_array_new_length::`RTTI Base Class Descriptor at (0,-1,0,64)'
	DD	02H
	DD	00H
	DD	0ffffffffH
	DD	00H
	DD	040H
	DD	FLAT:??_R3bad_array_new_length@std@@8
rdata$r	ENDS
;	COMDAT ??_R2bad_array_new_length@std@@8
rdata$r	SEGMENT
??_R2bad_array_new_length@std@@8 DD FLAT:??_R1A@?0A@EA@bad_array_new_length@std@@8 ; std::bad_array_new_length::`RTTI Base Class Array'
	DD	FLAT:??_R1A@?0A@EA@bad_alloc@std@@8
	DD	FLAT:??_R1A@?0A@EA@exception@std@@8
rdata$r	ENDS
;	COMDAT ??_R3bad_array_new_length@std@@8
rdata$r	SEGMENT
??_R3bad_array_new_length@std@@8 DD 00H			; std::bad_array_new_length::`RTTI Class Hierarchy Descriptor'
	DD	00H
	DD	03H
	DD	FLAT:??_R2bad_array_new_length@std@@8
rdata$r	ENDS
;	COMDAT ??_R4bad_array_new_length@std@@6B@
rdata$r	SEGMENT
??_R4bad_array_new_length@std@@6B@ DD 00H		; std::bad_array_new_length::`RTTI Complete Object Locator'
	DD	00H
	DD	00H
	DD	FLAT:??_R0?AVbad_array_new_length@std@@@8
	DD	FLAT:??_R3bad_array_new_length@std@@8
rdata$r	ENDS
;	COMDAT ??_R1A@?0A@EA@bad_alloc@std@@8
rdata$r	SEGMENT
??_R1A@?0A@EA@bad_alloc@std@@8 DD FLAT:??_R0?AVbad_alloc@std@@@8 ; std::bad_alloc::`RTTI Base Class Descriptor at (0,-1,0,64)'
	DD	01H
	DD	00H
	DD	0ffffffffH
	DD	00H
	DD	040H
	DD	FLAT:??_R3bad_alloc@std@@8
rdata$r	ENDS
;	COMDAT ??_R2bad_alloc@std@@8
rdata$r	SEGMENT
??_R2bad_alloc@std@@8 DD FLAT:??_R1A@?0A@EA@bad_alloc@std@@8 ; std::bad_alloc::`RTTI Base Class Array'
	DD	FLAT:??_R1A@?0A@EA@exception@std@@8
rdata$r	ENDS
;	COMDAT ??_R3bad_alloc@std@@8
rdata$r	SEGMENT
??_R3bad_alloc@std@@8 DD 00H				; std::bad_alloc::`RTTI Class Hierarchy Descriptor'
	DD	00H
	DD	02H
	DD	FLAT:??_R2bad_alloc@std@@8
rdata$r	ENDS
;	COMDAT ??_R4bad_alloc@std@@6B@
rdata$r	SEGMENT
??_R4bad_alloc@std@@6B@ DD 00H				; std::bad_alloc::`RTTI Complete Object Locator'
	DD	00H
	DD	00H
	DD	FLAT:??_R0?AVbad_alloc@std@@@8
	DD	FLAT:??_R3bad_alloc@std@@8
rdata$r	ENDS
;	COMDAT ??_R1A@?0A@EA@exception@std@@8
rdata$r	SEGMENT
??_R1A@?0A@EA@exception@std@@8 DD FLAT:??_R0?AVexception@std@@@8 ; std::exception::`RTTI Base Class Descriptor at (0,-1,0,64)'
	DD	00H
	DD	00H
	DD	0ffffffffH
	DD	00H
	DD	040H
	DD	FLAT:??_R3exception@std@@8
rdata$r	ENDS
;	COMDAT ??_R2exception@std@@8
rdata$r	SEGMENT
??_R2exception@std@@8 DD FLAT:??_R1A@?0A@EA@exception@std@@8 ; std::exception::`RTTI Base Class Array'
rdata$r	ENDS
;	COMDAT ??_R3exception@std@@8
rdata$r	SEGMENT
??_R3exception@std@@8 DD 00H				; std::exception::`RTTI Class Hierarchy Descriptor'
	DD	00H
	DD	01H
	DD	FLAT:??_R2exception@std@@8
rdata$r	ENDS
;	COMDAT ??_R4exception@std@@6B@
rdata$r	SEGMENT
??_R4exception@std@@6B@ DD 00H				; std::exception::`RTTI Complete Object Locator'
	DD	00H
	DD	00H
	DD	FLAT:??_R0?AVexception@std@@@8
	DD	FLAT:??_R3exception@std@@8
rdata$r	ENDS
;	COMDAT ??_C@_1DG@FJIKMGFD@?$AA?$CC?$AAt?$AAr?$AAa?$AAn?$AAs?$AAp?$AAo?$AAs?$AAe?$AAd?$AA?5?$AAp?$AAo?$AAi@
CONST	SEGMENT
??_C@_1DG@FJIKMGFD@?$AA?$CC?$AAt?$AAr?$AAa?$AAn?$AAs?$AAp?$AAo?$AAs?$AAe?$AAd?$AA?5?$AAp?$AAo?$AAi@ DB '"'
	DB	00H, 't', 00H, 'r', 00H, 'a', 00H, 'n', 00H, 's', 00H, 'p', 00H
	DB	'o', 00H, 's', 00H, 'e', 00H, 'd', 00H, ' ', 00H, 'p', 00H, 'o'
	DB	00H, 'i', 00H, 'n', 00H, 't', 00H, 'e', 00H, 'r', 00H, ' ', 00H
	DB	'r', 00H, 'a', 00H, 'n', 00H, 'g', 00H, 'e', 00H, '"', 00H, 00H
	DB	00H						; `string'
CONST	ENDS
;	COMDAT ??_C@_1CG@LJCPDKEJ@?$AAs?$AAt?$AAd?$AA?3?$AA?3?$AA_?$AAV?$AAe?$AAr?$AAi?$AAf?$AAy?$AA_?$AAr?$AAa@
CONST	SEGMENT
??_C@_1CG@LJCPDKEJ@?$AAs?$AAt?$AAd?$AA?3?$AA?3?$AA_?$AAV?$AAe?$AAr?$AAi?$AAf?$AAy?$AA_?$AAr?$AAa@ DB 's'
	DB	00H, 't', 00H, 'd', 00H, ':', 00H, ':', 00H, '_', 00H, 'V', 00H
	DB	'e', 00H, 'r', 00H, 'i', 00H, 'f', 00H, 'y', 00H, '_', 00H, 'r'
	DB	00H, 'a', 00H, 'n', 00H, 'g', 00H, 'e', 00H, 00H, 00H ; `string'
CONST	ENDS
;	COMDAT ??_C@_1NC@MGIEKFBC@?$AAC?$AA?3?$AA?2?$AAP?$AAr?$AAo?$AAg?$AAr?$AAa?$AAm?$AA?5?$AAF?$AAi?$AAl?$AAe@
CONST	SEGMENT
??_C@_1NC@MGIEKFBC@?$AAC?$AA?3?$AA?2?$AAP?$AAr?$AAo?$AAg?$AAr?$AAa?$AAm?$AA?5?$AAF?$AAi?$AAl?$AAe@ DB 'C'
	DB	00H, ':', 00H, '\', 00H, 'P', 00H, 'r', 00H, 'o', 00H, 'g', 00H
	DB	'r', 00H, 'a', 00H, 'm', 00H, ' ', 00H, 'F', 00H, 'i', 00H, 'l'
	DB	00H, 'e', 00H, 's', 00H, ' ', 00H, '(', 00H, 'x', 00H, '8', 00H
	DB	'6', 00H, ')', 00H, '\', 00H, 'M', 00H, 'i', 00H, 'c', 00H, 'r'
	DB	00H, 'o', 00H, 's', 00H, 'o', 00H, 'f', 00H, 't', 00H, ' ', 00H
	DB	'V', 00H, 'i', 00H, 's', 00H, 'u', 00H, 'a', 00H, 'l', 00H, ' '
	DB	00H, 'S', 00H, 't', 00H, 'u', 00H, 'd', 00H, 'i', 00H, 'o', 00H
	DB	'\', 00H, '2', 00H, '0', 00H, '1', 00H, '9', 00H, '\', 00H, 'C'
	DB	00H, 'o', 00H, 'm', 00H, 'm', 00H, 'u', 00H, 'n', 00H, 'i', 00H
	DB	't', 00H, 'y', 00H, '\', 00H, 'V', 00H, 'C', 00H, '\', 00H, 'T'
	DB	00H, 'o', 00H, 'o', 00H, 'l', 00H, 's', 00H, '\', 00H, 'M', 00H
	DB	'S', 00H, 'V', 00H, 'C', 00H, '\', 00H, '1', 00H, '4', 00H, '.'
	DB	00H, '2', 00H, '7', 00H, '.', 00H, '2', 00H, '9', 00H, '1', 00H
	DB	'1', 00H, '0', 00H, '\', 00H, 'i', 00H, 'n', 00H, 'c', 00H, 'l'
	DB	00H, 'u', 00H, 'd', 00H, 'e', 00H, '\', 00H, 'x', 00H, 'u', 00H
	DB	't', 00H, 'i', 00H, 'l', 00H, 'i', 00H, 't', 00H, 'y', 00H, 00H
	DB	00H						; `string'
CONST	ENDS
;	COMDAT ??_C@_0GJ@NENAPENJ@C?3?2Program?5Files?5?$CIx86?$CJ?2Microsof@
CONST	SEGMENT
??_C@_0GJ@NENAPENJ@C?3?2Program?5Files?5?$CIx86?$CJ?2Microsof@ DB 'C:\Pro'
	DB	'gram Files (x86)\Microsoft Visual Studio\2019\Community\VC\To'
	DB	'ols\MSVC\14.27.29110\include\xutility', 00H	; `string'
CONST	ENDS
;	COMDAT ??_C@_0BJ@HAJGEHKO@transposed?5pointer?5range@
CONST	SEGMENT
??_C@_0BJ@HAJGEHKO@transposed?5pointer?5range@ DB 'transposed pointer ran'
	DB	'ge', 00H					; `string'
CONST	ENDS
;	COMDAT ??_C@_1EO@GFNCMDLA@?$AAs?$AAt?$AAd?$AA?3?$AA?3?$AA_?$AAA?$AAl?$AAl?$AAo?$AAc?$AAa?$AAt?$AAe?$AA_@
CONST	SEGMENT
??_C@_1EO@GFNCMDLA@?$AAs?$AAt?$AAd?$AA?3?$AA?3?$AA_?$AAA?$AAl?$AAl?$AAo?$AAc?$AAa?$AAt?$AAe?$AA_@ DB 's'
	DB	00H, 't', 00H, 'd', 00H, ':', 00H, ':', 00H, '_', 00H, 'A', 00H
	DB	'l', 00H, 'l', 00H, 'o', 00H, 'c', 00H, 'a', 00H, 't', 00H, 'e'
	DB	00H, '_', 00H, 'm', 00H, 'a', 00H, 'n', 00H, 'u', 00H, 'a', 00H
	DB	'l', 00H, 'l', 00H, 'y', 00H, '_', 00H, 'v', 00H, 'e', 00H, 'c'
	DB	00H, 't', 00H, 'o', 00H, 'r', 00H, '_', 00H, 'a', 00H, 'l', 00H
	DB	'i', 00H, 'g', 00H, 'n', 00H, 'e', 00H, 'd', 00H, 00H, 00H ; `string'
CONST	ENDS
;	COMDAT ??_C@_0BC@KBDMBKEH@deque?$DMT?$DO?5too?5long@
CONST	SEGMENT
??_C@_0BC@KBDMBKEH@deque?$DMT?$DO?5too?5long@ DB 'deque<T> too long', 00H ; `string'
CONST	ENDS
;	COMDAT ??_C@_1LC@OPOCPHBN@?$AAs?$AAt?$AAd?$AA?3?$AA?3?$AAd?$AAe?$AAq?$AAu?$AAe?$AA?$DM?$AAc?$AAl?$AAa?$AAs@
CONST	SEGMENT
??_C@_1LC@OPOCPHBN@?$AAs?$AAt?$AAd?$AA?3?$AA?3?$AAd?$AAe?$AAq?$AAu?$AAe?$AA?$DM?$AAc?$AAl?$AAa?$AAs@ DB 's'
	DB	00H, 't', 00H, 'd', 00H, ':', 00H, ':', 00H, 'd', 00H, 'e', 00H
	DB	'q', 00H, 'u', 00H, 'e', 00H, '<', 00H, 'c', 00H, 'l', 00H, 'a'
	DB	00H, 's', 00H, 's', 00H, ' ', 00H, 'K', 00H, 'e', 00H, 'y', 00H
	DB	'b', 00H, 'o', 00H, 'a', 00H, 'r', 00H, 'd', 00H, ':', 00H, ':'
	DB	00H, 'E', 00H, 'v', 00H, 'e', 00H, 'n', 00H, 't', 00H, ',', 00H
	DB	'c', 00H, 'l', 00H, 'a', 00H, 's', 00H, 's', 00H, ' ', 00H, 's'
	DB	00H, 't', 00H, 'd', 00H, ':', 00H, ':', 00H, 'a', 00H, 'l', 00H
	DB	'l', 00H, 'o', 00H, 'c', 00H, 'a', 00H, 't', 00H, 'o', 00H, 'r'
	DB	00H, '<', 00H, 'c', 00H, 'l', 00H, 'a', 00H, 's', 00H, 's', 00H
	DB	' ', 00H, 'K', 00H, 'e', 00H, 'y', 00H, 'b', 00H, 'o', 00H, 'a'
	DB	00H, 'r', 00H, 'd', 00H, ':', 00H, ':', 00H, 'E', 00H, 'v', 00H
	DB	'e', 00H, 'n', 00H, 't', 00H, '>', 00H, ' ', 00H, '>', 00H, ':'
	DB	00H, ':', 00H, 'p', 00H, 'o', 00H, 'p', 00H, '_', 00H, 'b', 00H
	DB	'a', 00H, 'c', 00H, 'k', 00H, 00H, 00H	; `string'
CONST	ENDS
;	COMDAT ??_C@_1GO@EGGDOJHA@?$AAs?$AAt?$AAd?$AA?3?$AA?3?$AAd?$AAe?$AAq?$AAu?$AAe?$AA?$DM?$AAc?$AAh?$AAa?$AAr@
CONST	SEGMENT
??_C@_1GO@EGGDOJHA@?$AAs?$AAt?$AAd?$AA?3?$AA?3?$AAd?$AAe?$AAq?$AAu?$AAe?$AA?$DM?$AAc?$AAh?$AAa?$AAr@ DB 's'
	DB	00H, 't', 00H, 'd', 00H, ':', 00H, ':', 00H, 'd', 00H, 'e', 00H
	DB	'q', 00H, 'u', 00H, 'e', 00H, '<', 00H, 'c', 00H, 'h', 00H, 'a'
	DB	00H, 'r', 00H, ',', 00H, 'c', 00H, 'l', 00H, 'a', 00H, 's', 00H
	DB	's', 00H, ' ', 00H, 's', 00H, 't', 00H, 'd', 00H, ':', 00H, ':'
	DB	00H, 'a', 00H, 'l', 00H, 'l', 00H, 'o', 00H, 'c', 00H, 'a', 00H
	DB	't', 00H, 'o', 00H, 'r', 00H, '<', 00H, 'c', 00H, 'h', 00H, 'a'
	DB	00H, 'r', 00H, '>', 00H, ' ', 00H, '>', 00H, ':', 00H, ':', 00H
	DB	'p', 00H, 'o', 00H, 'p', 00H, '_', 00H, 'b', 00H, 'a', 00H, 'c'
	DB	00H, 'k', 00H, 00H, 00H			; `string'
CONST	ENDS
;	COMDAT ??_C@_1DK@HOGMKJJH@?$AA?$CC?$AAb?$AAi?$AAt?$AAs?$AAe?$AAt?$AA?5?$AAi?$AAn?$AAd?$AAe?$AAx?$AA?5?$AAo@
CONST	SEGMENT
??_C@_1DK@HOGMKJJH@?$AA?$CC?$AAb?$AAi?$AAt?$AAs?$AAe?$AAt?$AA?5?$AAi?$AAn?$AAd?$AAe?$AAx?$AA?5?$AAo@ DB '"'
	DB	00H, 'b', 00H, 'i', 00H, 't', 00H, 's', 00H, 'e', 00H, 't', 00H
	DB	' ', 00H, 'i', 00H, 'n', 00H, 'd', 00H, 'e', 00H, 'x', 00H, ' '
	DB	00H, 'o', 00H, 'u', 00H, 't', 00H, 's', 00H, 'i', 00H, 'd', 00H
	DB	'e', 00H, ' ', 00H, 'r', 00H, 'a', 00H, 'n', 00H, 'g', 00H, 'e'
	DB	00H, '"', 00H, 00H, 00H			; `string'
CONST	ENDS
;	COMDAT ??_C@_1DI@OGKEDBLC@?$AAs?$AAt?$AAd?$AA?3?$AA?3?$AAb?$AAi?$AAt?$AAs?$AAe?$AAt?$AA?$DM?$AA2?$AA5?$AA6@
CONST	SEGMENT
??_C@_1DI@OGKEDBLC@?$AAs?$AAt?$AAd?$AA?3?$AA?3?$AAb?$AAi?$AAt?$AAs?$AAe?$AAt?$AA?$DM?$AA2?$AA5?$AA6@ DB 's'
	DB	00H, 't', 00H, 'd', 00H, ':', 00H, ':', 00H, 'b', 00H, 'i', 00H
	DB	't', 00H, 's', 00H, 'e', 00H, 't', 00H, '<', 00H, '2', 00H, '5'
	DB	00H, '6', 00H, '>', 00H, ':', 00H, ':', 00H, '_', 00H, 'V', 00H
	DB	'a', 00H, 'l', 00H, 'i', 00H, 'd', 00H, 'a', 00H, 't', 00H, 'e'
	DB	00H, 00H, 00H				; `string'
CONST	ENDS
;	COMDAT ??_C@_1MO@JEFFMNEN@?$AAC?$AA?3?$AA?2?$AAP?$AAr?$AAo?$AAg?$AAr?$AAa?$AAm?$AA?5?$AAF?$AAi?$AAl?$AAe@
CONST	SEGMENT
??_C@_1MO@JEFFMNEN@?$AAC?$AA?3?$AA?2?$AAP?$AAr?$AAo?$AAg?$AAr?$AAa?$AAm?$AA?5?$AAF?$AAi?$AAl?$AAe@ DB 'C'
	DB	00H, ':', 00H, '\', 00H, 'P', 00H, 'r', 00H, 'o', 00H, 'g', 00H
	DB	'r', 00H, 'a', 00H, 'm', 00H, ' ', 00H, 'F', 00H, 'i', 00H, 'l'
	DB	00H, 'e', 00H, 's', 00H, ' ', 00H, '(', 00H, 'x', 00H, '8', 00H
	DB	'6', 00H, ')', 00H, '\', 00H, 'M', 00H, 'i', 00H, 'c', 00H, 'r'
	DB	00H, 'o', 00H, 's', 00H, 'o', 00H, 'f', 00H, 't', 00H, ' ', 00H
	DB	'V', 00H, 'i', 00H, 's', 00H, 'u', 00H, 'a', 00H, 'l', 00H, ' '
	DB	00H, 'S', 00H, 't', 00H, 'u', 00H, 'd', 00H, 'i', 00H, 'o', 00H
	DB	'\', 00H, '2', 00H, '0', 00H, '1', 00H, '9', 00H, '\', 00H, 'C'
	DB	00H, 'o', 00H, 'm', 00H, 'm', 00H, 'u', 00H, 'n', 00H, 'i', 00H
	DB	't', 00H, 'y', 00H, '\', 00H, 'V', 00H, 'C', 00H, '\', 00H, 'T'
	DB	00H, 'o', 00H, 'o', 00H, 'l', 00H, 's', 00H, '\', 00H, 'M', 00H
	DB	'S', 00H, 'V', 00H, 'C', 00H, '\', 00H, '1', 00H, '4', 00H, '.'
	DB	00H, '2', 00H, '7', 00H, '.', 00H, '2', 00H, '9', 00H, '1', 00H
	DB	'1', 00H, '0', 00H, '\', 00H, 'i', 00H, 'n', 00H, 'c', 00H, 'l'
	DB	00H, 'u', 00H, 'd', 00H, 'e', 00H, '\', 00H, 'b', 00H, 'i', 00H
	DB	't', 00H, 's', 00H, 'e', 00H, 't', 00H, 00H, 00H ; `string'
CONST	ENDS
;	COMDAT ??_C@_0GH@IAKBMDAE@C?3?2Program?5Files?5?$CIx86?$CJ?2Microsof@
CONST	SEGMENT
??_C@_0GH@IAKBMDAE@C?3?2Program?5Files?5?$CIx86?$CJ?2Microsof@ DB 'C:\Pro'
	DB	'gram Files (x86)\Microsoft Visual Studio\2019\Community\VC\To'
	DB	'ols\MSVC\14.27.29110\include\bitset', 00H	; `string'
CONST	ENDS
;	COMDAT ??_C@_0BL@HJCCEGKP@bitset?5index?5outside?5range@
CONST	SEGMENT
??_C@_0BL@HJCCEGKP@bitset?5index?5outside?5range@ DB 'bitset index outsid'
	DB	'e range', 00H				; `string'
CONST	ENDS
;	COMDAT ??_C@_1KM@GHGDHMGE@?$AAs?$AAt?$AAd?$AA?3?$AA?3?$AAd?$AAe?$AAq?$AAu?$AAe?$AA?$DM?$AAc?$AAl?$AAa?$AAs@
CONST	SEGMENT
??_C@_1KM@GHGDHMGE@?$AAs?$AAt?$AAd?$AA?3?$AA?3?$AAd?$AAe?$AAq?$AAu?$AAe?$AA?$DM?$AAc?$AAl?$AAa?$AAs@ DB 's'
	DB	00H, 't', 00H, 'd', 00H, ':', 00H, ':', 00H, 'd', 00H, 'e', 00H
	DB	'q', 00H, 'u', 00H, 'e', 00H, '<', 00H, 'c', 00H, 'l', 00H, 'a'
	DB	00H, 's', 00H, 's', 00H, ' ', 00H, 'K', 00H, 'e', 00H, 'y', 00H
	DB	'b', 00H, 'o', 00H, 'a', 00H, 'r', 00H, 'd', 00H, ':', 00H, ':'
	DB	00H, 'E', 00H, 'v', 00H, 'e', 00H, 'n', 00H, 't', 00H, ',', 00H
	DB	'c', 00H, 'l', 00H, 'a', 00H, 's', 00H, 's', 00H, ' ', 00H, 's'
	DB	00H, 't', 00H, 'd', 00H, ':', 00H, ':', 00H, 'a', 00H, 'l', 00H
	DB	'l', 00H, 'o', 00H, 'c', 00H, 'a', 00H, 't', 00H, 'o', 00H, 'r'
	DB	00H, '<', 00H, 'c', 00H, 'l', 00H, 'a', 00H, 's', 00H, 's', 00H
	DB	' ', 00H, 'K', 00H, 'e', 00H, 'y', 00H, 'b', 00H, 'o', 00H, 'a'
	DB	00H, 'r', 00H, 'd', 00H, ':', 00H, ':', 00H, 'E', 00H, 'v', 00H
	DB	'e', 00H, 'n', 00H, 't', 00H, '>', 00H, ' ', 00H, '>', 00H, ':'
	DB	00H, ':', 00H, 'f', 00H, 'r', 00H, 'o', 00H, 'n', 00H, 't', 00H
	DB	00H, 00H					; `string'
CONST	ENDS
;	COMDAT ??_C@_1LE@PABFFGOC@?$AAs?$AAt?$AAd?$AA?3?$AA?3?$AAd?$AAe?$AAq?$AAu?$AAe?$AA?$DM?$AAc?$AAl?$AAa?$AAs@
CONST	SEGMENT
??_C@_1LE@PABFFGOC@?$AAs?$AAt?$AAd?$AA?3?$AA?3?$AAd?$AAe?$AAq?$AAu?$AAe?$AA?$DM?$AAc?$AAl?$AAa?$AAs@ DB 's'
	DB	00H, 't', 00H, 'd', 00H, ':', 00H, ':', 00H, 'd', 00H, 'e', 00H
	DB	'q', 00H, 'u', 00H, 'e', 00H, '<', 00H, 'c', 00H, 'l', 00H, 'a'
	DB	00H, 's', 00H, 's', 00H, ' ', 00H, 'K', 00H, 'e', 00H, 'y', 00H
	DB	'b', 00H, 'o', 00H, 'a', 00H, 'r', 00H, 'd', 00H, ':', 00H, ':'
	DB	00H, 'E', 00H, 'v', 00H, 'e', 00H, 'n', 00H, 't', 00H, ',', 00H
	DB	'c', 00H, 'l', 00H, 'a', 00H, 's', 00H, 's', 00H, ' ', 00H, 's'
	DB	00H, 't', 00H, 'd', 00H, ':', 00H, ':', 00H, 'a', 00H, 'l', 00H
	DB	'l', 00H, 'o', 00H, 'c', 00H, 'a', 00H, 't', 00H, 'o', 00H, 'r'
	DB	00H, '<', 00H, 'c', 00H, 'l', 00H, 'a', 00H, 's', 00H, 's', 00H
	DB	' ', 00H, 'K', 00H, 'e', 00H, 'y', 00H, 'b', 00H, 'o', 00H, 'a'
	DB	00H, 'r', 00H, 'd', 00H, ':', 00H, ':', 00H, 'E', 00H, 'v', 00H
	DB	'e', 00H, 'n', 00H, 't', 00H, '>', 00H, ' ', 00H, '>', 00H, ':'
	DB	00H, ':', 00H, 'p', 00H, 'o', 00H, 'p', 00H, '_', 00H, 'f', 00H
	DB	'r', 00H, 'o', 00H, 'n', 00H, 't', 00H, 00H, 00H ; `string'
CONST	ENDS
;	COMDAT ??_C@_1EA@EELNAHHD@?$AA?$CC?$AAf?$AAr?$AAo?$AAn?$AAt?$AA?$CI?$AA?$CJ?$AA?5?$AAc?$AAa?$AAl?$AAl?$AAe?$AAd@
CONST	SEGMENT
??_C@_1EA@EELNAHHD@?$AA?$CC?$AAf?$AAr?$AAo?$AAn?$AAt?$AA?$CI?$AA?$CJ?$AA?5?$AAc?$AAa?$AAl?$AAl?$AAe?$AAd@ DB '"'
	DB	00H, 'f', 00H, 'r', 00H, 'o', 00H, 'n', 00H, 't', 00H, '(', 00H
	DB	')', 00H, ' ', 00H, 'c', 00H, 'a', 00H, 'l', 00H, 'l', 00H, 'e'
	DB	00H, 'd', 00H, ' ', 00H, 'o', 00H, 'n', 00H, ' ', 00H, 'e', 00H
	DB	'm', 00H, 'p', 00H, 't', 00H, 'y', 00H, ' ', 00H, 'd', 00H, 'e'
	DB	00H, 'q', 00H, 'u', 00H, 'e', 00H, '"', 00H, 00H, 00H ; `string'
CONST	ENDS
;	COMDAT ??_C@_1GI@BPJJIAKH@?$AAs?$AAt?$AAd?$AA?3?$AA?3?$AAd?$AAe?$AAq?$AAu?$AAe?$AA?$DM?$AAc?$AAh?$AAa?$AAr@
CONST	SEGMENT
??_C@_1GI@BPJJIAKH@?$AAs?$AAt?$AAd?$AA?3?$AA?3?$AAd?$AAe?$AAq?$AAu?$AAe?$AA?$DM?$AAc?$AAh?$AAa?$AAr@ DB 's'
	DB	00H, 't', 00H, 'd', 00H, ':', 00H, ':', 00H, 'd', 00H, 'e', 00H
	DB	'q', 00H, 'u', 00H, 'e', 00H, '<', 00H, 'c', 00H, 'h', 00H, 'a'
	DB	00H, 'r', 00H, ',', 00H, 'c', 00H, 'l', 00H, 'a', 00H, 's', 00H
	DB	's', 00H, ' ', 00H, 's', 00H, 't', 00H, 'd', 00H, ':', 00H, ':'
	DB	00H, 'a', 00H, 'l', 00H, 'l', 00H, 'o', 00H, 'c', 00H, 'a', 00H
	DB	't', 00H, 'o', 00H, 'r', 00H, '<', 00H, 'c', 00H, 'h', 00H, 'a'
	DB	00H, 'r', 00H, '>', 00H, ' ', 00H, '>', 00H, ':', 00H, ':', 00H
	DB	'f', 00H, 'r', 00H, 'o', 00H, 'n', 00H, 't', 00H, 00H, 00H ; `string'
CONST	ENDS
;	COMDAT ??_C@_0BO@PEOHNLIM@front?$CI?$CJ?5called?5on?5empty?5deque@
CONST	SEGMENT
??_C@_0BO@PEOHNLIM@front?$CI?$CJ?5called?5on?5empty?5deque@ DB 'front() c'
	DB	'alled on empty deque', 00H			; `string'
CONST	ENDS
;	COMDAT ??_C@_1DC@NJAACHCD@?$AA?$CC?$AAd?$AAe?$AAq?$AAu?$AAe?$AA?5?$AAe?$AAm?$AAp?$AAt?$AAy?$AA?5?$AAb?$AAe@
CONST	SEGMENT
??_C@_1DC@NJAACHCD@?$AA?$CC?$AAd?$AAe?$AAq?$AAu?$AAe?$AA?5?$AAe?$AAm?$AAp?$AAt?$AAy?$AA?5?$AAb?$AAe@ DB '"'
	DB	00H, 'd', 00H, 'e', 00H, 'q', 00H, 'u', 00H, 'e', 00H, ' ', 00H
	DB	'e', 00H, 'm', 00H, 'p', 00H, 't', 00H, 'y', 00H, ' ', 00H, 'b'
	DB	00H, 'e', 00H, 'f', 00H, 'o', 00H, 'r', 00H, 'e', 00H, ' ', 00H
	DB	'p', 00H, 'o', 00H, 'p', 00H, '"', 00H, 00H, 00H ; `string'
CONST	ENDS
;	COMDAT ??_C@_1HA@NKEJNHOK@?$AAs?$AAt?$AAd?$AA?3?$AA?3?$AAd?$AAe?$AAq?$AAu?$AAe?$AA?$DM?$AAc?$AAh?$AAa?$AAr@
CONST	SEGMENT
??_C@_1HA@NKEJNHOK@?$AAs?$AAt?$AAd?$AA?3?$AA?3?$AAd?$AAe?$AAq?$AAu?$AAe?$AA?$DM?$AAc?$AAh?$AAa?$AAr@ DB 's'
	DB	00H, 't', 00H, 'd', 00H, ':', 00H, ':', 00H, 'd', 00H, 'e', 00H
	DB	'q', 00H, 'u', 00H, 'e', 00H, '<', 00H, 'c', 00H, 'h', 00H, 'a'
	DB	00H, 'r', 00H, ',', 00H, 'c', 00H, 'l', 00H, 'a', 00H, 's', 00H
	DB	's', 00H, ' ', 00H, 's', 00H, 't', 00H, 'd', 00H, ':', 00H, ':'
	DB	00H, 'a', 00H, 'l', 00H, 'l', 00H, 'o', 00H, 'c', 00H, 'a', 00H
	DB	't', 00H, 'o', 00H, 'r', 00H, '<', 00H, 'c', 00H, 'h', 00H, 'a'
	DB	00H, 'r', 00H, '>', 00H, ' ', 00H, '>', 00H, ':', 00H, ':', 00H
	DB	'p', 00H, 'o', 00H, 'p', 00H, '_', 00H, 'f', 00H, 'r', 00H, 'o'
	DB	00H, 'n', 00H, 't', 00H, 00H, 00H		; `string'
CONST	ENDS
;	COMDAT ??_C@_1MM@LIKMHCEL@?$AAC?$AA?3?$AA?2?$AAP?$AAr?$AAo?$AAg?$AAr?$AAa?$AAm?$AA?5?$AAF?$AAi?$AAl?$AAe@
CONST	SEGMENT
??_C@_1MM@LIKMHCEL@?$AAC?$AA?3?$AA?2?$AAP?$AAr?$AAo?$AAg?$AAr?$AAa?$AAm?$AA?5?$AAF?$AAi?$AAl?$AAe@ DB 'C'
	DB	00H, ':', 00H, '\', 00H, 'P', 00H, 'r', 00H, 'o', 00H, 'g', 00H
	DB	'r', 00H, 'a', 00H, 'm', 00H, ' ', 00H, 'F', 00H, 'i', 00H, 'l'
	DB	00H, 'e', 00H, 's', 00H, ' ', 00H, '(', 00H, 'x', 00H, '8', 00H
	DB	'6', 00H, ')', 00H, '\', 00H, 'M', 00H, 'i', 00H, 'c', 00H, 'r'
	DB	00H, 'o', 00H, 's', 00H, 'o', 00H, 'f', 00H, 't', 00H, ' ', 00H
	DB	'V', 00H, 'i', 00H, 's', 00H, 'u', 00H, 'a', 00H, 'l', 00H, ' '
	DB	00H, 'S', 00H, 't', 00H, 'u', 00H, 'd', 00H, 'i', 00H, 'o', 00H
	DB	'\', 00H, '2', 00H, '0', 00H, '1', 00H, '9', 00H, '\', 00H, 'C'
	DB	00H, 'o', 00H, 'm', 00H, 'm', 00H, 'u', 00H, 'n', 00H, 'i', 00H
	DB	't', 00H, 'y', 00H, '\', 00H, 'V', 00H, 'C', 00H, '\', 00H, 'T'
	DB	00H, 'o', 00H, 'o', 00H, 'l', 00H, 's', 00H, '\', 00H, 'M', 00H
	DB	'S', 00H, 'V', 00H, 'C', 00H, '\', 00H, '1', 00H, '4', 00H, '.'
	DB	00H, '2', 00H, '7', 00H, '.', 00H, '2', 00H, '9', 00H, '1', 00H
	DB	'1', 00H, '0', 00H, '\', 00H, 'i', 00H, 'n', 00H, 'c', 00H, 'l'
	DB	00H, 'u', 00H, 'd', 00H, 'e', 00H, '\', 00H, 'd', 00H, 'e', 00H
	DB	'q', 00H, 'u', 00H, 'e', 00H, 00H, 00H	; `string'
CONST	ENDS
;	COMDAT ??_C@_0GG@LDDGPICM@C?3?2Program?5Files?5?$CIx86?$CJ?2Microsof@
CONST	SEGMENT
??_C@_0GG@LDDGPICM@C?3?2Program?5Files?5?$CIx86?$CJ?2Microsof@ DB 'C:\Pro'
	DB	'gram Files (x86)\Microsoft Visual Studio\2019\Community\VC\To'
	DB	'ols\MSVC\14.27.29110\include\deque', 00H	; `string'
CONST	ENDS
;	COMDAT ??_C@_0BH@EDKEEENI@deque?5empty?5before?5pop@
CONST	SEGMENT
??_C@_0BH@EDKEEENI@deque?5empty?5before?5pop@ DB 'deque empty before pop', 00H ; `string'
CONST	ENDS
;	COMDAT ??_C@_1CG@JNLFBNGN@?$AA?$CC?$AAi?$AAn?$AAv?$AAa?$AAl?$AAi?$AAd?$AA?5?$AAa?$AAr?$AAg?$AAu?$AAm?$AAe@
CONST	SEGMENT
??_C@_1CG@JNLFBNGN@?$AA?$CC?$AAi?$AAn?$AAv?$AAa?$AAl?$AAi?$AAd?$AA?5?$AAa?$AAr?$AAg?$AAu?$AAm?$AAe@ DB '"'
	DB	00H, 'i', 00H, 'n', 00H, 'v', 00H, 'a', 00H, 'l', 00H, 'i', 00H
	DB	'd', 00H, ' ', 00H, 'a', 00H, 'r', 00H, 'g', 00H, 'u', 00H, 'm'
	DB	00H, 'e', 00H, 'n', 00H, 't', 00H, '"', 00H, 00H, 00H ; `string'
CONST	ENDS
;	COMDAT ??_C@_1EK@NIFDJFDG@?$AAs?$AAt?$AAd?$AA?3?$AA?3?$AA_?$AAA?$AAd?$AAj?$AAu?$AAs?$AAt?$AA_?$AAm?$AAa@
CONST	SEGMENT
??_C@_1EK@NIFDJFDG@?$AAs?$AAt?$AAd?$AA?3?$AA?3?$AA_?$AAA?$AAd?$AAj?$AAu?$AAs?$AAt?$AA_?$AAm?$AAa@ DB 's'
	DB	00H, 't', 00H, 'd', 00H, ':', 00H, ':', 00H, '_', 00H, 'A', 00H
	DB	'd', 00H, 'j', 00H, 'u', 00H, 's', 00H, 't', 00H, '_', 00H, 'm'
	DB	00H, 'a', 00H, 'n', 00H, 'u', 00H, 'a', 00H, 'l', 00H, 'l', 00H
	DB	'y', 00H, '_', 00H, 'v', 00H, 'e', 00H, 'c', 00H, 't', 00H, 'o'
	DB	00H, 'r', 00H, '_', 00H, 'a', 00H, 'l', 00H, 'i', 00H, 'g', 00H
	DB	'n', 00H, 'e', 00H, 'd', 00H, 00H, 00H	; `string'
CONST	ENDS
;	COMDAT ??_C@_1NA@FEEOBALC@?$AAC?$AA?3?$AA?2?$AAP?$AAr?$AAo?$AAg?$AAr?$AAa?$AAm?$AA?5?$AAF?$AAi?$AAl?$AAe@
CONST	SEGMENT
??_C@_1NA@FEEOBALC@?$AAC?$AA?3?$AA?2?$AAP?$AAr?$AAo?$AAg?$AAr?$AAa?$AAm?$AA?5?$AAF?$AAi?$AAl?$AAe@ DB 'C'
	DB	00H, ':', 00H, '\', 00H, 'P', 00H, 'r', 00H, 'o', 00H, 'g', 00H
	DB	'r', 00H, 'a', 00H, 'm', 00H, ' ', 00H, 'F', 00H, 'i', 00H, 'l'
	DB	00H, 'e', 00H, 's', 00H, ' ', 00H, '(', 00H, 'x', 00H, '8', 00H
	DB	'6', 00H, ')', 00H, '\', 00H, 'M', 00H, 'i', 00H, 'c', 00H, 'r'
	DB	00H, 'o', 00H, 's', 00H, 'o', 00H, 'f', 00H, 't', 00H, ' ', 00H
	DB	'V', 00H, 'i', 00H, 's', 00H, 'u', 00H, 'a', 00H, 'l', 00H, ' '
	DB	00H, 'S', 00H, 't', 00H, 'u', 00H, 'd', 00H, 'i', 00H, 'o', 00H
	DB	'\', 00H, '2', 00H, '0', 00H, '1', 00H, '9', 00H, '\', 00H, 'C'
	DB	00H, 'o', 00H, 'm', 00H, 'm', 00H, 'u', 00H, 'n', 00H, 'i', 00H
	DB	't', 00H, 'y', 00H, '\', 00H, 'V', 00H, 'C', 00H, '\', 00H, 'T'
	DB	00H, 'o', 00H, 'o', 00H, 'l', 00H, 's', 00H, '\', 00H, 'M', 00H
	DB	'S', 00H, 'V', 00H, 'C', 00H, '\', 00H, '1', 00H, '4', 00H, '.'
	DB	00H, '2', 00H, '7', 00H, '.', 00H, '2', 00H, '9', 00H, '1', 00H
	DB	'1', 00H, '0', 00H, '\', 00H, 'i', 00H, 'n', 00H, 'c', 00H, 'l'
	DB	00H, 'u', 00H, 'd', 00H, 'e', 00H, '\', 00H, 'x', 00H, 'm', 00H
	DB	'e', 00H, 'm', 00H, 'o', 00H, 'r', 00H, 'y', 00H, 00H, 00H ; `string'
CONST	ENDS
;	COMDAT ??_C@_0GI@JMEOMKJO@C?3?2Program?5Files?5?$CIx86?$CJ?2Microsof@
CONST	SEGMENT
??_C@_0GI@JMEOMKJO@C?3?2Program?5Files?5?$CIx86?$CJ?2Microsof@ DB 'C:\Pro'
	DB	'gram Files (x86)\Microsoft Visual Studio\2019\Community\VC\To'
	DB	'ols\MSVC\14.27.29110\include\xmemory', 00H	; `string'
CONST	ENDS
;	COMDAT ??_C@_02DKCKIIND@?$CFs@
CONST	SEGMENT
??_C@_02DKCKIIND@?$CFs@ DB '%s', 00H			; `string'
CONST	ENDS
;	COMDAT ??_C@_0BB@FCMFBGOM@invalid?5argument@
CONST	SEGMENT
??_C@_0BB@FCMFBGOM@invalid?5argument@ DB 'invalid argument', 00H ; `string'
CONST	ENDS
;	COMDAT ?__LINE__Var@?0??_Adjust_manually_vector_aligned@std@@YAXAAPAXAAI@Z@4JA
_DATA	SEGMENT
?__LINE__Var@?0??_Adjust_manually_vector_aligned@std@@YAXAAPAXAAI@Z@4JA DD 084H ; `std::_Adjust_manually_vector_aligned'::`1'::__LINE__Var
_DATA	ENDS
;	COMDAT __CT??_R0?AVexception@std@@@8??0exception@std@@QAE@ABV01@@Z12
xdata$x	SEGMENT
__CT??_R0?AVexception@std@@@8??0exception@std@@QAE@ABV01@@Z12 DD 00H
	DD	FLAT:??_R0?AVexception@std@@@8
	DD	00H
	DD	0ffffffffH
	ORG $+4
	DD	0cH
	DD	FLAT:??0exception@std@@QAE@ABV01@@Z
xdata$x	ENDS
;	COMDAT ??_R0?AVexception@std@@@8
data$r	SEGMENT
??_R0?AVexception@std@@@8 DD FLAT:??_7type_info@@6B@	; std::exception `RTTI Type Descriptor'
	DD	00H
	DB	'.?AVexception@std@@', 00H
data$r	ENDS
;	COMDAT __CT??_R0?AVbad_alloc@std@@@8??0bad_alloc@std@@QAE@ABV01@@Z12
xdata$x	SEGMENT
__CT??_R0?AVbad_alloc@std@@@8??0bad_alloc@std@@QAE@ABV01@@Z12 DD 010H
	DD	FLAT:??_R0?AVbad_alloc@std@@@8
	DD	00H
	DD	0ffffffffH
	ORG $+4
	DD	0cH
	DD	FLAT:??0bad_alloc@std@@QAE@ABV01@@Z
xdata$x	ENDS
;	COMDAT ??_R0?AVbad_alloc@std@@@8
data$r	SEGMENT
??_R0?AVbad_alloc@std@@@8 DD FLAT:??_7type_info@@6B@	; std::bad_alloc `RTTI Type Descriptor'
	DD	00H
	DB	'.?AVbad_alloc@std@@', 00H
data$r	ENDS
;	COMDAT __CT??_R0?AVbad_array_new_length@std@@@8??0bad_array_new_length@std@@QAE@ABV01@@Z12
xdata$x	SEGMENT
__CT??_R0?AVbad_array_new_length@std@@@8??0bad_array_new_length@std@@QAE@ABV01@@Z12 DD 00H
	DD	FLAT:??_R0?AVbad_array_new_length@std@@@8
	DD	00H
	DD	0ffffffffH
	ORG $+4
	DD	0cH
	DD	FLAT:??0bad_array_new_length@std@@QAE@ABV01@@Z
xdata$x	ENDS
;	COMDAT ??_R0?AVbad_array_new_length@std@@@8
data$r	SEGMENT
??_R0?AVbad_array_new_length@std@@@8 DD FLAT:??_7type_info@@6B@ ; std::bad_array_new_length `RTTI Type Descriptor'
	DD	00H
	DB	'.?AVbad_array_new_length@std@@', 00H
data$r	ENDS
;	COMDAT __CTA3?AVbad_array_new_length@std@@
xdata$x	SEGMENT
__CTA3?AVbad_array_new_length@std@@ DD 03H
	DD	FLAT:__CT??_R0?AVbad_array_new_length@std@@@8??0bad_array_new_length@std@@QAE@ABV01@@Z12
	DD	FLAT:__CT??_R0?AVbad_alloc@std@@@8??0bad_alloc@std@@QAE@ABV01@@Z12
	DD	FLAT:__CT??_R0?AVexception@std@@@8??0exception@std@@QAE@ABV01@@Z12
xdata$x	ENDS
;	COMDAT __TI3?AVbad_array_new_length@std@@
xdata$x	SEGMENT
__TI3?AVbad_array_new_length@std@@ DD 00H
	DD	FLAT:??1bad_array_new_length@std@@UAE@XZ
	DD	00H
	DD	FLAT:__CTA3?AVbad_array_new_length@std@@
xdata$x	ENDS
;	COMDAT ??_C@_0BF@KINCDENJ@bad?5array?5new?5length@
CONST	SEGMENT
??_C@_0BF@KINCDENJ@bad?5array?5new?5length@ DB 'bad array new length', 00H ; `string'
CONST	ENDS
;	COMDAT ??_7bad_array_new_length@std@@6B@
CONST	SEGMENT
??_7bad_array_new_length@std@@6B@ DD FLAT:??_R4bad_array_new_length@std@@6B@ ; std::bad_array_new_length::`vftable'
	DD	FLAT:??_Ebad_array_new_length@std@@UAEPAXI@Z
	DD	FLAT:?what@exception@std@@UBEPBDXZ
CONST	ENDS
;	COMDAT ??_7bad_alloc@std@@6B@
CONST	SEGMENT
??_7bad_alloc@std@@6B@ DD FLAT:??_R4bad_alloc@std@@6B@	; std::bad_alloc::`vftable'
	DD	FLAT:??_Ebad_alloc@std@@UAEPAXI@Z
	DD	FLAT:?what@exception@std@@UBEPBDXZ
CONST	ENDS
;	COMDAT ??_C@_0BC@EOODALEL@Unknown?5exception@
CONST	SEGMENT
??_C@_0BC@EOODALEL@Unknown?5exception@ DB 'Unknown exception', 00H ; `string'
CONST	ENDS
;	COMDAT ??_7exception@std@@6B@
CONST	SEGMENT
??_7exception@std@@6B@ DD FLAT:??_R4exception@std@@6B@	; std::exception::`vftable'
	DD	FLAT:??_Eexception@std@@UAEPAXI@Z
	DD	FLAT:?what@exception@std@@UBEPBDXZ
CONST	ENDS
;	COMDAT xdata$x
xdata$x	SEGMENT
__ehfuncinfo$??$_Verify_range@PAVEvent@Keyboard@@@std@@YAXQBQAVEvent@Keyboard@@0@Z DD 019930522H
	DD	00H
	DD	00H
	DD	2 DUP(00H)
	DD	2 DUP(00H)
	DD	00H
	DD	05H
xdata$x	ENDS
;	COMDAT xdata$x
xdata$x	SEGMENT
__ehfuncinfo$??$_Verify_range@PAD@std@@YAXQBQAD0@Z DD 019930522H
	DD	00H
	DD	00H
	DD	2 DUP(00H)
	DD	2 DUP(00H)
	DD	00H
	DD	05H
xdata$x	ENDS
;	COMDAT xdata$x
xdata$x	SEGMENT
__ehfuncinfo$??$min@I@std@@YAABIABI0@Z DD 019930522H
	DD	00H
	DD	00H
	DD	2 DUP(00H)
	DD	2 DUP(00H)
	DD	00H
	DD	05H
xdata$x	ENDS
;	COMDAT xdata$x
xdata$x	SEGMENT
__ehfuncinfo$??$_Destroy_range@PAPAVEvent@Keyboard@@@std@@YAXPAPAVEvent@Keyboard@@QAPAV12@@Z DD 019930522H
	DD	00H
	DD	00H
	DD	2 DUP(00H)
	DD	2 DUP(00H)
	DD	00H
	DD	05H
xdata$x	ENDS
;	COMDAT xdata$x
xdata$x	SEGMENT
__ehfuncinfo$??$_Destroy_range@PAPAD@std@@YAXPAPADQAPAD@Z DD 019930522H
	DD	00H
	DD	00H
	DD	2 DUP(00H)
	DD	2 DUP(00H)
	DD	00H
	DD	05H
xdata$x	ENDS
;	COMDAT xdata$x
xdata$x	SEGMENT
__ehfuncinfo$??$move@AAV?$allocator@VEvent@Keyboard@@@std@@@std@@YA$$QAV?$allocator@VEvent@Keyboard@@@0@AAV10@@Z DD 019930522H
	DD	00H
	DD	00H
	DD	2 DUP(00H)
	DD	2 DUP(00H)
	DD	00H
	DD	05H
xdata$x	ENDS
;	COMDAT xdata$x
xdata$x	SEGMENT
__ehfuncinfo$??$forward@VEvent@Keyboard@@@std@@YA$$QAVEvent@Keyboard@@AAV12@@Z DD 019930522H
	DD	00H
	DD	00H
	DD	2 DUP(00H)
	DD	2 DUP(00H)
	DD	00H
	DD	05H
xdata$x	ENDS
;	COMDAT xdata$x
xdata$x	SEGMENT
__ehfuncinfo$??$move@AAV?$allocator@D@std@@@std@@YA$$QAV?$allocator@D@0@AAV10@@Z DD 019930522H
	DD	00H
	DD	00H
	DD	2 DUP(00H)
	DD	2 DUP(00H)
	DD	00H
	DD	05H
xdata$x	ENDS
;	COMDAT xdata$x
xdata$x	SEGMENT
__ehfuncinfo$??$forward@ABD@std@@YAABDABD@Z DD 019930522H
	DD	00H
	DD	00H
	DD	2 DUP(00H)
	DD	2 DUP(00H)
	DD	00H
	DD	05H
xdata$x	ENDS
;	COMDAT xdata$x
xdata$x	SEGMENT
__ehfuncinfo$??$_Deallocate_plain@V?$allocator@U_Container_proxy@std@@@std@@@std@@YAXAAV?$allocator@U_Container_proxy@std@@@0@QAU_Container_proxy@0@@Z DD 019930522H
	DD	00H
	DD	00H
	DD	2 DUP(00H)
	DD	2 DUP(00H)
	DD	00H
	DD	05H
xdata$x	ENDS
;	COMDAT xdata$x
xdata$x	SEGMENT
__ehfuncinfo$??$forward@PAU_Container_base12@std@@@std@@YA$$QAPAU_Container_base12@0@AAPAU10@@Z DD 019930522H
	DD	00H
	DD	00H
	DD	2 DUP(00H)
	DD	2 DUP(00H)
	DD	00H
	DD	05H
xdata$x	ENDS
;	COMDAT xdata$x
xdata$x	SEGMENT
__ehfuncinfo$??$addressof@U_Container_proxy@std@@@std@@YAPAU_Container_proxy@0@AAU10@@Z DD 019930522H
	DD	00H
	DD	00H
	DD	2 DUP(00H)
	DD	2 DUP(00H)
	DD	00H
	DD	05H
xdata$x	ENDS
;	COMDAT xdata$x
xdata$x	SEGMENT
__ehfuncinfo$??$addressof@V?$_Deque_val@U?$_Deque_simple_types@VEvent@Keyboard@@@std@@@std@@@std@@YAPAV?$_Deque_val@U?$_Deque_simple_types@VEvent@Keyboard@@@std@@@0@AAV10@@Z DD 019930522H
	DD	00H
	DD	00H
	DD	2 DUP(00H)
	DD	2 DUP(00H)
	DD	00H
	DD	05H
xdata$x	ENDS
;	COMDAT xdata$x
xdata$x	SEGMENT
__ehfuncinfo$??$_Deallocate@$07$0A@@std@@YAXPAXI@Z DD 019930522H
	DD	00H
	DD	00H
	DD	2 DUP(00H)
	DD	2 DUP(00H)
	DD	00H
	DD	05H
xdata$x	ENDS
;	COMDAT xdata$x
xdata$x	SEGMENT
__ehfuncinfo$??$addressof@V?$_Deque_val@U?$_Deque_simple_types@D@std@@@std@@@std@@YAPAV?$_Deque_val@U?$_Deque_simple_types@D@std@@@0@AAV10@@Z DD 019930522H
	DD	00H
	DD	00H
	DD	2 DUP(00H)
	DD	2 DUP(00H)
	DD	00H
	DD	05H
xdata$x	ENDS
;	COMDAT xdata$x
xdata$x	SEGMENT
__ehfuncinfo$??$_Pocma@V?$allocator@VEvent@Keyboard@@@std@@@std@@YAXAAV?$allocator@VEvent@Keyboard@@@0@0@Z DD 019930522H
	DD	00H
	DD	00H
	DD	2 DUP(00H)
	DD	2 DUP(00H)
	DD	00H
	DD	05H
xdata$x	ENDS
;	COMDAT xdata$x
xdata$x	SEGMENT
__ehfuncinfo$??0?$_Deque_unchecked_const_iterator@V?$_Deque_val@U?$_Deque_simple_types@VEvent@Keyboard@@@std@@@std@@@std@@QAE@IPBU_Container_base12@1@@Z DD 019930522H
	DD	00H
	DD	00H
	DD	2 DUP(00H)
	DD	2 DUP(00H)
	DD	00H
	DD	05H
xdata$x	ENDS
;	COMDAT xdata$x
xdata$x	SEGMENT
__ehfuncinfo$??$_Unfancy@VEvent@Keyboard@@@std@@YAPAVEvent@Keyboard@@PAV12@@Z DD 019930522H
	DD	00H
	DD	00H
	DD	2 DUP(00H)
	DD	2 DUP(00H)
	DD	00H
	DD	05H
xdata$x	ENDS
;	COMDAT xdata$x
xdata$x	SEGMENT
__ehfuncinfo$??$_Destroy_in_place@PAVEvent@Keyboard@@@std@@YAXAAPAVEvent@Keyboard@@@Z DD 019930522H
	DD	00H
	DD	00H
	DD	2 DUP(00H)
	DD	2 DUP(00H)
	DD	00H
	DD	05H
xdata$x	ENDS
;	COMDAT xdata$x
xdata$x	SEGMENT
__ehfuncinfo$??$?0VEvent@Keyboard@@@?$allocator@PAVEvent@Keyboard@@@std@@QAE@ABV?$allocator@VEvent@Keyboard@@@1@@Z DD 019930522H
	DD	00H
	DD	00H
	DD	2 DUP(00H)
	DD	2 DUP(00H)
	DD	00H
	DD	05H
xdata$x	ENDS
;	COMDAT xdata$x
xdata$x	SEGMENT
__ehfuncinfo$??$_Pocma@V?$allocator@D@std@@@std@@YAXAAV?$allocator@D@0@0@Z DD 019930522H
	DD	00H
	DD	00H
	DD	2 DUP(00H)
	DD	2 DUP(00H)
	DD	00H
	DD	05H
xdata$x	ENDS
;	COMDAT xdata$x
xdata$x	SEGMENT
__ehfuncinfo$??0?$_Deque_unchecked_const_iterator@V?$_Deque_val@U?$_Deque_simple_types@D@std@@@std@@@std@@QAE@IPBU_Container_base12@1@@Z DD 019930522H
	DD	00H
	DD	00H
	DD	2 DUP(00H)
	DD	2 DUP(00H)
	DD	00H
	DD	05H
xdata$x	ENDS
;	COMDAT xdata$x
xdata$x	SEGMENT
__ehfuncinfo$??$_Unfancy@D@std@@YAPADPAD@Z DD 019930522H
	DD	00H
	DD	00H
	DD	2 DUP(00H)
	DD	2 DUP(00H)
	DD	00H
	DD	05H
xdata$x	ENDS
;	COMDAT xdata$x
xdata$x	SEGMENT
__ehfuncinfo$??$_Destroy_in_place@PAD@std@@YAXAAPAD@Z DD 019930522H
	DD	00H
	DD	00H
	DD	2 DUP(00H)
	DD	2 DUP(00H)
	DD	00H
	DD	05H
xdata$x	ENDS
;	COMDAT xdata$x
xdata$x	SEGMENT
__ehfuncinfo$??$?0D@?$allocator@PAD@std@@QAE@ABV?$allocator@D@1@@Z DD 019930522H
	DD	00H
	DD	00H
	DD	2 DUP(00H)
	DD	2 DUP(00H)
	DD	00H
	DD	05H
xdata$x	ENDS
;	COMDAT xdata$x
xdata$x	SEGMENT
__ehfuncinfo$??$_Unfancy@U_Container_proxy@std@@@std@@YAPAU_Container_proxy@0@PAU10@@Z DD 019930522H
	DD	00H
	DD	00H
	DD	2 DUP(00H)
	DD	2 DUP(00H)
	DD	00H
	DD	05H
xdata$x	ENDS
;	COMDAT xdata$x
xdata$x	SEGMENT
__ehfuncinfo$??$?0$$V@?$_Compressed_pair@V?$allocator@VEvent@Keyboard@@@std@@V?$_Deque_val@U?$_Deque_simple_types@VEvent@Keyboard@@@std@@@2@$00@std@@QAE@U_Zero_then_variadic_args_t@1@@Z DD 019930522H
	DD	00H
	DD	00H
	DD	2 DUP(00H)
	DD	2 DUP(00H)
	DD	00H
	DD	05H
xdata$x	ENDS
;	COMDAT xdata$x
xdata$x	SEGMENT
__ehfuncinfo$??$addressof@V?$deque@VEvent@Keyboard@@V?$allocator@VEvent@Keyboard@@@std@@@std@@@std@@YAPAV?$deque@VEvent@Keyboard@@V?$allocator@VEvent@Keyboard@@@std@@@0@AAV10@@Z DD 019930522H
	DD	00H
	DD	00H
	DD	2 DUP(00H)
	DD	2 DUP(00H)
	DD	00H
	DD	05H
xdata$x	ENDS
;	COMDAT xdata$x
xdata$x	SEGMENT
__ehfuncinfo$??$?0VEvent@Keyboard@@@?$allocator@U_Container_proxy@std@@@std@@QAE@ABV?$allocator@VEvent@Keyboard@@@1@@Z DD 019930522H
	DD	00H
	DD	00H
	DD	2 DUP(00H)
	DD	2 DUP(00H)
	DD	00H
	DD	05H
xdata$x	ENDS
;	COMDAT xdata$x
xdata$x	SEGMENT
__ehfuncinfo$??$move@AAVEvent@Keyboard@@@std@@YA$$QAVEvent@Keyboard@@AAV12@@Z DD 019930522H
	DD	00H
	DD	00H
	DD	2 DUP(00H)
	DD	2 DUP(00H)
	DD	00H
	DD	05H
xdata$x	ENDS
;	COMDAT xdata$x
xdata$x	SEGMENT
__ehfuncinfo$??$?0$$V@?$_Compressed_pair@V?$allocator@D@std@@V?$_Deque_val@U?$_Deque_simple_types@D@std@@@2@$00@std@@QAE@U_Zero_then_variadic_args_t@1@@Z DD 019930522H
	DD	00H
	DD	00H
	DD	2 DUP(00H)
	DD	2 DUP(00H)
	DD	00H
	DD	05H
xdata$x	ENDS
;	COMDAT xdata$x
xdata$x	SEGMENT
__ehfuncinfo$??$addressof@V?$deque@DV?$allocator@D@std@@@std@@@std@@YAPAV?$deque@DV?$allocator@D@std@@@0@AAV10@@Z DD 019930522H
	DD	00H
	DD	00H
	DD	2 DUP(00H)
	DD	2 DUP(00H)
	DD	00H
	DD	05H
xdata$x	ENDS
;	COMDAT xdata$x
xdata$x	SEGMENT
__ehfuncinfo$??$_Delete_plain_internal@V?$allocator@U_Container_proxy@std@@@std@@@std@@YAXAAV?$allocator@U_Container_proxy@std@@@0@QAU_Container_proxy@0@@Z DD 019930522H
	DD	00H
	DD	00H
	DD	2 DUP(00H)
	DD	2 DUP(00H)
	DD	00H
	DD	05H
xdata$x	ENDS
;	COMDAT xdata$x
xdata$x	SEGMENT
__ehfuncinfo$??$exchange@PAU_Container_proxy@std@@$$T@std@@YAPAU_Container_proxy@0@AAPAU10@$$QA$$T@Z DD 019930522H
	DD	00H
	DD	00H
	DD	2 DUP(00H)
	DD	2 DUP(00H)
	DD	00H
	DD	05H
xdata$x	ENDS
;	COMDAT xdata$x
xdata$x	SEGMENT
__ehfuncinfo$??$?0D@?$allocator@U_Container_proxy@std@@@std@@QAE@ABV?$allocator@D@1@@Z DD 019930522H
	DD	00H
	DD	00H
	DD	2 DUP(00H)
	DD	2 DUP(00H)
	DD	00H
	DD	05H
xdata$x	ENDS
;	COMDAT xdata$x
xdata$x	SEGMENT
__ehfuncinfo$??$TrimBuffer@D@Keyboard@@CAXAAV?$queue@DV?$deque@DV?$allocator@D@std@@@std@@@std@@@Z DD 019930522H
	DD	00H
	DD	00H
	DD	2 DUP(00H)
	DD	2 DUP(00H)
	DD	00H
	DD	05H
xdata$x	ENDS
;	COMDAT xdata$x
xdata$x	SEGMENT
__ehfuncinfo$??$TrimBuffer@VEvent@Keyboard@@@Keyboard@@CAXAAV?$queue@VEvent@Keyboard@@V?$deque@VEvent@Keyboard@@V?$allocator@VEvent@Keyboard@@@std@@@std@@@std@@@Z DD 019930522H
	DD	00H
	DD	00H
	DD	2 DUP(00H)
	DD	2 DUP(00H)
	DD	00H
	DD	05H
xdata$x	ENDS
;	COMDAT xdata$x
xdata$x	SEGMENT
__ehfuncinfo$??4reference@?$bitset@$0BAA@@std@@QAEAAV012@_N@Z DD 019930522H
	DD	00H
	DD	00H
	DD	2 DUP(00H)
	DD	2 DUP(00H)
	DD	00H
	DD	05H
xdata$x	ENDS
;	COMDAT xdata$x
xdata$x	SEGMENT
__ehfuncinfo$??1reference@?$bitset@$0BAA@@std@@QAE@XZ DD 019930522H
	DD	00H
	DD	00H
	DD	2 DUP(00H)
	DD	2 DUP(00H)
	DD	00H
	DD	05H
xdata$x	ENDS
;	COMDAT xdata$x
xdata$x	SEGMENT
__ehfuncinfo$?pop@?$queue@DV?$deque@DV?$allocator@D@std@@@std@@@std@@QAEXXZ DD 019930522H
	DD	00H
	DD	00H
	DD	2 DUP(00H)
	DD	2 DUP(00H)
	DD	00H
	DD	05H
xdata$x	ENDS
;	COMDAT xdata$x
xdata$x	SEGMENT
__ehfuncinfo$?front@?$queue@DV?$deque@DV?$allocator@D@std@@@std@@@std@@QAEAADXZ DD 019930522H
	DD	00H
	DD	00H
	DD	2 DUP(00H)
	DD	2 DUP(00H)
	DD	00H
	DD	05H
xdata$x	ENDS
;	COMDAT xdata$x
xdata$x	SEGMENT
__ehfuncinfo$?size@?$queue@DV?$deque@DV?$allocator@D@std@@@std@@@std@@QBEIXZ DD 019930522H
	DD	00H
	DD	00H
	DD	2 DUP(00H)
	DD	2 DUP(00H)
	DD	00H
	DD	05H
xdata$x	ENDS
;	COMDAT xdata$x
xdata$x	SEGMENT
__ehfuncinfo$?empty@?$queue@DV?$deque@DV?$allocator@D@std@@@std@@@std@@QBE_NXZ DD 019930522H
	DD	00H
	DD	00H
	DD	2 DUP(00H)
	DD	2 DUP(00H)
	DD	00H
	DD	05H
xdata$x	ENDS
;	COMDAT xdata$x
xdata$x	SEGMENT
__ehfuncinfo$??0?$queue@DV?$deque@DV?$allocator@D@std@@@std@@@std@@QAE@XZ DD 019930522H
	DD	00H
	DD	00H
	DD	2 DUP(00H)
	DD	2 DUP(00H)
	DD	00H
	DD	05H
xdata$x	ENDS
;	COMDAT xdata$x
xdata$x	SEGMENT
__ehfuncinfo$?_Get_first@?$_Compressed_pair@V?$allocator@D@std@@V?$_Deque_val@U?$_Deque_simple_types@D@std@@@2@$00@std@@QBEABV?$allocator@D@2@XZ DD 019930522H
	DD	00H
	DD	00H
	DD	2 DUP(00H)
	DD	2 DUP(00H)
	DD	00H
	DD	05H
xdata$x	ENDS
;	COMDAT xdata$x
xdata$x	SEGMENT
__ehfuncinfo$?_Get_first@?$_Compressed_pair@V?$allocator@D@std@@V?$_Deque_val@U?$_Deque_simple_types@D@std@@@2@$00@std@@QAEAAV?$allocator@D@2@XZ DD 019930522H
	DD	00H
	DD	00H
	DD	2 DUP(00H)
	DD	2 DUP(00H)
	DD	00H
	DD	05H
xdata$x	ENDS
;	COMDAT xdata$x
xdata$x	SEGMENT
__ehfuncinfo$?_Getblock@?$_Deque_val@U?$_Deque_simple_types@D@std@@@std@@QBEII@Z DD 019930522H
	DD	00H
	DD	00H
	DD	2 DUP(00H)
	DD	2 DUP(00H)
	DD	00H
	DD	05H
xdata$x	ENDS
;	COMDAT xdata$x
xdata$x	SEGMENT
__ehfuncinfo$??0?$_Deque_val@U?$_Deque_simple_types@D@std@@@std@@QAE@XZ DD 019930522H
	DD	00H
	DD	00H
	DD	2 DUP(00H)
	DD	2 DUP(00H)
	DD	00H
	DD	05H
xdata$x	ENDS
;	COMDAT xdata$x
xdata$x	SEGMENT
__ehfuncinfo$?_Mysize@?$deque@DV?$allocator@D@std@@@std@@ABEABIXZ DD 019930522H
	DD	00H
	DD	00H
	DD	2 DUP(00H)
	DD	2 DUP(00H)
	DD	00H
	DD	05H
xdata$x	ENDS
;	COMDAT xdata$x
xdata$x	SEGMENT
__ehfuncinfo$?_Mysize@?$deque@DV?$allocator@D@std@@@std@@AAEAAIXZ DD 019930522H
	DD	00H
	DD	00H
	DD	2 DUP(00H)
	DD	2 DUP(00H)
	DD	00H
	DD	05H
xdata$x	ENDS
;	COMDAT xdata$x
xdata$x	SEGMENT
__ehfuncinfo$?_Myoff@?$deque@DV?$allocator@D@std@@@std@@ABEABIXZ DD 019930522H
	DD	00H
	DD	00H
	DD	2 DUP(00H)
	DD	2 DUP(00H)
	DD	00H
	DD	05H
xdata$x	ENDS
;	COMDAT xdata$x
xdata$x	SEGMENT
__ehfuncinfo$?_Myoff@?$deque@DV?$allocator@D@std@@@std@@AAEAAIXZ DD 019930522H
	DD	00H
	DD	00H
	DD	2 DUP(00H)
	DD	2 DUP(00H)
	DD	00H
	DD	05H
xdata$x	ENDS
;	COMDAT xdata$x
xdata$x	SEGMENT
__ehfuncinfo$?_Mapsize@?$deque@DV?$allocator@D@std@@@std@@AAEAAIXZ DD 019930522H
	DD	00H
	DD	00H
	DD	2 DUP(00H)
	DD	2 DUP(00H)
	DD	00H
	DD	05H
xdata$x	ENDS
;	COMDAT xdata$x
xdata$x	SEGMENT
__ehfuncinfo$?_Map@?$deque@DV?$allocator@D@std@@@std@@AAEAAPAPADXZ DD 019930522H
	DD	00H
	DD	00H
	DD	2 DUP(00H)
	DD	2 DUP(00H)
	DD	00H
	DD	05H
xdata$x	ENDS
;	COMDAT xdata$x
xdata$x	SEGMENT
__ehfuncinfo$?_Get_data@?$deque@DV?$allocator@D@std@@@std@@ABEABV?$_Deque_val@U?$_Deque_simple_types@D@std@@@2@XZ DD 019930522H
	DD	00H
	DD	00H
	DD	2 DUP(00H)
	DD	2 DUP(00H)
	DD	00H
	DD	05H
xdata$x	ENDS
;	COMDAT xdata$x
xdata$x	SEGMENT
__ehfuncinfo$?_Get_data@?$deque@DV?$allocator@D@std@@@std@@AAEAAV?$_Deque_val@U?$_Deque_simple_types@D@std@@@2@XZ DD 019930522H
	DD	00H
	DD	00H
	DD	2 DUP(00H)
	DD	2 DUP(00H)
	DD	00H
	DD	05H
xdata$x	ENDS
;	COMDAT xdata$x
xdata$x	SEGMENT
__ehfuncinfo$?_Getal@?$deque@DV?$allocator@D@std@@@std@@ABEABV?$allocator@D@2@XZ DD 019930522H
	DD	00H
	DD	00H
	DD	2 DUP(00H)
	DD	2 DUP(00H)
	DD	00H
	DD	05H
xdata$x	ENDS
;	COMDAT xdata$x
xdata$x	SEGMENT
__ehfuncinfo$?_Getal@?$deque@DV?$allocator@D@std@@@std@@AAEAAV?$allocator@D@2@XZ DD 019930522H
	DD	00H
	DD	00H
	DD	2 DUP(00H)
	DD	2 DUP(00H)
	DD	00H
	DD	05H
xdata$x	ENDS
;	COMDAT xdata$x
xdata$x	SEGMENT
__ehfuncinfo$?_Orphan_all@?$deque@DV?$allocator@D@std@@@std@@AAEXXZ DD 019930522H
	DD	00H
	DD	00H
	DD	2 DUP(00H)
	DD	2 DUP(00H)
	DD	00H
	DD	05H
xdata$x	ENDS
;	COMDAT xdata$x
xdata$x	SEGMENT
__ehfuncinfo$?_Getblock@?$deque@DV?$allocator@D@std@@@std@@ABEII@Z DD 019930522H
	DD	00H
	DD	00H
	DD	2 DUP(00H)
	DD	2 DUP(00H)
	DD	00H
	DD	05H
xdata$x	ENDS
;	COMDAT xdata$x
xdata$x	SEGMENT
__ehfuncinfo$?_Orphan_off@?$deque@DV?$allocator@D@std@@@std@@ABEXI@Z DD 019930522H
	DD	00H
	DD	00H
	DD	2 DUP(00H)
	DD	2 DUP(00H)
	DD	00H
	DD	05H
xdata$x	ENDS
;	COMDAT xdata$x
xdata$x	SEGMENT
__ehfuncinfo$?_Tidy@?$deque@DV?$allocator@D@std@@@std@@AAEXXZ DD 019930522H
	DD	00H
	DD	00H
	DD	2 DUP(00H)
	DD	2 DUP(00H)
	DD	00H
	DD	05H
xdata$x	ENDS
;	COMDAT xdata$x
xdata$x	SEGMENT
__ehfuncinfo$?pop_back@?$deque@DV?$allocator@D@std@@@std@@QAEXXZ DD 019930522H
	DD	00H
	DD	00H
	DD	2 DUP(00H)
	DD	2 DUP(00H)
	DD	00H
	DD	05H
xdata$x	ENDS
;	COMDAT xdata$x
xdata$x	SEGMENT
__ehfuncinfo$?pop_front@?$deque@DV?$allocator@D@std@@@std@@QAEXXZ DD 019930522H
	DD	00H
	DD	00H
	DD	2 DUP(00H)
	DD	2 DUP(00H)
	DD	00H
	DD	05H
xdata$x	ENDS
;	COMDAT xdata$x
xdata$x	SEGMENT
__ehfuncinfo$?front@?$deque@DV?$allocator@D@std@@@std@@QAEAADXZ DD 019930522H
	DD	00H
	DD	00H
	DD	2 DUP(00H)
	DD	2 DUP(00H)
	DD	00H
	DD	05H
xdata$x	ENDS
;	COMDAT xdata$x
xdata$x	SEGMENT
__ehfuncinfo$?empty@?$deque@DV?$allocator@D@std@@@std@@QBE_NXZ DD 019930522H
	DD	00H
	DD	00H
	DD	2 DUP(00H)
	DD	2 DUP(00H)
	DD	00H
	DD	05H
xdata$x	ENDS
;	COMDAT xdata$x
xdata$x	SEGMENT
__ehfuncinfo$?max_size@?$deque@DV?$allocator@D@std@@@std@@QBEIXZ DD 019930522H
	DD	00H
	DD	00H
	DD	2 DUP(00H)
	DD	2 DUP(00H)
	DD	00H
	DD	05H
xdata$x	ENDS
;	COMDAT xdata$x
xdata$x	SEGMENT
__ehfuncinfo$?size@?$deque@DV?$allocator@D@std@@@std@@QBEIXZ DD 019930522H
	DD	00H
	DD	00H
	DD	2 DUP(00H)
	DD	2 DUP(00H)
	DD	00H
	DD	05H
xdata$x	ENDS
;	COMDAT xdata$x
xdata$x	SEGMENT
__ehfuncinfo$?_Unchecked_begin@?$deque@DV?$allocator@D@std@@@std@@QAE?AV?$_Deque_unchecked_iterator@V?$_Deque_val@U?$_Deque_simple_types@D@std@@@std@@@2@XZ DD 019930522H
	DD	00H
	DD	00H
	DD	2 DUP(00H)
	DD	2 DUP(00H)
	DD	00H
	DD	05H
xdata$x	ENDS
;	COMDAT xdata$x
xdata$x	SEGMENT
__ehfuncinfo$??1?$deque@DV?$allocator@D@std@@@std@@QAE@XZ DD 019930522H
	DD	00H
	DD	00H
	DD	2 DUP(00H)
	DD	2 DUP(00H)
	DD	00H
	DD	05H
xdata$x	ENDS
;	COMDAT xdata$x
xdata$x	SEGMENT
__ehfuncinfo$?_Take_contents@?$deque@DV?$allocator@D@std@@@std@@AAEXAAV12@@Z DD 019930522H
	DD	00H
	DD	00H
	DD	2 DUP(00H)
	DD	2 DUP(00H)
	DD	00H
	DD	05H
xdata$x	ENDS
;	COMDAT xdata$x
xdata$x	SEGMENT
__ehfuncinfo$??4?$deque@DV?$allocator@D@std@@@std@@QAEAAV01@$$QAV01@@Z DD 019930522H
	DD	00H
	DD	00H
	DD	2 DUP(00H)
	DD	2 DUP(00H)
	DD	00H
	DD	05H
xdata$x	ENDS
;	COMDAT xdata$x
xdata$x	SEGMENT
__ehfuncinfo$?_Move_assign@?$deque@DV?$allocator@D@std@@@std@@AAEXAAV12@U_Equal_allocators@2@@Z DD 019930522H
	DD	00H
	DD	00H
	DD	2 DUP(00H)
	DD	2 DUP(00H)
	DD	00H
	DD	05H
xdata$x	ENDS
;	COMDAT xdata$x
xdata$x	SEGMENT
__ehfuncinfo$?pop@?$queue@VEvent@Keyboard@@V?$deque@VEvent@Keyboard@@V?$allocator@VEvent@Keyboard@@@std@@@std@@@std@@QAEXXZ DD 019930522H
	DD	00H
	DD	00H
	DD	2 DUP(00H)
	DD	2 DUP(00H)
	DD	00H
	DD	05H
xdata$x	ENDS
;	COMDAT xdata$x
xdata$x	SEGMENT
__ehfuncinfo$?front@?$queue@VEvent@Keyboard@@V?$deque@VEvent@Keyboard@@V?$allocator@VEvent@Keyboard@@@std@@@std@@@std@@QAEAAVEvent@Keyboard@@XZ DD 019930522H
	DD	00H
	DD	00H
	DD	2 DUP(00H)
	DD	2 DUP(00H)
	DD	00H
	DD	05H
xdata$x	ENDS
;	COMDAT xdata$x
xdata$x	SEGMENT
__ehfuncinfo$?size@?$queue@VEvent@Keyboard@@V?$deque@VEvent@Keyboard@@V?$allocator@VEvent@Keyboard@@@std@@@std@@@std@@QBEIXZ DD 019930522H
	DD	00H
	DD	00H
	DD	2 DUP(00H)
	DD	2 DUP(00H)
	DD	00H
	DD	05H
xdata$x	ENDS
;	COMDAT xdata$x
xdata$x	SEGMENT
__ehfuncinfo$?empty@?$queue@VEvent@Keyboard@@V?$deque@VEvent@Keyboard@@V?$allocator@VEvent@Keyboard@@@std@@@std@@@std@@QBE_NXZ DD 019930522H
	DD	00H
	DD	00H
	DD	2 DUP(00H)
	DD	2 DUP(00H)
	DD	00H
	DD	05H
xdata$x	ENDS
;	COMDAT xdata$x
xdata$x	SEGMENT
__ehfuncinfo$??0?$queue@VEvent@Keyboard@@V?$deque@VEvent@Keyboard@@V?$allocator@VEvent@Keyboard@@@std@@@std@@@std@@QAE@XZ DD 019930522H
	DD	00H
	DD	00H
	DD	2 DUP(00H)
	DD	2 DUP(00H)
	DD	00H
	DD	05H
xdata$x	ENDS
;	COMDAT xdata$x
xdata$x	SEGMENT
__ehfuncinfo$?_Get_first@?$_Compressed_pair@V?$allocator@VEvent@Keyboard@@@std@@V?$_Deque_val@U?$_Deque_simple_types@VEvent@Keyboard@@@std@@@2@$00@std@@QBEABV?$allocator@VEvent@Keyboard@@@2@XZ DD 019930522H
	DD	00H
	DD	00H
	DD	2 DUP(00H)
	DD	2 DUP(00H)
	DD	00H
	DD	05H
xdata$x	ENDS
;	COMDAT xdata$x
xdata$x	SEGMENT
__ehfuncinfo$?_Get_first@?$_Compressed_pair@V?$allocator@VEvent@Keyboard@@@std@@V?$_Deque_val@U?$_Deque_simple_types@VEvent@Keyboard@@@std@@@2@$00@std@@QAEAAV?$allocator@VEvent@Keyboard@@@2@XZ DD 019930522H
	DD	00H
	DD	00H
	DD	2 DUP(00H)
	DD	2 DUP(00H)
	DD	00H
	DD	05H
xdata$x	ENDS
;	COMDAT xdata$x
xdata$x	SEGMENT
__ehfuncinfo$?_Getblock@?$_Deque_val@U?$_Deque_simple_types@VEvent@Keyboard@@@std@@@std@@QBEII@Z DD 019930522H
	DD	00H
	DD	00H
	DD	2 DUP(00H)
	DD	2 DUP(00H)
	DD	00H
	DD	05H
xdata$x	ENDS
;	COMDAT xdata$x
xdata$x	SEGMENT
__ehfuncinfo$??0?$_Deque_val@U?$_Deque_simple_types@VEvent@Keyboard@@@std@@@std@@QAE@XZ DD 019930522H
	DD	00H
	DD	00H
	DD	2 DUP(00H)
	DD	2 DUP(00H)
	DD	00H
	DD	05H
xdata$x	ENDS
;	COMDAT xdata$x
xdata$x	SEGMENT
__ehfuncinfo$?_Mysize@?$deque@VEvent@Keyboard@@V?$allocator@VEvent@Keyboard@@@std@@@std@@ABEABIXZ DD 019930522H
	DD	00H
	DD	00H
	DD	2 DUP(00H)
	DD	2 DUP(00H)
	DD	00H
	DD	05H
xdata$x	ENDS
;	COMDAT xdata$x
xdata$x	SEGMENT
__ehfuncinfo$?_Mysize@?$deque@VEvent@Keyboard@@V?$allocator@VEvent@Keyboard@@@std@@@std@@AAEAAIXZ DD 019930522H
	DD	00H
	DD	00H
	DD	2 DUP(00H)
	DD	2 DUP(00H)
	DD	00H
	DD	05H
xdata$x	ENDS
;	COMDAT xdata$x
xdata$x	SEGMENT
__ehfuncinfo$?_Myoff@?$deque@VEvent@Keyboard@@V?$allocator@VEvent@Keyboard@@@std@@@std@@ABEABIXZ DD 019930522H
	DD	00H
	DD	00H
	DD	2 DUP(00H)
	DD	2 DUP(00H)
	DD	00H
	DD	05H
xdata$x	ENDS
;	COMDAT xdata$x
xdata$x	SEGMENT
__ehfuncinfo$?_Myoff@?$deque@VEvent@Keyboard@@V?$allocator@VEvent@Keyboard@@@std@@@std@@AAEAAIXZ DD 019930522H
	DD	00H
	DD	00H
	DD	2 DUP(00H)
	DD	2 DUP(00H)
	DD	00H
	DD	05H
xdata$x	ENDS
;	COMDAT xdata$x
xdata$x	SEGMENT
__ehfuncinfo$?_Mapsize@?$deque@VEvent@Keyboard@@V?$allocator@VEvent@Keyboard@@@std@@@std@@AAEAAIXZ DD 019930522H
	DD	00H
	DD	00H
	DD	2 DUP(00H)
	DD	2 DUP(00H)
	DD	00H
	DD	05H
xdata$x	ENDS
;	COMDAT xdata$x
xdata$x	SEGMENT
__ehfuncinfo$?_Map@?$deque@VEvent@Keyboard@@V?$allocator@VEvent@Keyboard@@@std@@@std@@AAEAAPAPAVEvent@Keyboard@@XZ DD 019930522H
	DD	00H
	DD	00H
	DD	2 DUP(00H)
	DD	2 DUP(00H)
	DD	00H
	DD	05H
xdata$x	ENDS
;	COMDAT xdata$x
xdata$x	SEGMENT
__ehfuncinfo$?_Get_data@?$deque@VEvent@Keyboard@@V?$allocator@VEvent@Keyboard@@@std@@@std@@ABEABV?$_Deque_val@U?$_Deque_simple_types@VEvent@Keyboard@@@std@@@2@XZ DD 019930522H
	DD	00H
	DD	00H
	DD	2 DUP(00H)
	DD	2 DUP(00H)
	DD	00H
	DD	05H
xdata$x	ENDS
;	COMDAT xdata$x
xdata$x	SEGMENT
__ehfuncinfo$?_Get_data@?$deque@VEvent@Keyboard@@V?$allocator@VEvent@Keyboard@@@std@@@std@@AAEAAV?$_Deque_val@U?$_Deque_simple_types@VEvent@Keyboard@@@std@@@2@XZ DD 019930522H
	DD	00H
	DD	00H
	DD	2 DUP(00H)
	DD	2 DUP(00H)
	DD	00H
	DD	05H
xdata$x	ENDS
;	COMDAT xdata$x
xdata$x	SEGMENT
__ehfuncinfo$?_Getal@?$deque@VEvent@Keyboard@@V?$allocator@VEvent@Keyboard@@@std@@@std@@ABEABV?$allocator@VEvent@Keyboard@@@2@XZ DD 019930522H
	DD	00H
	DD	00H
	DD	2 DUP(00H)
	DD	2 DUP(00H)
	DD	00H
	DD	05H
xdata$x	ENDS
;	COMDAT xdata$x
xdata$x	SEGMENT
__ehfuncinfo$?_Getal@?$deque@VEvent@Keyboard@@V?$allocator@VEvent@Keyboard@@@std@@@std@@AAEAAV?$allocator@VEvent@Keyboard@@@2@XZ DD 019930522H
	DD	00H
	DD	00H
	DD	2 DUP(00H)
	DD	2 DUP(00H)
	DD	00H
	DD	05H
xdata$x	ENDS
;	COMDAT xdata$x
xdata$x	SEGMENT
__ehfuncinfo$?_Orphan_all@?$deque@VEvent@Keyboard@@V?$allocator@VEvent@Keyboard@@@std@@@std@@AAEXXZ DD 019930522H
	DD	00H
	DD	00H
	DD	2 DUP(00H)
	DD	2 DUP(00H)
	DD	00H
	DD	05H
xdata$x	ENDS
;	COMDAT xdata$x
xdata$x	SEGMENT
__ehfuncinfo$?_Getblock@?$deque@VEvent@Keyboard@@V?$allocator@VEvent@Keyboard@@@std@@@std@@ABEII@Z DD 019930522H
	DD	00H
	DD	00H
	DD	2 DUP(00H)
	DD	2 DUP(00H)
	DD	00H
	DD	05H
xdata$x	ENDS
;	COMDAT xdata$x
xdata$x	SEGMENT
__ehfuncinfo$?_Orphan_off@?$deque@VEvent@Keyboard@@V?$allocator@VEvent@Keyboard@@@std@@@std@@ABEXI@Z DD 019930522H
	DD	00H
	DD	00H
	DD	2 DUP(00H)
	DD	2 DUP(00H)
	DD	00H
	DD	05H
xdata$x	ENDS
;	COMDAT xdata$x
xdata$x	SEGMENT
__ehfuncinfo$?_Tidy@?$deque@VEvent@Keyboard@@V?$allocator@VEvent@Keyboard@@@std@@@std@@AAEXXZ DD 019930522H
	DD	00H
	DD	00H
	DD	2 DUP(00H)
	DD	2 DUP(00H)
	DD	00H
	DD	05H
xdata$x	ENDS
;	COMDAT xdata$x
xdata$x	SEGMENT
__ehfuncinfo$?pop_back@?$deque@VEvent@Keyboard@@V?$allocator@VEvent@Keyboard@@@std@@@std@@QAEXXZ DD 019930522H
	DD	00H
	DD	00H
	DD	2 DUP(00H)
	DD	2 DUP(00H)
	DD	00H
	DD	05H
xdata$x	ENDS
;	COMDAT xdata$x
xdata$x	SEGMENT
__ehfuncinfo$?pop_front@?$deque@VEvent@Keyboard@@V?$allocator@VEvent@Keyboard@@@std@@@std@@QAEXXZ DD 019930522H
	DD	00H
	DD	00H
	DD	2 DUP(00H)
	DD	2 DUP(00H)
	DD	00H
	DD	05H
xdata$x	ENDS
;	COMDAT xdata$x
xdata$x	SEGMENT
__ehfuncinfo$?front@?$deque@VEvent@Keyboard@@V?$allocator@VEvent@Keyboard@@@std@@@std@@QAEAAVEvent@Keyboard@@XZ DD 019930522H
	DD	00H
	DD	00H
	DD	2 DUP(00H)
	DD	2 DUP(00H)
	DD	00H
	DD	05H
xdata$x	ENDS
;	COMDAT xdata$x
xdata$x	SEGMENT
__ehfuncinfo$?empty@?$deque@VEvent@Keyboard@@V?$allocator@VEvent@Keyboard@@@std@@@std@@QBE_NXZ DD 019930522H
	DD	00H
	DD	00H
	DD	2 DUP(00H)
	DD	2 DUP(00H)
	DD	00H
	DD	05H
xdata$x	ENDS
;	COMDAT xdata$x
xdata$x	SEGMENT
__ehfuncinfo$?max_size@?$deque@VEvent@Keyboard@@V?$allocator@VEvent@Keyboard@@@std@@@std@@QBEIXZ DD 019930522H
	DD	00H
	DD	00H
	DD	2 DUP(00H)
	DD	2 DUP(00H)
	DD	00H
	DD	05H
xdata$x	ENDS
;	COMDAT xdata$x
xdata$x	SEGMENT
__ehfuncinfo$?size@?$deque@VEvent@Keyboard@@V?$allocator@VEvent@Keyboard@@@std@@@std@@QBEIXZ DD 019930522H
	DD	00H
	DD	00H
	DD	2 DUP(00H)
	DD	2 DUP(00H)
	DD	00H
	DD	05H
xdata$x	ENDS
;	COMDAT xdata$x
xdata$x	SEGMENT
__ehfuncinfo$?_Unchecked_begin@?$deque@VEvent@Keyboard@@V?$allocator@VEvent@Keyboard@@@std@@@std@@QAE?AV?$_Deque_unchecked_iterator@V?$_Deque_val@U?$_Deque_simple_types@VEvent@Keyboard@@@std@@@std@@@2@XZ DD 019930522H
	DD	00H
	DD	00H
	DD	2 DUP(00H)
	DD	2 DUP(00H)
	DD	00H
	DD	05H
xdata$x	ENDS
;	COMDAT xdata$x
xdata$x	SEGMENT
__ehfuncinfo$??1?$deque@VEvent@Keyboard@@V?$allocator@VEvent@Keyboard@@@std@@@std@@QAE@XZ DD 019930522H
	DD	00H
	DD	00H
	DD	2 DUP(00H)
	DD	2 DUP(00H)
	DD	00H
	DD	05H
xdata$x	ENDS
;	COMDAT xdata$x
xdata$x	SEGMENT
__ehfuncinfo$?_Take_contents@?$deque@VEvent@Keyboard@@V?$allocator@VEvent@Keyboard@@@std@@@std@@AAEXAAV12@@Z DD 019930522H
	DD	00H
	DD	00H
	DD	2 DUP(00H)
	DD	2 DUP(00H)
	DD	00H
	DD	05H
xdata$x	ENDS
;	COMDAT xdata$x
xdata$x	SEGMENT
__ehfuncinfo$??4?$deque@VEvent@Keyboard@@V?$allocator@VEvent@Keyboard@@@std@@@std@@QAEAAV01@$$QAV01@@Z DD 019930522H
	DD	00H
	DD	00H
	DD	2 DUP(00H)
	DD	2 DUP(00H)
	DD	00H
	DD	05H
xdata$x	ENDS
;	COMDAT xdata$x
xdata$x	SEGMENT
__ehfuncinfo$?_Move_assign@?$deque@VEvent@Keyboard@@V?$allocator@VEvent@Keyboard@@@std@@@std@@AAEXAAV12@U_Equal_allocators@2@@Z DD 019930522H
	DD	00H
	DD	00H
	DD	2 DUP(00H)
	DD	2 DUP(00H)
	DD	00H
	DD	05H
xdata$x	ENDS
;	COMDAT xdata$x
xdata$x	SEGMENT
__ehfuncinfo$?max_size@?$_Default_allocator_traits@V?$allocator@VEvent@Keyboard@@@std@@@std@@SAIABV?$allocator@VEvent@Keyboard@@@2@@Z DD 019930522H
	DD	00H
	DD	00H
	DD	2 DUP(00H)
	DD	2 DUP(00H)
	DD	00H
	DD	05H
xdata$x	ENDS
;	COMDAT xdata$x
xdata$x	SEGMENT
__ehfuncinfo$??0?$allocator@VEvent@Keyboard@@@std@@QAE@XZ DD 019930522H
	DD	00H
	DD	00H
	DD	2 DUP(00H)
	DD	2 DUP(00H)
	DD	00H
	DD	05H
xdata$x	ENDS
;	COMDAT xdata$x
xdata$x	SEGMENT
__ehfuncinfo$?_Set_unchecked@?$bitset@$0BAA@@std@@AAEAAV12@I_N@Z DD 019930522H
	DD	00H
	DD	00H
	DD	2 DUP(00H)
	DD	2 DUP(00H)
	DD	00H
	DD	05H
xdata$x	ENDS
;	COMDAT xdata$x
xdata$x	SEGMENT
__ehfuncinfo$?reset@?$bitset@$0BAA@@std@@QAEAAV12@XZ DD 019930522H
	DD	00H
	DD	00H
	DD	2 DUP(00H)
	DD	2 DUP(00H)
	DD	00H
	DD	05H
xdata$x	ENDS
;	COMDAT xdata$x
xdata$x	SEGMENT
__ehfuncinfo$?ClearState@Keyboard@@AAEXXZ DD 019930522H
	DD	00H
	DD	00H
	DD	2 DUP(00H)
	DD	2 DUP(00H)
	DD	00H
	DD	05H
xdata$x	ENDS
;	COMDAT xdata$x
xdata$x	SEGMENT
__ehfuncinfo$?OnChar@Keyboard@@AAEXD@Z DD 019930522H
	DD	00H
	DD	00H
	DD	2 DUP(00H)
	DD	2 DUP(00H)
	DD	00H
	DD	05H
xdata$x	ENDS
;	COMDAT xdata$x
xdata$x	SEGMENT
__ehfuncinfo$?OnKeyReleased@Keyboard@@AAEXE@Z DD 019930522H
	DD	00H
	DD	00H
	DD	2 DUP(00H)
	DD	2 DUP(00H)
	DD	00H
	DD	05H
xdata$x	ENDS
;	COMDAT xdata$x
xdata$x	SEGMENT
__ehfuncinfo$?OnKeyPressed@Keyboard@@AAEXE@Z DD 019930522H
	DD	00H
	DD	00H
	DD	2 DUP(00H)
	DD	2 DUP(00H)
	DD	00H
	DD	05H
xdata$x	ENDS
;	COMDAT xdata$x
xdata$x	SEGMENT
__ehfuncinfo$?AutorepeatIsEnabled@Keyboard@@QBE_NXZ DD 019930522H
	DD	00H
	DD	00H
	DD	2 DUP(00H)
	DD	2 DUP(00H)
	DD	00H
	DD	05H
xdata$x	ENDS
;	COMDAT xdata$x
xdata$x	SEGMENT
__ehfuncinfo$?DisableAutorepeat@Keyboard@@QAEXXZ DD 019930522H
	DD	00H
	DD	00H
	DD	2 DUP(00H)
	DD	2 DUP(00H)
	DD	00H
	DD	05H
xdata$x	ENDS
;	COMDAT xdata$x
xdata$x	SEGMENT
__ehfuncinfo$?EnableAutorepeat@Keyboard@@QAEXXZ DD 019930522H
	DD	00H
	DD	00H
	DD	2 DUP(00H)
	DD	2 DUP(00H)
	DD	00H
	DD	05H
xdata$x	ENDS
;	COMDAT xdata$x
xdata$x	SEGMENT
__ehfuncinfo$?Clear@Keyboard@@QAEXXZ DD 019930522H
	DD	00H
	DD	00H
	DD	2 DUP(00H)
	DD	2 DUP(00H)
	DD	00H
	DD	05H
xdata$x	ENDS
;	COMDAT xdata$x
xdata$x	SEGMENT
__ehfuncinfo$?ClearChar@Keyboard@@QAEXXZ DD 019930522H
	DD	00H
	DD	00H
	DD	2 DUP(00H)
	DD	2 DUP(00H)
	DD	00H
	DD	05H
xdata$x	ENDS
;	COMDAT xdata$x
xdata$x	SEGMENT
__ehfuncinfo$?CharIsEmpty@Keyboard@@QBE_NXZ DD 019930522H
	DD	00H
	DD	00H
	DD	2 DUP(00H)
	DD	2 DUP(00H)
	DD	00H
	DD	05H
xdata$x	ENDS
;	COMDAT xdata$x
xdata$x	SEGMENT
__ehfuncinfo$?ReadChar@Keyboard@@QAEDXZ DD 019930522H
	DD	00H
	DD	00H
	DD	2 DUP(00H)
	DD	2 DUP(00H)
	DD	00H
	DD	05H
xdata$x	ENDS
;	COMDAT xdata$x
xdata$x	SEGMENT
__ehfuncinfo$?ClearKey@Keyboard@@QAEXXZ DD 019930522H
	DD	00H
	DD	00H
	DD	2 DUP(00H)
	DD	2 DUP(00H)
	DD	00H
	DD	05H
xdata$x	ENDS
;	COMDAT xdata$x
xdata$x	SEGMENT
__ehfuncinfo$?KeyIsEmpty@Keyboard@@QBE_NXZ DD 019930522H
	DD	00H
	DD	00H
	DD	2 DUP(00H)
	DD	2 DUP(00H)
	DD	00H
	DD	05H
xdata$x	ENDS
;	COMDAT xdata$x
xdata$x	SEGMENT
__ehfuncinfo$?ReadKey@Keyboard@@QAE?AVEvent@1@XZ DD 019930522H
	DD	00H
	DD	00H
	DD	2 DUP(00H)
	DD	2 DUP(00H)
	DD	00H
	DD	05H
xdata$x	ENDS
;	COMDAT xdata$x
xdata$x	SEGMENT
__ehfuncinfo$?KeyIsPressed@Keyboard@@QBE_NE@Z DD 019930522H
	DD	00H
	DD	00H
	DD	2 DUP(00H)
	DD	2 DUP(00H)
	DD	00H
	DD	05H
xdata$x	ENDS
;	COMDAT xdata$x
xdata$x	SEGMENT
__ehfuncinfo$??0Event@Keyboard@@QAE@W4Type@01@E@Z DD 019930522H
	DD	00H
	DD	00H
	DD	2 DUP(00H)
	DD	2 DUP(00H)
	DD	00H
	DD	05H
xdata$x	ENDS
;	COMDAT xdata$x
xdata$x	SEGMENT
__ehfuncinfo$?max_size@?$_Default_allocator_traits@V?$allocator@D@std@@@std@@SAIABV?$allocator@D@2@@Z DD 019930522H
	DD	00H
	DD	00H
	DD	2 DUP(00H)
	DD	2 DUP(00H)
	DD	00H
	DD	05H
xdata$x	ENDS
;	COMDAT xdata$x
xdata$x	SEGMENT
__ehfuncinfo$??0?$allocator@D@std@@QAE@XZ DD 019930522H
	DD	00H
	DD	00H
	DD	2 DUP(00H)
	DD	2 DUP(00H)
	DD	00H
	DD	05H
xdata$x	ENDS
;	COMDAT xdata$x
xdata$x	SEGMENT
__ehfuncinfo$??$_Construct_in_place@U_Container_proxy@std@@PAU_Container_base12@2@@std@@YAXAAU_Container_proxy@0@$$QAPAU_Container_base12@0@@Z DD 019930522H
	DD	00H
	DD	00H
	DD	2 DUP(00H)
	DD	2 DUP(00H)
	DD	00H
	DD	05H
xdata$x	ENDS
;	COMDAT xdata$x
xdata$x	SEGMENT
__ehfuncinfo$?_Swap_proxy_and_iterators@_Container_base12@std@@QAEXAAU12@@Z DD 019930522H
	DD	00H
	DD	00H
	DD	2 DUP(00H)
	DD	2 DUP(00H)
	DD	00H
	DD	05H
xdata$x	ENDS
;	COMDAT xdata$x
xdata$x	SEGMENT
__ehfuncinfo$?_Orphan_all@_Container_base12@std@@QAEXXZ DD 019930522H
	DD	00H
	DD	00H
	DD	2 DUP(00H)
	DD	2 DUP(00H)
	DD	00H
	DD	05H
xdata$x	ENDS
;	COMDAT xdata$x
xdata$x	SEGMENT
__ehfuncinfo$??0_Container_base12@std@@QAE@XZ DD 019930522H
	DD	00H
	DD	00H
	DD	2 DUP(00H)
	DD	2 DUP(00H)
	DD	00H
	DD	05H
xdata$x	ENDS
;	COMDAT xdata$x
xdata$x	SEGMENT
__ehfuncinfo$??0_Container_proxy@std@@QAE@PAU_Container_base12@1@@Z DD 019930522H
	DD	00H
	DD	00H
	DD	2 DUP(00H)
	DD	2 DUP(00H)
	DD	00H
	DD	05H
xdata$x	ENDS
;	COMDAT xdata$x
xdata$x	SEGMENT
__ehfuncinfo$??0bad_array_new_length@std@@QAE@XZ DD 019930522H
	DD	00H
	DD	00H
	DD	2 DUP(00H)
	DD	2 DUP(00H)
	DD	00H
	DD	05H
xdata$x	ENDS
;	COMDAT xdata$x
xdata$x	SEGMENT
__ehfuncinfo$??0bad_alloc@std@@AAE@QBD@Z DD 019930522H
	DD	00H
	DD	00H
	DD	2 DUP(00H)
	DD	2 DUP(00H)
	DD	00H
	DD	05H
xdata$x	ENDS
;	COMDAT xdata$x
xdata$x	SEGMENT
__ehfuncinfo$??1exception@std@@UAE@XZ DD 019930522H
	DD	00H
	DD	00H
	DD	2 DUP(00H)
	DD	2 DUP(00H)
	DD	00H
	DD	05H
xdata$x	ENDS
;	COMDAT xdata$x
xdata$x	SEGMENT
__ehfuncinfo$??0exception@std@@QAE@ABV01@@Z DD 019930522H
	DD	00H
	DD	00H
	DD	2 DUP(00H)
	DD	2 DUP(00H)
	DD	00H
	DD	05H
xdata$x	ENDS
;	COMDAT xdata$x
xdata$x	SEGMENT
__ehfuncinfo$??0exception@std@@QAE@QBDH@Z DD 019930522H
	DD	00H
	DD	00H
	DD	2 DUP(00H)
	DD	2 DUP(00H)
	DD	00H
	DD	05H
xdata$x	ENDS
;	COMDAT xdata$x
xdata$x	SEGMENT
__ehfuncinfo$?max@?$numeric_limits@H@std@@SAHXZ DD 019930522H
	DD	00H
	DD	00H
	DD	2 DUP(00H)
	DD	2 DUP(00H)
	DD	00H
	DD	05H
xdata$x	ENDS
;	COMDAT xdata$x
xdata$x	SEGMENT
__ehfuncinfo$??2@YAPAXIPAX@Z DD 019930522H
	DD	00H
	DD	00H
	DD	2 DUP(00H)
	DD	2 DUP(00H)
	DD	00H
	DD	05H
xdata$x	ENDS
; Function compile flags: /Odt
;	COMDAT __JustMyCode_Default
_TEXT	SEGMENT
__JustMyCode_Default PROC				; COMDAT
	push	ebp
	mov	ebp, esp
	pop	ebp
	ret	0
__JustMyCode_Default ENDP
_TEXT	ENDS
; Function compile flags: /Odtp /RTCsu /ZI
;	COMDAT ??$_Verify_range@PAVEvent@Keyboard@@@std@@YAXQBQAVEvent@Keyboard@@0@Z
_TEXT	SEGMENT
__$EHRec$ = -12						; size = 12
__First$ = 8						; size = 4
__Last$ = 12						; size = 4
??$_Verify_range@PAVEvent@Keyboard@@@std@@YAXQBQAVEvent@Keyboard@@0@Z PROC ; std::_Verify_range<Keyboard::Event *>, COMDAT
; File C:\Program Files (x86)\Microsoft Visual Studio\2019\Community\VC\Tools\MSVC\14.27.29110\include\xutility
; Line 1169
	push	ebp
	mov	ebp, esp
	push	-1
	push	__ehhandler$??$_Verify_range@PAVEvent@Keyboard@@@std@@YAXQBQAVEvent@Keyboard@@0@Z
	mov	eax, DWORD PTR fs:0
	push	eax
	sub	esp, 192				; 000000c0H
	push	ebx
	push	esi
	push	edi
	lea	edi, DWORD PTR [ebp-204]
	mov	ecx, 48					; 00000030H
	mov	eax, -858993460				; ccccccccH
	rep stosd
	mov	eax, DWORD PTR ___security_cookie
	xor	eax, ebp
	push	eax
	lea	eax, DWORD PTR __$EHRec$[ebp]
	mov	DWORD PTR fs:0, eax
	mov	ecx, OFFSET __4324C6B3_xutility
	call	@__CheckForDebuggerJustMyCode@4
$LN4@Verify_ran:
; Line 1171
	mov	eax, DWORD PTR __First$[ebp]
	cmp	eax, DWORD PTR __Last$[ebp]
	ja	SHORT $LN7@Verify_ran
	jmp	SHORT $LN2@Verify_ran
$LN7@Verify_ran:
	mov	esi, esp
	push	OFFSET ??_C@_0BJ@HAJGEHKO@transposed?5pointer?5range@
	push	OFFSET ??_C@_02DKCKIIND@?$CFs@
	push	0
	push	1171					; 00000493H
	push	OFFSET ??_C@_0GJ@NENAPENJ@C?3?2Program?5Files?5?$CIx86?$CJ?2Microsof@
	push	2
	call	DWORD PTR __imp___CrtDbgReport
	add	esp, 24					; 00000018H
	cmp	esi, esp
	call	__RTC_CheckEsp
	cmp	eax, 1
	jne	SHORT $LN11@Verify_ran
	int	3
$LN11@Verify_ran:
	mov	esi, esp
	push	0
	push	1171					; 00000493H
	push	OFFSET ??_C@_1NC@MGIEKFBC@?$AAC?$AA?3?$AA?2?$AAP?$AAr?$AAo?$AAg?$AAr?$AAa?$AAm?$AA?5?$AAF?$AAi?$AAl?$AAe@
	push	OFFSET ??_C@_1CG@LJCPDKEJ@?$AAs?$AAt?$AAd?$AA?3?$AA?3?$AA_?$AAV?$AAe?$AAr?$AAi?$AAf?$AAy?$AA_?$AAr?$AAa@
	push	OFFSET ??_C@_1DG@FJIKMGFD@?$AA?$CC?$AAt?$AAr?$AAa?$AAn?$AAs?$AAp?$AAo?$AAs?$AAe?$AAd?$AA?5?$AAp?$AAo?$AAi@
	call	DWORD PTR __imp___invalid_parameter
	add	esp, 20					; 00000014H
	cmp	esi, esp
	call	__RTC_CheckEsp
	xor	eax, eax
	jne	SHORT $LN7@Verify_ran
$LN2@Verify_ran:
	xor	eax, eax
	jne	SHORT $LN4@Verify_ran
; Line 1172
	mov	ecx, DWORD PTR __$EHRec$[ebp]
	mov	DWORD PTR fs:0, ecx
	pop	ecx
	pop	edi
	pop	esi
	pop	ebx
	add	esp, 204				; 000000ccH
	cmp	ebp, esp
	call	__RTC_CheckEsp
	mov	esp, ebp
	pop	ebp
	ret	0
	int	3
	int	3
	int	3
	int	3
	int	3
_TEXT	ENDS
;	COMDAT text$x
text$x	SEGMENT
__ehhandler$??$_Verify_range@PAVEvent@Keyboard@@@std@@YAXQBQAVEvent@Keyboard@@0@Z:
	npad	1
	npad	1
	mov	edx, DWORD PTR [esp+8]
	lea	eax, DWORD PTR [edx+12]
	mov	ecx, DWORD PTR [edx-208]
	xor	ecx, eax
	call	@__security_check_cookie@4
	mov	eax, OFFSET __ehfuncinfo$??$_Verify_range@PAVEvent@Keyboard@@@std@@YAXQBQAVEvent@Keyboard@@0@Z
	jmp	___CxxFrameHandler3
text$x	ENDS
??$_Verify_range@PAVEvent@Keyboard@@@std@@YAXQBQAVEvent@Keyboard@@0@Z ENDP ; std::_Verify_range<Keyboard::Event *>
; Function compile flags: /Odtp /RTCsu /ZI
;	COMDAT ??$_Verify_range@PAD@std@@YAXQBQAD0@Z
_TEXT	SEGMENT
__$EHRec$ = -12						; size = 12
__First$ = 8						; size = 4
__Last$ = 12						; size = 4
??$_Verify_range@PAD@std@@YAXQBQAD0@Z PROC		; std::_Verify_range<char *>, COMDAT
; File C:\Program Files (x86)\Microsoft Visual Studio\2019\Community\VC\Tools\MSVC\14.27.29110\include\xutility
; Line 1169
	push	ebp
	mov	ebp, esp
	push	-1
	push	__ehhandler$??$_Verify_range@PAD@std@@YAXQBQAD0@Z
	mov	eax, DWORD PTR fs:0
	push	eax
	sub	esp, 192				; 000000c0H
	push	ebx
	push	esi
	push	edi
	lea	edi, DWORD PTR [ebp-204]
	mov	ecx, 48					; 00000030H
	mov	eax, -858993460				; ccccccccH
	rep stosd
	mov	eax, DWORD PTR ___security_cookie
	xor	eax, ebp
	push	eax
	lea	eax, DWORD PTR __$EHRec$[ebp]
	mov	DWORD PTR fs:0, eax
	mov	ecx, OFFSET __4324C6B3_xutility
	call	@__CheckForDebuggerJustMyCode@4
$LN4@Verify_ran:
; Line 1171
	mov	eax, DWORD PTR __First$[ebp]
	cmp	eax, DWORD PTR __Last$[ebp]
	ja	SHORT $LN7@Verify_ran
	jmp	SHORT $LN2@Verify_ran
$LN7@Verify_ran:
	mov	esi, esp
	push	OFFSET ??_C@_0BJ@HAJGEHKO@transposed?5pointer?5range@
	push	OFFSET ??_C@_02DKCKIIND@?$CFs@
	push	0
	push	1171					; 00000493H
	push	OFFSET ??_C@_0GJ@NENAPENJ@C?3?2Program?5Files?5?$CIx86?$CJ?2Microsof@
	push	2
	call	DWORD PTR __imp___CrtDbgReport
	add	esp, 24					; 00000018H
	cmp	esi, esp
	call	__RTC_CheckEsp
	cmp	eax, 1
	jne	SHORT $LN11@Verify_ran
	int	3
$LN11@Verify_ran:
	mov	esi, esp
	push	0
	push	1171					; 00000493H
	push	OFFSET ??_C@_1NC@MGIEKFBC@?$AAC?$AA?3?$AA?2?$AAP?$AAr?$AAo?$AAg?$AAr?$AAa?$AAm?$AA?5?$AAF?$AAi?$AAl?$AAe@
	push	OFFSET ??_C@_1CG@LJCPDKEJ@?$AAs?$AAt?$AAd?$AA?3?$AA?3?$AA_?$AAV?$AAe?$AAr?$AAi?$AAf?$AAy?$AA_?$AAr?$AAa@
	push	OFFSET ??_C@_1DG@FJIKMGFD@?$AA?$CC?$AAt?$AAr?$AAa?$AAn?$AAs?$AAp?$AAo?$AAs?$AAe?$AAd?$AA?5?$AAp?$AAo?$AAi@
	call	DWORD PTR __imp___invalid_parameter
	add	esp, 20					; 00000014H
	cmp	esi, esp
	call	__RTC_CheckEsp
	xor	eax, eax
	jne	SHORT $LN7@Verify_ran
$LN2@Verify_ran:
	xor	eax, eax
	jne	SHORT $LN4@Verify_ran
; Line 1172
	mov	ecx, DWORD PTR __$EHRec$[ebp]
	mov	DWORD PTR fs:0, ecx
	pop	ecx
	pop	edi
	pop	esi
	pop	ebx
	add	esp, 204				; 000000ccH
	cmp	ebp, esp
	call	__RTC_CheckEsp
	mov	esp, ebp
	pop	ebp
	ret	0
	int	3
	int	3
	int	3
	int	3
	int	3
_TEXT	ENDS
;	COMDAT text$x
text$x	SEGMENT
__ehhandler$??$_Verify_range@PAD@std@@YAXQBQAD0@Z:
	npad	1
	npad	1
	mov	edx, DWORD PTR [esp+8]
	lea	eax, DWORD PTR [edx+12]
	mov	ecx, DWORD PTR [edx-208]
	xor	ecx, eax
	call	@__security_check_cookie@4
	mov	eax, OFFSET __ehfuncinfo$??$_Verify_range@PAD@std@@YAXQBQAD0@Z
	jmp	___CxxFrameHandler3
text$x	ENDS
??$_Verify_range@PAD@std@@YAXQBQAD0@Z ENDP		; std::_Verify_range<char *>
; Function compile flags: /Odtp /RTCsu /ZI
;	COMDAT ??$_Zero_range@PAPAVEvent@Keyboard@@@std@@YAPAPAVEvent@Keyboard@@QAPAV12@0@Z
_TEXT	SEGMENT
__Last_ch$ = -20					; size = 4
__First_ch$ = -8					; size = 4
__First$ = 8						; size = 4
__Last$ = 12						; size = 4
??$_Zero_range@PAPAVEvent@Keyboard@@@std@@YAPAPAVEvent@Keyboard@@QAPAV12@0@Z PROC ; std::_Zero_range<Keyboard::Event * *>, COMDAT
; File C:\Program Files (x86)\Microsoft Visual Studio\2019\Community\VC\Tools\MSVC\14.27.29110\include\xmemory
; Line 1814
	push	ebp
	mov	ebp, esp
	sub	esp, 216				; 000000d8H
	push	ebx
	push	esi
	push	edi
	lea	edi, DWORD PTR [ebp-216]
	mov	ecx, 54					; 00000036H
	mov	eax, -858993460				; ccccccccH
	rep stosd
	mov	ecx, OFFSET __A58979FC_xmemory
	call	@__CheckForDebuggerJustMyCode@4
; Line 1815
	mov	eax, DWORD PTR __First$[ebp]
	mov	DWORD PTR __First_ch$[ebp], eax
; Line 1816
	mov	eax, DWORD PTR __Last$[ebp]
	mov	DWORD PTR __Last_ch$[ebp], eax
; Line 1817
	mov	eax, DWORD PTR __Last_ch$[ebp]
	sub	eax, DWORD PTR __First_ch$[ebp]
	push	eax
	push	0
	mov	ecx, DWORD PTR __First_ch$[ebp]
	push	ecx
	call	_memset
	add	esp, 12					; 0000000cH
; Line 1818
	mov	eax, DWORD PTR __Last$[ebp]
; Line 1819
	pop	edi
	pop	esi
	pop	ebx
	add	esp, 216				; 000000d8H
	cmp	ebp, esp
	call	__RTC_CheckEsp
	mov	esp, ebp
	pop	ebp
	ret	0
??$_Zero_range@PAPAVEvent@Keyboard@@@std@@YAPAPAVEvent@Keyboard@@QAPAV12@0@Z ENDP ; std::_Zero_range<Keyboard::Event * *>
_TEXT	ENDS
; Function compile flags: /Odtp /RTCsu /ZI
;	COMDAT ??$_Seek_wrapped@PAPAVEvent@Keyboard@@AAPAPAV12@@std@@YAXAAPAPAVEvent@Keyboard@@0@Z
_TEXT	SEGMENT
__It$ = 8						; size = 4
__UIt$ = 12						; size = 4
??$_Seek_wrapped@PAPAVEvent@Keyboard@@AAPAPAV12@@std@@YAXAAPAPAVEvent@Keyboard@@0@Z PROC ; std::_Seek_wrapped<Keyboard::Event * *,Keyboard::Event * * &>, COMDAT
; File C:\Program Files (x86)\Microsoft Visual Studio\2019\Community\VC\Tools\MSVC\14.27.29110\include\xutility
; Line 1417
	push	ebp
	mov	ebp, esp
	sub	esp, 192				; 000000c0H
	push	ebx
	push	esi
	push	edi
	lea	edi, DWORD PTR [ebp-192]
	mov	ecx, 48					; 00000030H
	mov	eax, -858993460				; ccccccccH
	rep stosd
	mov	ecx, OFFSET __4324C6B3_xutility
	call	@__CheckForDebuggerJustMyCode@4
; Line 1421
	mov	eax, DWORD PTR __It$[ebp]
	mov	ecx, DWORD PTR __UIt$[ebp]
	mov	edx, DWORD PTR [ecx]
	mov	DWORD PTR [eax], edx
; Line 1423
	pop	edi
	pop	esi
	pop	ebx
	add	esp, 192				; 000000c0H
	cmp	ebp, esp
	call	__RTC_CheckEsp
	mov	esp, ebp
	pop	ebp
	ret	0
??$_Seek_wrapped@PAPAVEvent@Keyboard@@AAPAPAV12@@std@@YAXAAPAPAVEvent@Keyboard@@0@Z ENDP ; std::_Seek_wrapped<Keyboard::Event * *,Keyboard::Event * * &>
_TEXT	ENDS
; Function compile flags: /Odtp /RTCsu /ZI
;	COMDAT ??$_Copy_memmove@PAPAVEvent@Keyboard@@PAPAV12@@std@@YAPAPAVEvent@Keyboard@@PAPAV12@00@Z
_TEXT	SEGMENT
__Count$ = -44						; size = 4
__Dest_ch$ = -32					; size = 4
__Last_ch$ = -20					; size = 4
__First_ch$ = -8					; size = 4
__First$ = 8						; size = 4
__Last$ = 12						; size = 4
__Dest$ = 16						; size = 4
??$_Copy_memmove@PAPAVEvent@Keyboard@@PAPAV12@@std@@YAPAPAVEvent@Keyboard@@PAPAV12@00@Z PROC ; std::_Copy_memmove<Keyboard::Event * *,Keyboard::Event * *>, COMDAT
; File C:\Program Files (x86)\Microsoft Visual Studio\2019\Community\VC\Tools\MSVC\14.27.29110\include\xutility
; Line 4113
	push	ebp
	mov	ebp, esp
	sub	esp, 240				; 000000f0H
	push	ebx
	push	esi
	push	edi
	lea	edi, DWORD PTR [ebp-240]
	mov	ecx, 60					; 0000003cH
	mov	eax, -858993460				; ccccccccH
	rep stosd
	mov	ecx, OFFSET __4324C6B3_xutility
	call	@__CheckForDebuggerJustMyCode@4
; Line 4114
	mov	eax, DWORD PTR __First$[ebp]
	mov	DWORD PTR __First_ch$[ebp], eax
; Line 4115
	mov	eax, DWORD PTR __Last$[ebp]
	mov	DWORD PTR __Last_ch$[ebp], eax
; Line 4116
	mov	eax, DWORD PTR __Dest$[ebp]
	mov	DWORD PTR __Dest_ch$[ebp], eax
; Line 4117
	mov	eax, DWORD PTR __Last_ch$[ebp]
	sub	eax, DWORD PTR __First_ch$[ebp]
	mov	DWORD PTR __Count$[ebp], eax
; Line 4118
	mov	eax, DWORD PTR __Count$[ebp]
	push	eax
	mov	ecx, DWORD PTR __First_ch$[ebp]
	push	ecx
	mov	edx, DWORD PTR __Dest_ch$[ebp]
	push	edx
	call	_memmove
	add	esp, 12					; 0000000cH
; Line 4119
	mov	eax, DWORD PTR __Dest_ch$[ebp]
	add	eax, DWORD PTR __Count$[ebp]
; Line 4120
	pop	edi
	pop	esi
	pop	ebx
	add	esp, 240				; 000000f0H
	cmp	ebp, esp
	call	__RTC_CheckEsp
	mov	esp, ebp
	pop	ebp
	ret	0
??$_Copy_memmove@PAPAVEvent@Keyboard@@PAPAV12@@std@@YAPAPAVEvent@Keyboard@@PAPAV12@00@Z ENDP ; std::_Copy_memmove<Keyboard::Event * *,Keyboard::Event * *>
_TEXT	ENDS
; Function compile flags: /Odtp /RTCsu /ZI
;	COMDAT ??$_Get_unwrapped_n@AAPAPAVEvent@Keyboard@@H@std@@YA@AAPAPAVEvent@Keyboard@@H@Z
_TEXT	SEGMENT
__It$ = 8						; size = 4
__Off$ = 12						; size = 4
??$_Get_unwrapped_n@AAPAPAVEvent@Keyboard@@H@std@@YA@AAPAPAVEvent@Keyboard@@H@Z PROC ; std::_Get_unwrapped_n<Keyboard::Event * * &,int>, COMDAT
; File C:\Program Files (x86)\Microsoft Visual Studio\2019\Community\VC\Tools\MSVC\14.27.29110\include\xutility
; Line 1335
	push	ebp
	mov	ebp, esp
	sub	esp, 192				; 000000c0H
	push	ebx
	push	esi
	push	edi
	lea	edi, DWORD PTR [ebp-192]
	mov	ecx, 48					; 00000030H
	mov	eax, -858993460				; ccccccccH
	rep stosd
	mov	ecx, OFFSET __4324C6B3_xutility
	call	@__CheckForDebuggerJustMyCode@4
; Line 1337
	mov	eax, DWORD PTR __It$[ebp]
	mov	eax, DWORD PTR [eax]
; Line 1358
	pop	edi
	pop	esi
	pop	ebx
	add	esp, 192				; 000000c0H
	cmp	ebp, esp
	call	__RTC_CheckEsp
	mov	esp, ebp
	pop	ebp
	ret	0
??$_Get_unwrapped_n@AAPAPAVEvent@Keyboard@@H@std@@YA@AAPAPAVEvent@Keyboard@@H@Z ENDP ; std::_Get_unwrapped_n<Keyboard::Event * * &,int>
_TEXT	ENDS
; Function compile flags: /Odtp /RTCsu /ZI
;	COMDAT ??$_Idl_distance@PAPAVEvent@Keyboard@@PAPAV12@@std@@YA@ABQAPAVEvent@Keyboard@@0@Z
_TEXT	SEGMENT
__First$ = 8						; size = 4
__Last$ = 12						; size = 4
??$_Idl_distance@PAPAVEvent@Keyboard@@PAPAV12@@std@@YA@ABQAPAVEvent@Keyboard@@0@Z PROC ; std::_Idl_distance<Keyboard::Event * *,Keyboard::Event * *>, COMDAT
; File C:\Program Files (x86)\Microsoft Visual Studio\2019\Community\VC\Tools\MSVC\14.27.29110\include\xutility
; Line 1483
	push	ebp
	mov	ebp, esp
	sub	esp, 192				; 000000c0H
	push	ebx
	push	esi
	push	edi
	lea	edi, DWORD PTR [ebp-192]
	mov	ecx, 48					; 00000030H
	mov	eax, -858993460				; ccccccccH
	rep stosd
	mov	ecx, OFFSET __4324C6B3_xutility
	call	@__CheckForDebuggerJustMyCode@4
; Line 1486
	mov	eax, DWORD PTR __Last$[ebp]
	mov	ecx, DWORD PTR __First$[ebp]
	mov	eax, DWORD PTR [eax]
	sub	eax, DWORD PTR [ecx]
	sar	eax, 2
; Line 1490
	pop	edi
	pop	esi
	pop	ebx
	add	esp, 192				; 000000c0H
	cmp	ebp, esp
	call	__RTC_CheckEsp
	mov	esp, ebp
	pop	ebp
	ret	0
??$_Idl_distance@PAPAVEvent@Keyboard@@PAPAV12@@std@@YA@ABQAPAVEvent@Keyboard@@0@Z ENDP ; std::_Idl_distance<Keyboard::Event * *,Keyboard::Event * *>
_TEXT	ENDS
; Function compile flags: /Odtp /RTCsu /ZI
;	COMDAT ??$_Get_unwrapped@ABQAPAVEvent@Keyboard@@@std@@YA@ABQAPAVEvent@Keyboard@@@Z
_TEXT	SEGMENT
__It$ = 8						; size = 4
??$_Get_unwrapped@ABQAPAVEvent@Keyboard@@@std@@YA@ABQAPAVEvent@Keyboard@@@Z PROC ; std::_Get_unwrapped<Keyboard::Event * * const &>, COMDAT
; File C:\Program Files (x86)\Microsoft Visual Studio\2019\Community\VC\Tools\MSVC\14.27.29110\include\xutility
; Line 1229
	push	ebp
	mov	ebp, esp
	sub	esp, 192				; 000000c0H
	push	ebx
	push	esi
	push	edi
	lea	edi, DWORD PTR [ebp-192]
	mov	ecx, 48					; 00000030H
	mov	eax, -858993460				; ccccccccH
	rep stosd
	mov	ecx, OFFSET __4324C6B3_xutility
	call	@__CheckForDebuggerJustMyCode@4
; Line 1232
	mov	eax, DWORD PTR __It$[ebp]
	mov	eax, DWORD PTR [eax]
; Line 1238
	pop	edi
	pop	esi
	pop	ebx
	add	esp, 192				; 000000c0H
	cmp	ebp, esp
	call	__RTC_CheckEsp
	mov	esp, ebp
	pop	ebp
	ret	0
??$_Get_unwrapped@ABQAPAVEvent@Keyboard@@@std@@YA@ABQAPAVEvent@Keyboard@@@Z ENDP ; std::_Get_unwrapped<Keyboard::Event * * const &>
_TEXT	ENDS
; Function compile flags: /Odtp /RTCsu /ZI
;	COMDAT ??$_Adl_verify_range@PAPAVEvent@Keyboard@@PAPAV12@@std@@YAXABQAPAVEvent@Keyboard@@0@Z
_TEXT	SEGMENT
__First$ = 8						; size = 4
__Last$ = 12						; size = 4
??$_Adl_verify_range@PAPAVEvent@Keyboard@@PAPAV12@@std@@YAXABQAPAVEvent@Keyboard@@0@Z PROC ; std::_Adl_verify_range<Keyboard::Event * *,Keyboard::Event * *>, COMDAT
; File C:\Program Files (x86)\Microsoft Visual Studio\2019\Community\VC\Tools\MSVC\14.27.29110\include\xutility
; Line 1192
	push	ebp
	mov	ebp, esp
	sub	esp, 192				; 000000c0H
	push	ebx
	push	esi
	push	edi
	lea	edi, DWORD PTR [ebp-192]
	mov	ecx, 48					; 00000030H
	mov	eax, -858993460				; ccccccccH
	rep stosd
	mov	ecx, OFFSET __4324C6B3_xutility
	call	@__CheckForDebuggerJustMyCode@4
; Line 1195
	mov	eax, DWORD PTR __Last$[ebp]
	mov	ecx, DWORD PTR [eax]
	push	ecx
	mov	edx, DWORD PTR __First$[ebp]
	mov	eax, DWORD PTR [edx]
	push	eax
	call	??$_Verify_range@PAVEvent@Keyboard@@@std@@YAXQBQAVEvent@Keyboard@@0@Z ; std::_Verify_range<Keyboard::Event *>
	add	esp, 8
; Line 1197
	pop	edi
	pop	esi
	pop	ebx
	add	esp, 192				; 000000c0H
	cmp	ebp, esp
	call	__RTC_CheckEsp
	mov	esp, ebp
	pop	ebp
	ret	0
??$_Adl_verify_range@PAPAVEvent@Keyboard@@PAPAV12@@std@@YAXABQAPAVEvent@Keyboard@@0@Z ENDP ; std::_Adl_verify_range<Keyboard::Event * *,Keyboard::Event * *>
_TEXT	ENDS
; Function compile flags: /Odtp /RTCsu /ZI
;	COMDAT ??$_Zero_range@PAPAD@std@@YAPAPADQAPAD0@Z
_TEXT	SEGMENT
__Last_ch$ = -20					; size = 4
__First_ch$ = -8					; size = 4
__First$ = 8						; size = 4
__Last$ = 12						; size = 4
??$_Zero_range@PAPAD@std@@YAPAPADQAPAD0@Z PROC		; std::_Zero_range<char * *>, COMDAT
; File C:\Program Files (x86)\Microsoft Visual Studio\2019\Community\VC\Tools\MSVC\14.27.29110\include\xmemory
; Line 1814
	push	ebp
	mov	ebp, esp
	sub	esp, 216				; 000000d8H
	push	ebx
	push	esi
	push	edi
	lea	edi, DWORD PTR [ebp-216]
	mov	ecx, 54					; 00000036H
	mov	eax, -858993460				; ccccccccH
	rep stosd
	mov	ecx, OFFSET __A58979FC_xmemory
	call	@__CheckForDebuggerJustMyCode@4
; Line 1815
	mov	eax, DWORD PTR __First$[ebp]
	mov	DWORD PTR __First_ch$[ebp], eax
; Line 1816
	mov	eax, DWORD PTR __Last$[ebp]
	mov	DWORD PTR __Last_ch$[ebp], eax
; Line 1817
	mov	eax, DWORD PTR __Last_ch$[ebp]
	sub	eax, DWORD PTR __First_ch$[ebp]
	push	eax
	push	0
	mov	ecx, DWORD PTR __First_ch$[ebp]
	push	ecx
	call	_memset
	add	esp, 12					; 0000000cH
; Line 1818
	mov	eax, DWORD PTR __Last$[ebp]
; Line 1819
	pop	edi
	pop	esi
	pop	ebx
	add	esp, 216				; 000000d8H
	cmp	ebp, esp
	call	__RTC_CheckEsp
	mov	esp, ebp
	pop	ebp
	ret	0
??$_Zero_range@PAPAD@std@@YAPAPADQAPAD0@Z ENDP		; std::_Zero_range<char * *>
_TEXT	ENDS
; Function compile flags: /Odtp /RTCsu /ZI
;	COMDAT ??$_Seek_wrapped@PAPADAAPAPAD@std@@YAXAAPAPAD0@Z
_TEXT	SEGMENT
__It$ = 8						; size = 4
__UIt$ = 12						; size = 4
??$_Seek_wrapped@PAPADAAPAPAD@std@@YAXAAPAPAD0@Z PROC	; std::_Seek_wrapped<char * *,char * * &>, COMDAT
; File C:\Program Files (x86)\Microsoft Visual Studio\2019\Community\VC\Tools\MSVC\14.27.29110\include\xutility
; Line 1417
	push	ebp
	mov	ebp, esp
	sub	esp, 192				; 000000c0H
	push	ebx
	push	esi
	push	edi
	lea	edi, DWORD PTR [ebp-192]
	mov	ecx, 48					; 00000030H
	mov	eax, -858993460				; ccccccccH
	rep stosd
	mov	ecx, OFFSET __4324C6B3_xutility
	call	@__CheckForDebuggerJustMyCode@4
; Line 1421
	mov	eax, DWORD PTR __It$[ebp]
	mov	ecx, DWORD PTR __UIt$[ebp]
	mov	edx, DWORD PTR [ecx]
	mov	DWORD PTR [eax], edx
; Line 1423
	pop	edi
	pop	esi
	pop	ebx
	add	esp, 192				; 000000c0H
	cmp	ebp, esp
	call	__RTC_CheckEsp
	mov	esp, ebp
	pop	ebp
	ret	0
??$_Seek_wrapped@PAPADAAPAPAD@std@@YAXAAPAPAD0@Z ENDP	; std::_Seek_wrapped<char * *,char * * &>
_TEXT	ENDS
; Function compile flags: /Odtp /RTCsu /ZI
;	COMDAT ??$_Copy_memmove@PAPADPAPAD@std@@YAPAPADPAPAD00@Z
_TEXT	SEGMENT
__Count$ = -44						; size = 4
__Dest_ch$ = -32					; size = 4
__Last_ch$ = -20					; size = 4
__First_ch$ = -8					; size = 4
__First$ = 8						; size = 4
__Last$ = 12						; size = 4
__Dest$ = 16						; size = 4
??$_Copy_memmove@PAPADPAPAD@std@@YAPAPADPAPAD00@Z PROC	; std::_Copy_memmove<char * *,char * *>, COMDAT
; File C:\Program Files (x86)\Microsoft Visual Studio\2019\Community\VC\Tools\MSVC\14.27.29110\include\xutility
; Line 4113
	push	ebp
	mov	ebp, esp
	sub	esp, 240				; 000000f0H
	push	ebx
	push	esi
	push	edi
	lea	edi, DWORD PTR [ebp-240]
	mov	ecx, 60					; 0000003cH
	mov	eax, -858993460				; ccccccccH
	rep stosd
	mov	ecx, OFFSET __4324C6B3_xutility
	call	@__CheckForDebuggerJustMyCode@4
; Line 4114
	mov	eax, DWORD PTR __First$[ebp]
	mov	DWORD PTR __First_ch$[ebp], eax
; Line 4115
	mov	eax, DWORD PTR __Last$[ebp]
	mov	DWORD PTR __Last_ch$[ebp], eax
; Line 4116
	mov	eax, DWORD PTR __Dest$[ebp]
	mov	DWORD PTR __Dest_ch$[ebp], eax
; Line 4117
	mov	eax, DWORD PTR __Last_ch$[ebp]
	sub	eax, DWORD PTR __First_ch$[ebp]
	mov	DWORD PTR __Count$[ebp], eax
; Line 4118
	mov	eax, DWORD PTR __Count$[ebp]
	push	eax
	mov	ecx, DWORD PTR __First_ch$[ebp]
	push	ecx
	mov	edx, DWORD PTR __Dest_ch$[ebp]
	push	edx
	call	_memmove
	add	esp, 12					; 0000000cH
; Line 4119
	mov	eax, DWORD PTR __Dest_ch$[ebp]
	add	eax, DWORD PTR __Count$[ebp]
; Line 4120
	pop	edi
	pop	esi
	pop	ebx
	add	esp, 240				; 000000f0H
	cmp	ebp, esp
	call	__RTC_CheckEsp
	mov	esp, ebp
	pop	ebp
	ret	0
??$_Copy_memmove@PAPADPAPAD@std@@YAPAPADPAPAD00@Z ENDP	; std::_Copy_memmove<char * *,char * *>
_TEXT	ENDS
; Function compile flags: /Odtp /RTCsu /ZI
;	COMDAT ??$_Get_unwrapped_n@AAPAPADH@std@@YA@AAPAPADH@Z
_TEXT	SEGMENT
__It$ = 8						; size = 4
__Off$ = 12						; size = 4
??$_Get_unwrapped_n@AAPAPADH@std@@YA@AAPAPADH@Z PROC	; std::_Get_unwrapped_n<char * * &,int>, COMDAT
; File C:\Program Files (x86)\Microsoft Visual Studio\2019\Community\VC\Tools\MSVC\14.27.29110\include\xutility
; Line 1335
	push	ebp
	mov	ebp, esp
	sub	esp, 192				; 000000c0H
	push	ebx
	push	esi
	push	edi
	lea	edi, DWORD PTR [ebp-192]
	mov	ecx, 48					; 00000030H
	mov	eax, -858993460				; ccccccccH
	rep stosd
	mov	ecx, OFFSET __4324C6B3_xutility
	call	@__CheckForDebuggerJustMyCode@4
; Line 1337
	mov	eax, DWORD PTR __It$[ebp]
	mov	eax, DWORD PTR [eax]
; Line 1358
	pop	edi
	pop	esi
	pop	ebx
	add	esp, 192				; 000000c0H
	cmp	ebp, esp
	call	__RTC_CheckEsp
	mov	esp, ebp
	pop	ebp
	ret	0
??$_Get_unwrapped_n@AAPAPADH@std@@YA@AAPAPADH@Z ENDP	; std::_Get_unwrapped_n<char * * &,int>
_TEXT	ENDS
; Function compile flags: /Odtp /RTCsu /ZI
;	COMDAT ??$_Idl_distance@PAPADPAPAD@std@@YA@ABQAPAD0@Z
_TEXT	SEGMENT
__First$ = 8						; size = 4
__Last$ = 12						; size = 4
??$_Idl_distance@PAPADPAPAD@std@@YA@ABQAPAD0@Z PROC	; std::_Idl_distance<char * *,char * *>, COMDAT
; File C:\Program Files (x86)\Microsoft Visual Studio\2019\Community\VC\Tools\MSVC\14.27.29110\include\xutility
; Line 1483
	push	ebp
	mov	ebp, esp
	sub	esp, 192				; 000000c0H
	push	ebx
	push	esi
	push	edi
	lea	edi, DWORD PTR [ebp-192]
	mov	ecx, 48					; 00000030H
	mov	eax, -858993460				; ccccccccH
	rep stosd
	mov	ecx, OFFSET __4324C6B3_xutility
	call	@__CheckForDebuggerJustMyCode@4
; Line 1486
	mov	eax, DWORD PTR __Last$[ebp]
	mov	ecx, DWORD PTR __First$[ebp]
	mov	eax, DWORD PTR [eax]
	sub	eax, DWORD PTR [ecx]
	sar	eax, 2
; Line 1490
	pop	edi
	pop	esi
	pop	ebx
	add	esp, 192				; 000000c0H
	cmp	ebp, esp
	call	__RTC_CheckEsp
	mov	esp, ebp
	pop	ebp
	ret	0
??$_Idl_distance@PAPADPAPAD@std@@YA@ABQAPAD0@Z ENDP	; std::_Idl_distance<char * *,char * *>
_TEXT	ENDS
; Function compile flags: /Odtp /RTCsu /ZI
;	COMDAT ??$_Get_unwrapped@ABQAPAD@std@@YA@ABQAPAD@Z
_TEXT	SEGMENT
__It$ = 8						; size = 4
??$_Get_unwrapped@ABQAPAD@std@@YA@ABQAPAD@Z PROC	; std::_Get_unwrapped<char * * const &>, COMDAT
; File C:\Program Files (x86)\Microsoft Visual Studio\2019\Community\VC\Tools\MSVC\14.27.29110\include\xutility
; Line 1229
	push	ebp
	mov	ebp, esp
	sub	esp, 192				; 000000c0H
	push	ebx
	push	esi
	push	edi
	lea	edi, DWORD PTR [ebp-192]
	mov	ecx, 48					; 00000030H
	mov	eax, -858993460				; ccccccccH
	rep stosd
	mov	ecx, OFFSET __4324C6B3_xutility
	call	@__CheckForDebuggerJustMyCode@4
; Line 1232
	mov	eax, DWORD PTR __It$[ebp]
	mov	eax, DWORD PTR [eax]
; Line 1238
	pop	edi
	pop	esi
	pop	ebx
	add	esp, 192				; 000000c0H
	cmp	ebp, esp
	call	__RTC_CheckEsp
	mov	esp, ebp
	pop	ebp
	ret	0
??$_Get_unwrapped@ABQAPAD@std@@YA@ABQAPAD@Z ENDP	; std::_Get_unwrapped<char * * const &>
_TEXT	ENDS
; Function compile flags: /Odtp /RTCsu /ZI
;	COMDAT ??$_Adl_verify_range@PAPADPAPAD@std@@YAXABQAPAD0@Z
_TEXT	SEGMENT
__First$ = 8						; size = 4
__Last$ = 12						; size = 4
??$_Adl_verify_range@PAPADPAPAD@std@@YAXABQAPAD0@Z PROC	; std::_Adl_verify_range<char * *,char * *>, COMDAT
; File C:\Program Files (x86)\Microsoft Visual Studio\2019\Community\VC\Tools\MSVC\14.27.29110\include\xutility
; Line 1192
	push	ebp
	mov	ebp, esp
	sub	esp, 192				; 000000c0H
	push	ebx
	push	esi
	push	edi
	lea	edi, DWORD PTR [ebp-192]
	mov	ecx, 48					; 00000030H
	mov	eax, -858993460				; ccccccccH
	rep stosd
	mov	ecx, OFFSET __4324C6B3_xutility
	call	@__CheckForDebuggerJustMyCode@4
; Line 1195
	mov	eax, DWORD PTR __Last$[ebp]
	mov	ecx, DWORD PTR [eax]
	push	ecx
	mov	edx, DWORD PTR __First$[ebp]
	mov	eax, DWORD PTR [edx]
	push	eax
	call	??$_Verify_range@PAD@std@@YAXQBQAD0@Z	; std::_Verify_range<char *>
	add	esp, 8
; Line 1197
	pop	edi
	pop	esi
	pop	ebx
	add	esp, 192				; 000000c0H
	cmp	ebp, esp
	call	__RTC_CheckEsp
	mov	esp, ebp
	pop	ebp
	ret	0
??$_Adl_verify_range@PAPADPAPAD@std@@YAXABQAPAD0@Z ENDP	; std::_Adl_verify_range<char * *,char * *>
_TEXT	ENDS
; Function compile flags: /Odtp /RTCsu /ZI
;	COMDAT ?deallocate@?$_Default_allocator_traits@V?$allocator@U_Container_proxy@std@@@std@@@std@@SAXAAV?$allocator@U_Container_proxy@std@@@2@QAU_Container_proxy@2@I@Z
_TEXT	SEGMENT
___formal$ = 8						; size = 4
__Ptr$ = 12						; size = 4
__Count$ = 16						; size = 4
?deallocate@?$_Default_allocator_traits@V?$allocator@U_Container_proxy@std@@@std@@@std@@SAXAAV?$allocator@U_Container_proxy@std@@@2@QAU_Container_proxy@2@I@Z PROC ; std::_Default_allocator_traits<std::allocator<std::_Container_proxy> >::deallocate, COMDAT
; File C:\Program Files (x86)\Microsoft Visual Studio\2019\Community\VC\Tools\MSVC\14.27.29110\include\xmemory
; Line 687
	push	ebp
	mov	ebp, esp
	sub	esp, 192				; 000000c0H
	push	ebx
	push	esi
	push	edi
	lea	edi, DWORD PTR [ebp-192]
	mov	ecx, 48					; 00000030H
	mov	eax, -858993460				; ccccccccH
	rep stosd
	mov	ecx, OFFSET __A58979FC_xmemory
	call	@__CheckForDebuggerJustMyCode@4
; Line 689
	mov	eax, DWORD PTR __Count$[ebp]
	shl	eax, 3
	push	eax
	mov	ecx, DWORD PTR __Ptr$[ebp]
	push	ecx
	call	??$_Deallocate@$07$0A@@std@@YAXPAXI@Z	; std::_Deallocate<8,0>
	add	esp, 8
; Line 690
	pop	edi
	pop	esi
	pop	ebx
	add	esp, 192				; 000000c0H
	cmp	ebp, esp
	call	__RTC_CheckEsp
	mov	esp, ebp
	pop	ebp
	ret	0
?deallocate@?$_Default_allocator_traits@V?$allocator@U_Container_proxy@std@@@std@@@std@@SAXAAV?$allocator@U_Container_proxy@std@@@2@QAU_Container_proxy@2@I@Z ENDP ; std::_Default_allocator_traits<std::allocator<std::_Container_proxy> >::deallocate
_TEXT	ENDS
; Function compile flags: /Odtp /RTCsu /ZI
;	COMDAT ??$_Get_size_of_n@$00@std@@YAII@Z
_TEXT	SEGMENT
__Overflow_is_possible$ = -5				; size = 1
__Count$ = 8						; size = 4
??$_Get_size_of_n@$00@std@@YAII@Z PROC			; std::_Get_size_of_n<1>, COMDAT
; File C:\Program Files (x86)\Microsoft Visual Studio\2019\Community\VC\Tools\MSVC\14.27.29110\include\xmemory
; Line 55
	push	ebp
	mov	ebp, esp
	sub	esp, 204				; 000000ccH
	push	ebx
	push	esi
	push	edi
	lea	edi, DWORD PTR [ebp-204]
	mov	ecx, 51					; 00000033H
	mov	eax, -858993460				; ccccccccH
	rep stosd
	mov	ecx, OFFSET __A58979FC_xmemory
	call	@__CheckForDebuggerJustMyCode@4
; Line 56
	mov	BYTE PTR __Overflow_is_possible$[ebp], 0
; Line 65
	mov	eax, DWORD PTR __Count$[ebp]
; Line 66
	pop	edi
	pop	esi
	pop	ebx
	add	esp, 204				; 000000ccH
	cmp	ebp, esp
	call	__RTC_CheckEsp
	mov	esp, ebp
	pop	ebp
	ret	0
??$_Get_size_of_n@$00@std@@YAII@Z ENDP			; std::_Get_size_of_n<1>
_TEXT	ENDS
; Function compile flags: /Odtp /RTCsu /ZI
;	COMDAT ??$_Get_size_of_n@$03@std@@YAII@Z
_TEXT	SEGMENT
__Max_possible$1 = -20					; size = 4
__Overflow_is_possible$ = -5				; size = 1
__Count$ = 8						; size = 4
??$_Get_size_of_n@$03@std@@YAII@Z PROC			; std::_Get_size_of_n<4>, COMDAT
; File C:\Program Files (x86)\Microsoft Visual Studio\2019\Community\VC\Tools\MSVC\14.27.29110\include\xmemory
; Line 55
	push	ebp
	mov	ebp, esp
	sub	esp, 216				; 000000d8H
	push	ebx
	push	esi
	push	edi
	lea	edi, DWORD PTR [ebp-216]
	mov	ecx, 54					; 00000036H
	mov	eax, -858993460				; ccccccccH
	rep stosd
	mov	ecx, OFFSET __A58979FC_xmemory
	call	@__CheckForDebuggerJustMyCode@4
; Line 56
	mov	BYTE PTR __Overflow_is_possible$[ebp], 1
; Line 59
	mov	DWORD PTR __Max_possible$1[ebp], 1073741823 ; 3fffffffH
; Line 60
	cmp	DWORD PTR __Count$[ebp], 1073741823	; 3fffffffH
	jbe	SHORT $LN2@Get_size_o
; Line 61
	call	?_Throw_bad_array_new_length@std@@YAXXZ	; std::_Throw_bad_array_new_length
$LN2@Get_size_o:
; Line 65
	mov	eax, DWORD PTR __Count$[ebp]
	shl	eax, 2
$LN3@Get_size_o:
; Line 66
	pop	edi
	pop	esi
	pop	ebx
	add	esp, 216				; 000000d8H
	cmp	ebp, esp
	call	__RTC_CheckEsp
	mov	esp, ebp
	pop	ebp
	ret	0
??$_Get_size_of_n@$03@std@@YAII@Z ENDP			; std::_Get_size_of_n<4>
_TEXT	ENDS
; Function compile flags: /Odtp /RTCsu /ZI
;	COMDAT ??$min@I@std@@YAABIABI0@Z
_TEXT	SEGMENT
tv65 = -220						; size = 4
$T2 = -212						; size = 4
__$EHRec$ = -12						; size = 12
__Left$ = 8						; size = 4
__Right$ = 12						; size = 4
??$min@I@std@@YAABIABI0@Z PROC				; std::min<unsigned int>, COMDAT
; File C:\Program Files (x86)\Microsoft Visual Studio\2019\Community\VC\Tools\MSVC\14.27.29110\include\utility
; Line 67
	push	ebp
	mov	ebp, esp
	push	-1
	push	__ehhandler$??$min@I@std@@YAABIABI0@Z
	mov	eax, DWORD PTR fs:0
	push	eax
	sub	esp, 208				; 000000d0H
	push	ebx
	push	esi
	push	edi
	lea	edi, DWORD PTR [ebp-220]
	mov	ecx, 52					; 00000034H
	mov	eax, -858993460				; ccccccccH
	rep stosd
	mov	eax, DWORD PTR ___security_cookie
	xor	eax, ebp
	push	eax
	lea	eax, DWORD PTR __$EHRec$[ebp]
	mov	DWORD PTR fs:0, eax
	mov	ecx, OFFSET __CF1C1A3F_utility
	call	@__CheckForDebuggerJustMyCode@4
; Line 69
	mov	eax, DWORD PTR __Right$[ebp]
	mov	ecx, DWORD PTR __Left$[ebp]
	mov	edx, DWORD PTR [eax]
	cmp	edx, DWORD PTR [ecx]
	jae	SHORT $LN3@min
	mov	eax, DWORD PTR __Right$[ebp]
	mov	DWORD PTR tv65[ebp], eax
	jmp	SHORT $LN4@min
$LN3@min:
	mov	ecx, DWORD PTR __Left$[ebp]
	mov	DWORD PTR tv65[ebp], ecx
$LN4@min:
	mov	edx, DWORD PTR tv65[ebp]
	mov	DWORD PTR $T2[ebp], edx
	mov	eax, DWORD PTR $T2[ebp]
; Line 70
	mov	ecx, DWORD PTR __$EHRec$[ebp]
	mov	DWORD PTR fs:0, ecx
	pop	ecx
	pop	edi
	pop	esi
	pop	ebx
	add	esp, 220				; 000000dcH
	cmp	ebp, esp
	call	__RTC_CheckEsp
	mov	esp, ebp
	pop	ebp
	ret	0
	int	3
	int	3
	int	3
	int	3
	int	3
_TEXT	ENDS
;	COMDAT text$x
text$x	SEGMENT
__ehhandler$??$min@I@std@@YAABIABI0@Z:
	npad	1
	npad	1
	mov	edx, DWORD PTR [esp+8]
	lea	eax, DWORD PTR [edx+12]
	mov	ecx, DWORD PTR [edx-224]
	xor	ecx, eax
	call	@__security_check_cookie@4
	mov	eax, OFFSET __ehfuncinfo$??$min@I@std@@YAABIABI0@Z
	jmp	___CxxFrameHandler3
text$x	ENDS
??$min@I@std@@YAABIABI0@Z ENDP				; std::min<unsigned int>
; Function compile flags: /Odtp /RTCsu /ZI
;	COMDAT ??$_Destroy_range@PAPAVEvent@Keyboard@@@std@@YAXPAPAVEvent@Keyboard@@QAPAV12@@Z
_TEXT	SEGMENT
__$EHRec$ = -12						; size = 12
__First$ = 8						; size = 4
__Last$ = 12						; size = 4
??$_Destroy_range@PAPAVEvent@Keyboard@@@std@@YAXPAPAVEvent@Keyboard@@QAPAV12@@Z PROC ; std::_Destroy_range<Keyboard::Event * *>, COMDAT
; File C:\Program Files (x86)\Microsoft Visual Studio\2019\Community\VC\Tools\MSVC\14.27.29110\include\xmemory
; Line 968
	push	ebp
	mov	ebp, esp
	push	-1
	push	__ehhandler$??$_Destroy_range@PAPAVEvent@Keyboard@@@std@@YAXPAPAVEvent@Keyboard@@QAPAV12@@Z
	mov	eax, DWORD PTR fs:0
	push	eax
	sub	esp, 192				; 000000c0H
	push	ebx
	push	esi
	push	edi
	lea	edi, DWORD PTR [ebp-204]
	mov	ecx, 48					; 00000030H
	mov	eax, -858993460				; ccccccccH
	rep stosd
	mov	eax, DWORD PTR ___security_cookie
	xor	eax, ebp
	push	eax
	lea	eax, DWORD PTR __$EHRec$[ebp]
	mov	DWORD PTR fs:0, eax
	mov	ecx, OFFSET __A58979FC_xmemory
	call	@__CheckForDebuggerJustMyCode@4
; Line 975
	mov	ecx, DWORD PTR __$EHRec$[ebp]
	mov	DWORD PTR fs:0, ecx
	pop	ecx
	pop	edi
	pop	esi
	pop	ebx
	add	esp, 204				; 000000ccH
	cmp	ebp, esp
	call	__RTC_CheckEsp
	mov	esp, ebp
	pop	ebp
	ret	0
	int	3
	int	3
	int	3
	int	3
	int	3
_TEXT	ENDS
;	COMDAT text$x
text$x	SEGMENT
__ehhandler$??$_Destroy_range@PAPAVEvent@Keyboard@@@std@@YAXPAPAVEvent@Keyboard@@QAPAV12@@Z:
	npad	1
	npad	1
	mov	edx, DWORD PTR [esp+8]
	lea	eax, DWORD PTR [edx+12]
	mov	ecx, DWORD PTR [edx-208]
	xor	ecx, eax
	call	@__security_check_cookie@4
	mov	eax, OFFSET __ehfuncinfo$??$_Destroy_range@PAPAVEvent@Keyboard@@@std@@YAXPAPAVEvent@Keyboard@@QAPAV12@@Z
	jmp	___CxxFrameHandler3
text$x	ENDS
??$_Destroy_range@PAPAVEvent@Keyboard@@@std@@YAXPAPAVEvent@Keyboard@@QAPAV12@@Z ENDP ; std::_Destroy_range<Keyboard::Event * *>
; Function compile flags: /Odtp /RTCsu /ZI
;	COMDAT ??$_Uninitialized_value_construct_n_unchecked1@PAPAVEvent@Keyboard@@I@std@@YAPAPAVEvent@Keyboard@@PAPAV12@I@Z
_TEXT	SEGMENT
__UFirst$ = 8						; size = 4
__Count$ = 12						; size = 4
??$_Uninitialized_value_construct_n_unchecked1@PAPAVEvent@Keyboard@@I@std@@YAPAPAVEvent@Keyboard@@PAPAV12@I@Z PROC ; std::_Uninitialized_value_construct_n_unchecked1<Keyboard::Event * *,unsigned int>, COMDAT
; File C:\Program Files (x86)\Microsoft Visual Studio\2019\Community\VC\Tools\MSVC\14.27.29110\include\xmemory
; Line 1874
	push	ebp
	mov	ebp, esp
	sub	esp, 192				; 000000c0H
	push	ebx
	push	esi
	push	edi
	lea	edi, DWORD PTR [ebp-192]
	mov	ecx, 48					; 00000030H
	mov	eax, -858993460				; ccccccccH
	rep stosd
	mov	ecx, OFFSET __A58979FC_xmemory
	call	@__CheckForDebuggerJustMyCode@4
; Line 1878
	mov	eax, DWORD PTR __Count$[ebp]
	mov	ecx, DWORD PTR __UFirst$[ebp]
	lea	edx, DWORD PTR [ecx+eax*4]
	push	edx
	mov	eax, DWORD PTR __UFirst$[ebp]
	push	eax
	call	??$_Zero_range@PAPAVEvent@Keyboard@@@std@@YAPAPAVEvent@Keyboard@@QAPAV12@0@Z ; std::_Zero_range<Keyboard::Event * *>
	add	esp, 8
; Line 1887
	pop	edi
	pop	esi
	pop	ebx
	add	esp, 192				; 000000c0H
	cmp	ebp, esp
	call	__RTC_CheckEsp
	mov	esp, ebp
	pop	ebp
	ret	0
??$_Uninitialized_value_construct_n_unchecked1@PAPAVEvent@Keyboard@@I@std@@YAPAPAVEvent@Keyboard@@PAPAV12@I@Z ENDP ; std::_Uninitialized_value_construct_n_unchecked1<Keyboard::Event * *,unsigned int>
_TEXT	ENDS
; Function compile flags: /Odtp /RTCsu /ZI
;	COMDAT ??$uninitialized_copy@PAPAVEvent@Keyboard@@PAPAV12@@std@@YAPAPAVEvent@Keyboard@@QAPAV12@0PAPAV12@@Z
_TEXT	SEGMENT
__UDest$ = -36						; size = 4
__ULast$ = -24						; size = 4
__UFirst$ = -12						; size = 4
__$ArrayPad$ = -4					; size = 4
__First$ = 8						; size = 4
__Last$ = 12						; size = 4
__Dest$ = 16						; size = 4
??$uninitialized_copy@PAPAVEvent@Keyboard@@PAPAV12@@std@@YAPAPAVEvent@Keyboard@@QAPAV12@0PAPAV12@@Z PROC ; std::uninitialized_copy<Keyboard::Event * *,Keyboard::Event * *>, COMDAT
; File C:\Program Files (x86)\Microsoft Visual Studio\2019\Community\VC\Tools\MSVC\14.27.29110\include\xmemory
; Line 1591
	push	ebp
	mov	ebp, esp
	sub	esp, 232				; 000000e8H
	push	ebx
	push	esi
	push	edi
	lea	edi, DWORD PTR [ebp-232]
	mov	ecx, 58					; 0000003aH
	mov	eax, -858993460				; ccccccccH
	rep stosd
	mov	eax, DWORD PTR ___security_cookie
	xor	eax, ebp
	mov	DWORD PTR __$ArrayPad$[ebp], eax
	mov	ecx, OFFSET __A58979FC_xmemory
	call	@__CheckForDebuggerJustMyCode@4
; Line 1593
	lea	eax, DWORD PTR __Last$[ebp]
	push	eax
	lea	ecx, DWORD PTR __First$[ebp]
	push	ecx
	call	??$_Adl_verify_range@PAPAVEvent@Keyboard@@PAPAV12@@std@@YAXABQAPAVEvent@Keyboard@@0@Z ; std::_Adl_verify_range<Keyboard::Event * *,Keyboard::Event * *>
	add	esp, 8
; Line 1594
	lea	eax, DWORD PTR __First$[ebp]
	push	eax
	call	??$_Get_unwrapped@ABQAPAVEvent@Keyboard@@@std@@YA@ABQAPAVEvent@Keyboard@@@Z ; std::_Get_unwrapped<Keyboard::Event * * const &>
	add	esp, 4
	mov	DWORD PTR __UFirst$[ebp], eax
; Line 1595
	lea	eax, DWORD PTR __Last$[ebp]
	push	eax
	call	??$_Get_unwrapped@ABQAPAVEvent@Keyboard@@@std@@YA@ABQAPAVEvent@Keyboard@@@Z ; std::_Get_unwrapped<Keyboard::Event * * const &>
	add	esp, 4
	mov	DWORD PTR __ULast$[ebp], eax
; Line 1596
	lea	eax, DWORD PTR __ULast$[ebp]
	push	eax
	lea	ecx, DWORD PTR __UFirst$[ebp]
	push	ecx
	call	??$_Idl_distance@PAPAVEvent@Keyboard@@PAPAV12@@std@@YA@ABQAPAVEvent@Keyboard@@0@Z ; std::_Idl_distance<Keyboard::Event * *,Keyboard::Event * *>
	add	esp, 8
	push	eax
	lea	edx, DWORD PTR __Dest$[ebp]
	push	edx
	call	??$_Get_unwrapped_n@AAPAPAVEvent@Keyboard@@H@std@@YA@AAPAPAVEvent@Keyboard@@H@Z ; std::_Get_unwrapped_n<Keyboard::Event * * &,int>
	add	esp, 8
	mov	DWORD PTR __UDest$[ebp], eax
; Line 1598
	mov	eax, DWORD PTR __UDest$[ebp]
	push	eax
	mov	ecx, DWORD PTR __ULast$[ebp]
	push	ecx
	mov	edx, DWORD PTR __UFirst$[ebp]
	push	edx
	call	??$_Copy_memmove@PAPAVEvent@Keyboard@@PAPAV12@@std@@YAPAPAVEvent@Keyboard@@PAPAV12@00@Z ; std::_Copy_memmove<Keyboard::Event * *,Keyboard::Event * *>
	add	esp, 12					; 0000000cH
	mov	DWORD PTR __UDest$[ebp], eax
; Line 1608
	lea	eax, DWORD PTR __UDest$[ebp]
	push	eax
	lea	ecx, DWORD PTR __Dest$[ebp]
	push	ecx
	call	??$_Seek_wrapped@PAPAVEvent@Keyboard@@AAPAPAV12@@std@@YAXAAPAPAVEvent@Keyboard@@0@Z ; std::_Seek_wrapped<Keyboard::Event * *,Keyboard::Event * * &>
	add	esp, 8
; Line 1609
	mov	eax, DWORD PTR __Dest$[ebp]
; Line 1610
	push	edx
	mov	ecx, ebp
	push	eax
	lea	edx, DWORD PTR $LN7@uninitiali
	call	@_RTC_CheckStackVars@8
	pop	eax
	pop	edx
	pop	edi
	pop	esi
	pop	ebx
	mov	ecx, DWORD PTR __$ArrayPad$[ebp]
	xor	ecx, ebp
	call	@__security_check_cookie@4
	add	esp, 232				; 000000e8H
	cmp	ebp, esp
	call	__RTC_CheckEsp
	mov	esp, ebp
	pop	ebp
	ret	0
	npad	3
$LN7@uninitiali:
	DD	3
	DD	$LN6@uninitiali
$LN6@uninitiali:
	DD	-12					; fffffff4H
	DD	4
	DD	$LN3@uninitiali
	DD	-24					; ffffffe8H
	DD	4
	DD	$LN4@uninitiali
	DD	-36					; ffffffdcH
	DD	4
	DD	$LN5@uninitiali
$LN5@uninitiali:
	DB	95					; 0000005fH
	DB	85					; 00000055H
	DB	68					; 00000044H
	DB	101					; 00000065H
	DB	115					; 00000073H
	DB	116					; 00000074H
	DB	0
$LN4@uninitiali:
	DB	95					; 0000005fH
	DB	85					; 00000055H
	DB	76					; 0000004cH
	DB	97					; 00000061H
	DB	115					; 00000073H
	DB	116					; 00000074H
	DB	0
$LN3@uninitiali:
	DB	95					; 0000005fH
	DB	85					; 00000055H
	DB	70					; 00000046H
	DB	105					; 00000069H
	DB	114					; 00000072H
	DB	115					; 00000073H
	DB	116					; 00000074H
	DB	0
??$uninitialized_copy@PAPAVEvent@Keyboard@@PAPAV12@@std@@YAPAPAVEvent@Keyboard@@QAPAV12@0PAPAV12@@Z ENDP ; std::uninitialized_copy<Keyboard::Event * *,Keyboard::Event * *>
_TEXT	ENDS
; Function compile flags: /Odtp /RTCsu /ZI
;	COMDAT ??$_Destroy_range@PAPAD@std@@YAXPAPADQAPAD@Z
_TEXT	SEGMENT
__$EHRec$ = -12						; size = 12
__First$ = 8						; size = 4
__Last$ = 12						; size = 4
??$_Destroy_range@PAPAD@std@@YAXPAPADQAPAD@Z PROC	; std::_Destroy_range<char * *>, COMDAT
; File C:\Program Files (x86)\Microsoft Visual Studio\2019\Community\VC\Tools\MSVC\14.27.29110\include\xmemory
; Line 968
	push	ebp
	mov	ebp, esp
	push	-1
	push	__ehhandler$??$_Destroy_range@PAPAD@std@@YAXPAPADQAPAD@Z
	mov	eax, DWORD PTR fs:0
	push	eax
	sub	esp, 192				; 000000c0H
	push	ebx
	push	esi
	push	edi
	lea	edi, DWORD PTR [ebp-204]
	mov	ecx, 48					; 00000030H
	mov	eax, -858993460				; ccccccccH
	rep stosd
	mov	eax, DWORD PTR ___security_cookie
	xor	eax, ebp
	push	eax
	lea	eax, DWORD PTR __$EHRec$[ebp]
	mov	DWORD PTR fs:0, eax
	mov	ecx, OFFSET __A58979FC_xmemory
	call	@__CheckForDebuggerJustMyCode@4
; Line 975
	mov	ecx, DWORD PTR __$EHRec$[ebp]
	mov	DWORD PTR fs:0, ecx
	pop	ecx
	pop	edi
	pop	esi
	pop	ebx
	add	esp, 204				; 000000ccH
	cmp	ebp, esp
	call	__RTC_CheckEsp
	mov	esp, ebp
	pop	ebp
	ret	0
	int	3
	int	3
	int	3
	int	3
	int	3
_TEXT	ENDS
;	COMDAT text$x
text$x	SEGMENT
__ehhandler$??$_Destroy_range@PAPAD@std@@YAXPAPADQAPAD@Z:
	npad	1
	npad	1
	mov	edx, DWORD PTR [esp+8]
	lea	eax, DWORD PTR [edx+12]
	mov	ecx, DWORD PTR [edx-208]
	xor	ecx, eax
	call	@__security_check_cookie@4
	mov	eax, OFFSET __ehfuncinfo$??$_Destroy_range@PAPAD@std@@YAXPAPADQAPAD@Z
	jmp	___CxxFrameHandler3
text$x	ENDS
??$_Destroy_range@PAPAD@std@@YAXPAPADQAPAD@Z ENDP	; std::_Destroy_range<char * *>
; Function compile flags: /Odtp /RTCsu /ZI
;	COMDAT ??$_Uninitialized_value_construct_n_unchecked1@PAPADI@std@@YAPAPADPAPADI@Z
_TEXT	SEGMENT
__UFirst$ = 8						; size = 4
__Count$ = 12						; size = 4
??$_Uninitialized_value_construct_n_unchecked1@PAPADI@std@@YAPAPADPAPADI@Z PROC ; std::_Uninitialized_value_construct_n_unchecked1<char * *,unsigned int>, COMDAT
; File C:\Program Files (x86)\Microsoft Visual Studio\2019\Community\VC\Tools\MSVC\14.27.29110\include\xmemory
; Line 1874
	push	ebp
	mov	ebp, esp
	sub	esp, 192				; 000000c0H
	push	ebx
	push	esi
	push	edi
	lea	edi, DWORD PTR [ebp-192]
	mov	ecx, 48					; 00000030H
	mov	eax, -858993460				; ccccccccH
	rep stosd
	mov	ecx, OFFSET __A58979FC_xmemory
	call	@__CheckForDebuggerJustMyCode@4
; Line 1878
	mov	eax, DWORD PTR __Count$[ebp]
	mov	ecx, DWORD PTR __UFirst$[ebp]
	lea	edx, DWORD PTR [ecx+eax*4]
	push	edx
	mov	eax, DWORD PTR __UFirst$[ebp]
	push	eax
	call	??$_Zero_range@PAPAD@std@@YAPAPADQAPAD0@Z ; std::_Zero_range<char * *>
	add	esp, 8
; Line 1887
	pop	edi
	pop	esi
	pop	ebx
	add	esp, 192				; 000000c0H
	cmp	ebp, esp
	call	__RTC_CheckEsp
	mov	esp, ebp
	pop	ebp
	ret	0
??$_Uninitialized_value_construct_n_unchecked1@PAPADI@std@@YAPAPADPAPADI@Z ENDP ; std::_Uninitialized_value_construct_n_unchecked1<char * *,unsigned int>
_TEXT	ENDS
; Function compile flags: /Odtp /RTCsu /ZI
;	COMDAT ??$uninitialized_copy@PAPADPAPAD@std@@YAPAPADQAPAD0PAPAD@Z
_TEXT	SEGMENT
__UDest$ = -36						; size = 4
__ULast$ = -24						; size = 4
__UFirst$ = -12						; size = 4
__$ArrayPad$ = -4					; size = 4
__First$ = 8						; size = 4
__Last$ = 12						; size = 4
__Dest$ = 16						; size = 4
??$uninitialized_copy@PAPADPAPAD@std@@YAPAPADQAPAD0PAPAD@Z PROC ; std::uninitialized_copy<char * *,char * *>, COMDAT
; File C:\Program Files (x86)\Microsoft Visual Studio\2019\Community\VC\Tools\MSVC\14.27.29110\include\xmemory
; Line 1591
	push	ebp
	mov	ebp, esp
	sub	esp, 232				; 000000e8H
	push	ebx
	push	esi
	push	edi
	lea	edi, DWORD PTR [ebp-232]
	mov	ecx, 58					; 0000003aH
	mov	eax, -858993460				; ccccccccH
	rep stosd
	mov	eax, DWORD PTR ___security_cookie
	xor	eax, ebp
	mov	DWORD PTR __$ArrayPad$[ebp], eax
	mov	ecx, OFFSET __A58979FC_xmemory
	call	@__CheckForDebuggerJustMyCode@4
; Line 1593
	lea	eax, DWORD PTR __Last$[ebp]
	push	eax
	lea	ecx, DWORD PTR __First$[ebp]
	push	ecx
	call	??$_Adl_verify_range@PAPADPAPAD@std@@YAXABQAPAD0@Z ; std::_Adl_verify_range<char * *,char * *>
	add	esp, 8
; Line 1594
	lea	eax, DWORD PTR __First$[ebp]
	push	eax
	call	??$_Get_unwrapped@ABQAPAD@std@@YA@ABQAPAD@Z ; std::_Get_unwrapped<char * * const &>
	add	esp, 4
	mov	DWORD PTR __UFirst$[ebp], eax
; Line 1595
	lea	eax, DWORD PTR __Last$[ebp]
	push	eax
	call	??$_Get_unwrapped@ABQAPAD@std@@YA@ABQAPAD@Z ; std::_Get_unwrapped<char * * const &>
	add	esp, 4
	mov	DWORD PTR __ULast$[ebp], eax
; Line 1596
	lea	eax, DWORD PTR __ULast$[ebp]
	push	eax
	lea	ecx, DWORD PTR __UFirst$[ebp]
	push	ecx
	call	??$_Idl_distance@PAPADPAPAD@std@@YA@ABQAPAD0@Z ; std::_Idl_distance<char * *,char * *>
	add	esp, 8
	push	eax
	lea	edx, DWORD PTR __Dest$[ebp]
	push	edx
	call	??$_Get_unwrapped_n@AAPAPADH@std@@YA@AAPAPADH@Z ; std::_Get_unwrapped_n<char * * &,int>
	add	esp, 8
	mov	DWORD PTR __UDest$[ebp], eax
; Line 1598
	mov	eax, DWORD PTR __UDest$[ebp]
	push	eax
	mov	ecx, DWORD PTR __ULast$[ebp]
	push	ecx
	mov	edx, DWORD PTR __UFirst$[ebp]
	push	edx
	call	??$_Copy_memmove@PAPADPAPAD@std@@YAPAPADPAPAD00@Z ; std::_Copy_memmove<char * *,char * *>
	add	esp, 12					; 0000000cH
	mov	DWORD PTR __UDest$[ebp], eax
; Line 1608
	lea	eax, DWORD PTR __UDest$[ebp]
	push	eax
	lea	ecx, DWORD PTR __Dest$[ebp]
	push	ecx
	call	??$_Seek_wrapped@PAPADAAPAPAD@std@@YAXAAPAPAD0@Z ; std::_Seek_wrapped<char * *,char * * &>
	add	esp, 8
; Line 1609
	mov	eax, DWORD PTR __Dest$[ebp]
; Line 1610
	push	edx
	mov	ecx, ebp
	push	eax
	lea	edx, DWORD PTR $LN7@uninitiali
	call	@_RTC_CheckStackVars@8
	pop	eax
	pop	edx
	pop	edi
	pop	esi
	pop	ebx
	mov	ecx, DWORD PTR __$ArrayPad$[ebp]
	xor	ecx, ebp
	call	@__security_check_cookie@4
	add	esp, 232				; 000000e8H
	cmp	ebp, esp
	call	__RTC_CheckEsp
	mov	esp, ebp
	pop	ebp
	ret	0
	npad	3
$LN7@uninitiali:
	DD	3
	DD	$LN6@uninitiali
$LN6@uninitiali:
	DD	-12					; fffffff4H
	DD	4
	DD	$LN3@uninitiali
	DD	-24					; ffffffe8H
	DD	4
	DD	$LN4@uninitiali
	DD	-36					; ffffffdcH
	DD	4
	DD	$LN5@uninitiali
$LN5@uninitiali:
	DB	95					; 0000005fH
	DB	85					; 00000055H
	DB	68					; 00000044H
	DB	101					; 00000065H
	DB	115					; 00000073H
	DB	116					; 00000074H
	DB	0
$LN4@uninitiali:
	DB	95					; 0000005fH
	DB	85					; 00000055H
	DB	76					; 0000004cH
	DB	97					; 00000061H
	DB	115					; 00000073H
	DB	116					; 00000074H
	DB	0
$LN3@uninitiali:
	DB	95					; 0000005fH
	DB	85					; 00000055H
	DB	70					; 00000046H
	DB	105					; 00000069H
	DB	114					; 00000072H
	DB	115					; 00000073H
	DB	116					; 00000074H
	DB	0
??$uninitialized_copy@PAPADPAPAD@std@@YAPAPADQAPAD0PAPAD@Z ENDP ; std::uninitialized_copy<char * *,char * *>
_TEXT	ENDS
; Function compile flags: /Odtp /RTCsu /ZI
;	COMDAT ??$_Allocate_manually_vector_aligned@U_Default_allocate_traits@std@@@std@@YAPAXI@Z
_TEXT	SEGMENT
__Ptr$ = -32						; size = 4
__Ptr_container$ = -20					; size = 4
__Block_size$ = -8					; size = 4
__Bytes$ = 8						; size = 4
??$_Allocate_manually_vector_aligned@U_Default_allocate_traits@std@@@std@@YAPAXI@Z PROC ; std::_Allocate_manually_vector_aligned<std::_Default_allocate_traits>, COMDAT
; File C:\Program Files (x86)\Microsoft Visual Studio\2019\Community\VC\Tools\MSVC\14.27.29110\include\xmemory
; Line 113
	push	ebp
	mov	ebp, esp
	sub	esp, 228				; 000000e4H
	push	ebx
	push	esi
	push	edi
	lea	edi, DWORD PTR [ebp-228]
	mov	ecx, 57					; 00000039H
	mov	eax, -858993460				; ccccccccH
	rep stosd
	mov	ecx, OFFSET __A58979FC_xmemory
	call	@__CheckForDebuggerJustMyCode@4
; Line 115
	mov	eax, DWORD PTR __Bytes$[ebp]
	add	eax, 39					; 00000027H
	mov	DWORD PTR __Block_size$[ebp], eax
; Line 116
	mov	eax, DWORD PTR __Block_size$[ebp]
	cmp	eax, DWORD PTR __Bytes$[ebp]
	ja	SHORT $LN8@Allocate_m
; Line 117
	call	?_Throw_bad_array_new_length@std@@YAXXZ	; std::_Throw_bad_array_new_length
$LN8@Allocate_m:
; Line 120
	mov	eax, DWORD PTR __Block_size$[ebp]
	push	eax
	call	?_Allocate@_Default_allocate_traits@std@@SAPAXI@Z ; std::_Default_allocate_traits::_Allocate
	add	esp, 4
	mov	DWORD PTR __Ptr_container$[ebp], eax
$LN4@Allocate_m:
; Line 121
	cmp	DWORD PTR __Ptr_container$[ebp], 0
	je	SHORT $LN7@Allocate_m
	jmp	SHORT $LN2@Allocate_m
$LN7@Allocate_m:
	mov	esi, esp
	push	OFFSET ??_C@_0BB@FCMFBGOM@invalid?5argument@
	push	OFFSET ??_C@_02DKCKIIND@?$CFs@
	push	0
	push	121					; 00000079H
	push	OFFSET ??_C@_0GI@JMEOMKJO@C?3?2Program?5Files?5?$CIx86?$CJ?2Microsof@
	push	2
	call	DWORD PTR __imp___CrtDbgReport
	add	esp, 24					; 00000018H
	cmp	esi, esp
	call	__RTC_CheckEsp
	cmp	eax, 1
	jne	SHORT $LN12@Allocate_m
	int	3
$LN12@Allocate_m:
	mov	esi, esp
	push	0
	push	121					; 00000079H
	push	OFFSET ??_C@_1NA@FEEOBALC@?$AAC?$AA?3?$AA?2?$AAP?$AAr?$AAo?$AAg?$AAr?$AAa?$AAm?$AA?5?$AAF?$AAi?$AAl?$AAe@
	push	OFFSET ??_C@_1EO@GFNCMDLA@?$AAs?$AAt?$AAd?$AA?3?$AA?3?$AA_?$AAA?$AAl?$AAl?$AAo?$AAc?$AAa?$AAt?$AAe?$AA_@
	push	OFFSET ??_C@_1CG@JNLFBNGN@?$AA?$CC?$AAi?$AAn?$AAv?$AAa?$AAl?$AAi?$AAd?$AA?5?$AAa?$AAr?$AAg?$AAu?$AAm?$AAe@
	call	DWORD PTR __imp___invalid_parameter
	add	esp, 20					; 00000014H
	cmp	esi, esp
	call	__RTC_CheckEsp
	xor	eax, eax
	jne	SHORT $LN7@Allocate_m
$LN2@Allocate_m:
	xor	eax, eax
	jne	SHORT $LN4@Allocate_m
; Line 122
	mov	eax, DWORD PTR __Ptr_container$[ebp]
	add	eax, 39					; 00000027H
	and	eax, -32				; ffffffe0H
	mov	DWORD PTR __Ptr$[ebp], eax
; Line 123
	mov	eax, 4
	imul	ecx, eax, -1
	mov	edx, DWORD PTR __Ptr$[ebp]
	mov	eax, DWORD PTR __Ptr_container$[ebp]
	mov	DWORD PTR [edx+ecx], eax
; Line 126
	mov	eax, 4
	imul	ecx, eax, -2
	mov	edx, DWORD PTR __Ptr$[ebp]
	mov	DWORD PTR [edx+ecx], -84215046		; fafafafaH
; Line 128
	mov	eax, DWORD PTR __Ptr$[ebp]
$LN11@Allocate_m:
; Line 129
	pop	edi
	pop	esi
	pop	ebx
	add	esp, 228				; 000000e4H
	cmp	ebp, esp
	call	__RTC_CheckEsp
	mov	esp, ebp
	pop	ebp
	ret	0
??$_Allocate_manually_vector_aligned@U_Default_allocate_traits@std@@@std@@YAPAXI@Z ENDP ; std::_Allocate_manually_vector_aligned<std::_Default_allocate_traits>
_TEXT	ENDS
; Function compile flags: /Odtp /RTCsu /ZI
;	COMDAT ??$move@AAV?$allocator@VEvent@Keyboard@@@std@@@std@@YA$$QAV?$allocator@VEvent@Keyboard@@@0@AAV10@@Z
_TEXT	SEGMENT
__$EHRec$ = -12						; size = 12
__Arg$ = 8						; size = 4
??$move@AAV?$allocator@VEvent@Keyboard@@@std@@@std@@YA$$QAV?$allocator@VEvent@Keyboard@@@0@AAV10@@Z PROC ; std::move<std::allocator<Keyboard::Event> &>, COMDAT
; File C:\Program Files (x86)\Microsoft Visual Studio\2019\Community\VC\Tools\MSVC\14.27.29110\include\type_traits
; Line 1466
	push	ebp
	mov	ebp, esp
	push	-1
	push	__ehhandler$??$move@AAV?$allocator@VEvent@Keyboard@@@std@@@std@@YA$$QAV?$allocator@VEvent@Keyboard@@@0@AAV10@@Z
	mov	eax, DWORD PTR fs:0
	push	eax
	sub	esp, 192				; 000000c0H
	push	ebx
	push	esi
	push	edi
	lea	edi, DWORD PTR [ebp-204]
	mov	ecx, 48					; 00000030H
	mov	eax, -858993460				; ccccccccH
	rep stosd
	mov	eax, DWORD PTR ___security_cookie
	xor	eax, ebp
	push	eax
	lea	eax, DWORD PTR __$EHRec$[ebp]
	mov	DWORD PTR fs:0, eax
	mov	ecx, OFFSET __85A9AA98_type_traits
	call	@__CheckForDebuggerJustMyCode@4
; Line 1467
	mov	eax, DWORD PTR __Arg$[ebp]
; Line 1468
	mov	ecx, DWORD PTR __$EHRec$[ebp]
	mov	DWORD PTR fs:0, ecx
	pop	ecx
	pop	edi
	pop	esi
	pop	ebx
	add	esp, 204				; 000000ccH
	cmp	ebp, esp
	call	__RTC_CheckEsp
	mov	esp, ebp
	pop	ebp
	ret	0
	int	3
	int	3
	int	3
	int	3
	int	3
_TEXT	ENDS
;	COMDAT text$x
text$x	SEGMENT
__ehhandler$??$move@AAV?$allocator@VEvent@Keyboard@@@std@@@std@@YA$$QAV?$allocator@VEvent@Keyboard@@@0@AAV10@@Z:
	npad	1
	npad	1
	mov	edx, DWORD PTR [esp+8]
	lea	eax, DWORD PTR [edx+12]
	mov	ecx, DWORD PTR [edx-208]
	xor	ecx, eax
	call	@__security_check_cookie@4
	mov	eax, OFFSET __ehfuncinfo$??$move@AAV?$allocator@VEvent@Keyboard@@@std@@@std@@YA$$QAV?$allocator@VEvent@Keyboard@@@0@AAV10@@Z
	jmp	___CxxFrameHandler3
text$x	ENDS
??$move@AAV?$allocator@VEvent@Keyboard@@@std@@@std@@YA$$QAV?$allocator@VEvent@Keyboard@@@0@AAV10@@Z ENDP ; std::move<std::allocator<Keyboard::Event> &>
; Function compile flags: /Odtp /RTCsu /ZI
;	COMDAT ??$construct@VEvent@Keyboard@@V12@@?$_Default_allocator_traits@V?$allocator@VEvent@Keyboard@@@std@@@std@@SAXAAV?$allocator@VEvent@Keyboard@@@1@QAVEvent@Keyboard@@$$QAV34@@Z
_TEXT	SEGMENT
$T1 = -200						; size = 4
___formal$ = 8						; size = 4
__Ptr$ = 12						; size = 4
_<_Args_0>$ = 16					; size = 4
??$construct@VEvent@Keyboard@@V12@@?$_Default_allocator_traits@V?$allocator@VEvent@Keyboard@@@std@@@std@@SAXAAV?$allocator@VEvent@Keyboard@@@1@QAVEvent@Keyboard@@$$QAV34@@Z PROC ; std::_Default_allocator_traits<std::allocator<Keyboard::Event> >::construct<Keyboard::Event,Keyboard::Event>, COMDAT
; File C:\Program Files (x86)\Microsoft Visual Studio\2019\Community\VC\Tools\MSVC\14.27.29110\include\xmemory
; Line 693
	push	ebp
	mov	ebp, esp
	sub	esp, 204				; 000000ccH
	push	ebx
	push	esi
	push	edi
	lea	edi, DWORD PTR [ebp-204]
	mov	ecx, 51					; 00000033H
	mov	eax, -858993460				; ccccccccH
	rep stosd
	mov	ecx, OFFSET __A58979FC_xmemory
	call	@__CheckForDebuggerJustMyCode@4
	mov	eax, DWORD PTR __Ptr$[ebp]
	push	eax
	push	8
	call	??2@YAPAXIPAX@Z				; operator new
	add	esp, 8
	mov	DWORD PTR $T1[ebp], eax
	mov	ecx, DWORD PTR _<_Args_0>$[ebp]
	push	ecx
	call	??$forward@VEvent@Keyboard@@@std@@YA$$QAVEvent@Keyboard@@AAV12@@Z ; std::forward<Keyboard::Event>
	add	esp, 4
	mov	edx, DWORD PTR [eax]
	mov	eax, DWORD PTR [eax+4]
	mov	ecx, DWORD PTR $T1[ebp]
	mov	DWORD PTR [ecx], edx
	mov	DWORD PTR [ecx+4], eax
; Line 695
	pop	edi
	pop	esi
	pop	ebx
	add	esp, 204				; 000000ccH
	cmp	ebp, esp
	call	__RTC_CheckEsp
	mov	esp, ebp
	pop	ebp
	ret	0
??$construct@VEvent@Keyboard@@V12@@?$_Default_allocator_traits@V?$allocator@VEvent@Keyboard@@@std@@@std@@SAXAAV?$allocator@VEvent@Keyboard@@@1@QAVEvent@Keyboard@@$$QAV34@@Z ENDP ; std::_Default_allocator_traits<std::allocator<Keyboard::Event> >::construct<Keyboard::Event,Keyboard::Event>
_TEXT	ENDS
; Function compile flags: /Odtp /RTCsu /ZI
;	COMDAT ??$forward@VEvent@Keyboard@@@std@@YA$$QAVEvent@Keyboard@@AAV12@@Z
_TEXT	SEGMENT
__$EHRec$ = -12						; size = 12
__Arg$ = 8						; size = 4
??$forward@VEvent@Keyboard@@@std@@YA$$QAVEvent@Keyboard@@AAV12@@Z PROC ; std::forward<Keyboard::Event>, COMDAT
; File C:\Program Files (x86)\Microsoft Visual Studio\2019\Community\VC\Tools\MSVC\14.27.29110\include\type_traits
; Line 1454
	push	ebp
	mov	ebp, esp
	push	-1
	push	__ehhandler$??$forward@VEvent@Keyboard@@@std@@YA$$QAVEvent@Keyboard@@AAV12@@Z
	mov	eax, DWORD PTR fs:0
	push	eax
	sub	esp, 192				; 000000c0H
	push	ebx
	push	esi
	push	edi
	lea	edi, DWORD PTR [ebp-204]
	mov	ecx, 48					; 00000030H
	mov	eax, -858993460				; ccccccccH
	rep stosd
	mov	eax, DWORD PTR ___security_cookie
	xor	eax, ebp
	push	eax
	lea	eax, DWORD PTR __$EHRec$[ebp]
	mov	DWORD PTR fs:0, eax
	mov	ecx, OFFSET __85A9AA98_type_traits
	call	@__CheckForDebuggerJustMyCode@4
; Line 1455
	mov	eax, DWORD PTR __Arg$[ebp]
; Line 1456
	mov	ecx, DWORD PTR __$EHRec$[ebp]
	mov	DWORD PTR fs:0, ecx
	pop	ecx
	pop	edi
	pop	esi
	pop	ebx
	add	esp, 204				; 000000ccH
	cmp	ebp, esp
	call	__RTC_CheckEsp
	mov	esp, ebp
	pop	ebp
	ret	0
	int	3
	int	3
	int	3
	int	3
	int	3
_TEXT	ENDS
;	COMDAT text$x
text$x	SEGMENT
__ehhandler$??$forward@VEvent@Keyboard@@@std@@YA$$QAVEvent@Keyboard@@AAV12@@Z:
	npad	1
	npad	1
	mov	edx, DWORD PTR [esp+8]
	lea	eax, DWORD PTR [edx+12]
	mov	ecx, DWORD PTR [edx-208]
	xor	ecx, eax
	call	@__security_check_cookie@4
	mov	eax, OFFSET __ehfuncinfo$??$forward@VEvent@Keyboard@@@std@@YA$$QAVEvent@Keyboard@@AAV12@@Z
	jmp	___CxxFrameHandler3
text$x	ENDS
??$forward@VEvent@Keyboard@@@std@@YA$$QAVEvent@Keyboard@@AAV12@@Z ENDP ; std::forward<Keyboard::Event>
; Function compile flags: /Odtp /RTCsu /ZI
;	COMDAT ??$move@AAV?$allocator@D@std@@@std@@YA$$QAV?$allocator@D@0@AAV10@@Z
_TEXT	SEGMENT
__$EHRec$ = -12						; size = 12
__Arg$ = 8						; size = 4
??$move@AAV?$allocator@D@std@@@std@@YA$$QAV?$allocator@D@0@AAV10@@Z PROC ; std::move<std::allocator<char> &>, COMDAT
; File C:\Program Files (x86)\Microsoft Visual Studio\2019\Community\VC\Tools\MSVC\14.27.29110\include\type_traits
; Line 1466
	push	ebp
	mov	ebp, esp
	push	-1
	push	__ehhandler$??$move@AAV?$allocator@D@std@@@std@@YA$$QAV?$allocator@D@0@AAV10@@Z
	mov	eax, DWORD PTR fs:0
	push	eax
	sub	esp, 192				; 000000c0H
	push	ebx
	push	esi
	push	edi
	lea	edi, DWORD PTR [ebp-204]
	mov	ecx, 48					; 00000030H
	mov	eax, -858993460				; ccccccccH
	rep stosd
	mov	eax, DWORD PTR ___security_cookie
	xor	eax, ebp
	push	eax
	lea	eax, DWORD PTR __$EHRec$[ebp]
	mov	DWORD PTR fs:0, eax
	mov	ecx, OFFSET __85A9AA98_type_traits
	call	@__CheckForDebuggerJustMyCode@4
; Line 1467
	mov	eax, DWORD PTR __Arg$[ebp]
; Line 1468
	mov	ecx, DWORD PTR __$EHRec$[ebp]
	mov	DWORD PTR fs:0, ecx
	pop	ecx
	pop	edi
	pop	esi
	pop	ebx
	add	esp, 204				; 000000ccH
	cmp	ebp, esp
	call	__RTC_CheckEsp
	mov	esp, ebp
	pop	ebp
	ret	0
	int	3
	int	3
	int	3
	int	3
	int	3
_TEXT	ENDS
;	COMDAT text$x
text$x	SEGMENT
__ehhandler$??$move@AAV?$allocator@D@std@@@std@@YA$$QAV?$allocator@D@0@AAV10@@Z:
	npad	1
	npad	1
	mov	edx, DWORD PTR [esp+8]
	lea	eax, DWORD PTR [edx+12]
	mov	ecx, DWORD PTR [edx-208]
	xor	ecx, eax
	call	@__security_check_cookie@4
	mov	eax, OFFSET __ehfuncinfo$??$move@AAV?$allocator@D@std@@@std@@YA$$QAV?$allocator@D@0@AAV10@@Z
	jmp	___CxxFrameHandler3
text$x	ENDS
??$move@AAV?$allocator@D@std@@@std@@YA$$QAV?$allocator@D@0@AAV10@@Z ENDP ; std::move<std::allocator<char> &>
; Function compile flags: /Odtp /RTCsu /ZI
;	COMDAT ??$construct@DABD@?$_Default_allocator_traits@V?$allocator@D@std@@@std@@SAXAAV?$allocator@D@1@QADABD@Z
_TEXT	SEGMENT
$T1 = -200						; size = 4
___formal$ = 8						; size = 4
__Ptr$ = 12						; size = 4
_<_Args_0>$ = 16					; size = 4
??$construct@DABD@?$_Default_allocator_traits@V?$allocator@D@std@@@std@@SAXAAV?$allocator@D@1@QADABD@Z PROC ; std::_Default_allocator_traits<std::allocator<char> >::construct<char,char const &>, COMDAT
; File C:\Program Files (x86)\Microsoft Visual Studio\2019\Community\VC\Tools\MSVC\14.27.29110\include\xmemory
; Line 693
	push	ebp
	mov	ebp, esp
	sub	esp, 204				; 000000ccH
	push	ebx
	push	esi
	push	edi
	lea	edi, DWORD PTR [ebp-204]
	mov	ecx, 51					; 00000033H
	mov	eax, -858993460				; ccccccccH
	rep stosd
	mov	ecx, OFFSET __A58979FC_xmemory
	call	@__CheckForDebuggerJustMyCode@4
	mov	eax, DWORD PTR __Ptr$[ebp]
	push	eax
	push	1
	call	??2@YAPAXIPAX@Z				; operator new
	add	esp, 8
	mov	DWORD PTR $T1[ebp], eax
	mov	ecx, DWORD PTR _<_Args_0>$[ebp]
	push	ecx
	call	??$forward@ABD@std@@YAABDABD@Z		; std::forward<char const &>
	add	esp, 4
	mov	edx, DWORD PTR $T1[ebp]
	mov	al, BYTE PTR [eax]
	mov	BYTE PTR [edx], al
; Line 695
	pop	edi
	pop	esi
	pop	ebx
	add	esp, 204				; 000000ccH
	cmp	ebp, esp
	call	__RTC_CheckEsp
	mov	esp, ebp
	pop	ebp
	ret	0
??$construct@DABD@?$_Default_allocator_traits@V?$allocator@D@std@@@std@@SAXAAV?$allocator@D@1@QADABD@Z ENDP ; std::_Default_allocator_traits<std::allocator<char> >::construct<char,char const &>
_TEXT	ENDS
; Function compile flags: /Odtp /RTCsu /ZI
;	COMDAT ??$forward@ABD@std@@YAABDABD@Z
_TEXT	SEGMENT
__$EHRec$ = -12						; size = 12
__Arg$ = 8						; size = 4
??$forward@ABD@std@@YAABDABD@Z PROC			; std::forward<char const &>, COMDAT
; File C:\Program Files (x86)\Microsoft Visual Studio\2019\Community\VC\Tools\MSVC\14.27.29110\include\type_traits
; Line 1454
	push	ebp
	mov	ebp, esp
	push	-1
	push	__ehhandler$??$forward@ABD@std@@YAABDABD@Z
	mov	eax, DWORD PTR fs:0
	push	eax
	sub	esp, 192				; 000000c0H
	push	ebx
	push	esi
	push	edi
	lea	edi, DWORD PTR [ebp-204]
	mov	ecx, 48					; 00000030H
	mov	eax, -858993460				; ccccccccH
	rep stosd
	mov	eax, DWORD PTR ___security_cookie
	xor	eax, ebp
	push	eax
	lea	eax, DWORD PTR __$EHRec$[ebp]
	mov	DWORD PTR fs:0, eax
	mov	ecx, OFFSET __85A9AA98_type_traits
	call	@__CheckForDebuggerJustMyCode@4
; Line 1455
	mov	eax, DWORD PTR __Arg$[ebp]
; Line 1456
	mov	ecx, DWORD PTR __$EHRec$[ebp]
	mov	DWORD PTR fs:0, ecx
	pop	ecx
	pop	edi
	pop	esi
	pop	ebx
	add	esp, 204				; 000000ccH
	cmp	ebp, esp
	call	__RTC_CheckEsp
	mov	esp, ebp
	pop	ebp
	ret	0
	int	3
	int	3
	int	3
	int	3
	int	3
_TEXT	ENDS
;	COMDAT text$x
text$x	SEGMENT
__ehhandler$??$forward@ABD@std@@YAABDABD@Z:
	npad	1
	npad	1
	mov	edx, DWORD PTR [esp+8]
	lea	eax, DWORD PTR [edx+12]
	mov	ecx, DWORD PTR [edx-208]
	xor	ecx, eax
	call	@__security_check_cookie@4
	mov	eax, OFFSET __ehfuncinfo$??$forward@ABD@std@@YAABDABD@Z
	jmp	___CxxFrameHandler3
text$x	ENDS
??$forward@ABD@std@@YAABDABD@Z ENDP			; std::forward<char const &>
; Function compile flags: /Odtp /RTCsu /ZI
;	COMDAT ??$_Deallocate_plain@V?$allocator@U_Container_proxy@std@@@std@@@std@@YAXAAV?$allocator@U_Container_proxy@std@@@0@QAU_Container_proxy@0@@Z
_TEXT	SEGMENT
__$EHRec$ = -12						; size = 12
__Al$ = 8						; size = 4
__Ptr$ = 12						; size = 4
??$_Deallocate_plain@V?$allocator@U_Container_proxy@std@@@std@@@std@@YAXAAV?$allocator@U_Container_proxy@std@@@0@QAU_Container_proxy@0@@Z PROC ; std::_Deallocate_plain<std::allocator<std::_Container_proxy> >, COMDAT
; File C:\Program Files (x86)\Microsoft Visual Studio\2019\Community\VC\Tools\MSVC\14.27.29110\include\xmemory
; Line 998
	push	ebp
	mov	ebp, esp
	push	-1
	push	__ehhandler$??$_Deallocate_plain@V?$allocator@U_Container_proxy@std@@@std@@@std@@YAXAAV?$allocator@U_Container_proxy@std@@@0@QAU_Container_proxy@0@@Z
	mov	eax, DWORD PTR fs:0
	push	eax
	sub	esp, 192				; 000000c0H
	push	ebx
	push	esi
	push	edi
	lea	edi, DWORD PTR [ebp-204]
	mov	ecx, 48					; 00000030H
	mov	eax, -858993460				; ccccccccH
	rep stosd
	mov	eax, DWORD PTR ___security_cookie
	xor	eax, ebp
	push	eax
	lea	eax, DWORD PTR __$EHRec$[ebp]
	mov	DWORD PTR fs:0, eax
	mov	ecx, OFFSET __A58979FC_xmemory
	call	@__CheckForDebuggerJustMyCode@4
; Line 1002
	push	1
	mov	eax, DWORD PTR __Ptr$[ebp]
	push	eax
	mov	ecx, DWORD PTR __Al$[ebp]
	push	ecx
	call	?deallocate@?$_Default_allocator_traits@V?$allocator@U_Container_proxy@std@@@std@@@std@@SAXAAV?$allocator@U_Container_proxy@std@@@2@QAU_Container_proxy@2@I@Z ; std::_Default_allocator_traits<std::allocator<std::_Container_proxy> >::deallocate
	add	esp, 12					; 0000000cH
; Line 1007
	mov	ecx, DWORD PTR __$EHRec$[ebp]
	mov	DWORD PTR fs:0, ecx
	pop	ecx
	pop	edi
	pop	esi
	pop	ebx
	add	esp, 204				; 000000ccH
	cmp	ebp, esp
	call	__RTC_CheckEsp
	mov	esp, ebp
	pop	ebp
	ret	0
	int	3
	int	3
	int	3
	int	3
	int	3
_TEXT	ENDS
;	COMDAT text$x
text$x	SEGMENT
__ehhandler$??$_Deallocate_plain@V?$allocator@U_Container_proxy@std@@@std@@@std@@YAXAAV?$allocator@U_Container_proxy@std@@@0@QAU_Container_proxy@0@@Z:
	npad	1
	npad	1
	mov	edx, DWORD PTR [esp+8]
	lea	eax, DWORD PTR [edx+12]
	mov	ecx, DWORD PTR [edx-208]
	xor	ecx, eax
	call	@__security_check_cookie@4
	mov	eax, OFFSET __ehfuncinfo$??$_Deallocate_plain@V?$allocator@U_Container_proxy@std@@@std@@@std@@YAXAAV?$allocator@U_Container_proxy@std@@@0@QAU_Container_proxy@0@@Z
	jmp	___CxxFrameHandler3
text$x	ENDS
??$_Deallocate_plain@V?$allocator@U_Container_proxy@std@@@std@@@std@@YAXAAV?$allocator@U_Container_proxy@std@@@0@QAU_Container_proxy@0@@Z ENDP ; std::_Deallocate_plain<std::allocator<std::_Container_proxy> >
; Function compile flags: /Odtp /RTCsu /ZI
;	COMDAT ??$forward@PAU_Container_base12@std@@@std@@YA$$QAPAU_Container_base12@0@AAPAU10@@Z
_TEXT	SEGMENT
__$EHRec$ = -12						; size = 12
__Arg$ = 8						; size = 4
??$forward@PAU_Container_base12@std@@@std@@YA$$QAPAU_Container_base12@0@AAPAU10@@Z PROC ; std::forward<std::_Container_base12 *>, COMDAT
; File C:\Program Files (x86)\Microsoft Visual Studio\2019\Community\VC\Tools\MSVC\14.27.29110\include\type_traits
; Line 1454
	push	ebp
	mov	ebp, esp
	push	-1
	push	__ehhandler$??$forward@PAU_Container_base12@std@@@std@@YA$$QAPAU_Container_base12@0@AAPAU10@@Z
	mov	eax, DWORD PTR fs:0
	push	eax
	sub	esp, 192				; 000000c0H
	push	ebx
	push	esi
	push	edi
	lea	edi, DWORD PTR [ebp-204]
	mov	ecx, 48					; 00000030H
	mov	eax, -858993460				; ccccccccH
	rep stosd
	mov	eax, DWORD PTR ___security_cookie
	xor	eax, ebp
	push	eax
	lea	eax, DWORD PTR __$EHRec$[ebp]
	mov	DWORD PTR fs:0, eax
	mov	ecx, OFFSET __85A9AA98_type_traits
	call	@__CheckForDebuggerJustMyCode@4
; Line 1455
	mov	eax, DWORD PTR __Arg$[ebp]
; Line 1456
	mov	ecx, DWORD PTR __$EHRec$[ebp]
	mov	DWORD PTR fs:0, ecx
	pop	ecx
	pop	edi
	pop	esi
	pop	ebx
	add	esp, 204				; 000000ccH
	cmp	ebp, esp
	call	__RTC_CheckEsp
	mov	esp, ebp
	pop	ebp
	ret	0
	int	3
	int	3
	int	3
	int	3
	int	3
_TEXT	ENDS
;	COMDAT text$x
text$x	SEGMENT
__ehhandler$??$forward@PAU_Container_base12@std@@@std@@YA$$QAPAU_Container_base12@0@AAPAU10@@Z:
	npad	1
	npad	1
	mov	edx, DWORD PTR [esp+8]
	lea	eax, DWORD PTR [edx+12]
	mov	ecx, DWORD PTR [edx-208]
	xor	ecx, eax
	call	@__security_check_cookie@4
	mov	eax, OFFSET __ehfuncinfo$??$forward@PAU_Container_base12@std@@@std@@YA$$QAPAU_Container_base12@0@AAPAU10@@Z
	jmp	___CxxFrameHandler3
text$x	ENDS
??$forward@PAU_Container_base12@std@@@std@@YA$$QAPAU_Container_base12@0@AAPAU10@@Z ENDP ; std::forward<std::_Container_base12 *>
; Function compile flags: /Odtp /RTCsu /ZI
;	COMDAT ??$addressof@U_Container_proxy@std@@@std@@YAPAU_Container_proxy@0@AAU10@@Z
_TEXT	SEGMENT
__$EHRec$ = -12						; size = 12
__Val$ = 8						; size = 4
??$addressof@U_Container_proxy@std@@@std@@YAPAU_Container_proxy@0@AAU10@@Z PROC ; std::addressof<std::_Container_proxy>, COMDAT
; File C:\Program Files (x86)\Microsoft Visual Studio\2019\Community\VC\Tools\MSVC\14.27.29110\include\xstddef
; Line 274
	push	ebp
	mov	ebp, esp
	push	-1
	push	__ehhandler$??$addressof@U_Container_proxy@std@@@std@@YAPAU_Container_proxy@0@AAU10@@Z
	mov	eax, DWORD PTR fs:0
	push	eax
	sub	esp, 192				; 000000c0H
	push	ebx
	push	esi
	push	edi
	lea	edi, DWORD PTR [ebp-204]
	mov	ecx, 48					; 00000030H
	mov	eax, -858993460				; ccccccccH
	rep stosd
	mov	eax, DWORD PTR ___security_cookie
	xor	eax, ebp
	push	eax
	lea	eax, DWORD PTR __$EHRec$[ebp]
	mov	DWORD PTR fs:0, eax
	mov	ecx, OFFSET __38038D2D_xstddef
	call	@__CheckForDebuggerJustMyCode@4
; Line 275
	mov	eax, DWORD PTR __Val$[ebp]
; Line 276
	mov	ecx, DWORD PTR __$EHRec$[ebp]
	mov	DWORD PTR fs:0, ecx
	pop	ecx
	pop	edi
	pop	esi
	pop	ebx
	add	esp, 204				; 000000ccH
	cmp	ebp, esp
	call	__RTC_CheckEsp
	mov	esp, ebp
	pop	ebp
	ret	0
	int	3
	int	3
	int	3
	int	3
	int	3
_TEXT	ENDS
;	COMDAT text$x
text$x	SEGMENT
__ehhandler$??$addressof@U_Container_proxy@std@@@std@@YAPAU_Container_proxy@0@AAU10@@Z:
	npad	1
	npad	1
	mov	edx, DWORD PTR [esp+8]
	lea	eax, DWORD PTR [edx+12]
	mov	ecx, DWORD PTR [edx-208]
	xor	ecx, eax
	call	@__security_check_cookie@4
	mov	eax, OFFSET __ehfuncinfo$??$addressof@U_Container_proxy@std@@@std@@YAPAU_Container_proxy@0@AAU10@@Z
	jmp	___CxxFrameHandler3
text$x	ENDS
??$addressof@U_Container_proxy@std@@@std@@YAPAU_Container_proxy@0@AAU10@@Z ENDP ; std::addressof<std::_Container_proxy>
; Function compile flags: /Odtp /RTCsu /ZI
;	COMDAT ??$addressof@V?$_Deque_val@U?$_Deque_simple_types@VEvent@Keyboard@@@std@@@std@@@std@@YAPAV?$_Deque_val@U?$_Deque_simple_types@VEvent@Keyboard@@@std@@@0@AAV10@@Z
_TEXT	SEGMENT
__$EHRec$ = -12						; size = 12
__Val$ = 8						; size = 4
??$addressof@V?$_Deque_val@U?$_Deque_simple_types@VEvent@Keyboard@@@std@@@std@@@std@@YAPAV?$_Deque_val@U?$_Deque_simple_types@VEvent@Keyboard@@@std@@@0@AAV10@@Z PROC ; std::addressof<std::_Deque_val<std::_Deque_simple_types<Keyboard::Event> > >, COMDAT
; File C:\Program Files (x86)\Microsoft Visual Studio\2019\Community\VC\Tools\MSVC\14.27.29110\include\xstddef
; Line 274
	push	ebp
	mov	ebp, esp
	push	-1
	push	__ehhandler$??$addressof@V?$_Deque_val@U?$_Deque_simple_types@VEvent@Keyboard@@@std@@@std@@@std@@YAPAV?$_Deque_val@U?$_Deque_simple_types@VEvent@Keyboard@@@std@@@0@AAV10@@Z
	mov	eax, DWORD PTR fs:0
	push	eax
	sub	esp, 192				; 000000c0H
	push	ebx
	push	esi
	push	edi
	lea	edi, DWORD PTR [ebp-204]
	mov	ecx, 48					; 00000030H
	mov	eax, -858993460				; ccccccccH
	rep stosd
	mov	eax, DWORD PTR ___security_cookie
	xor	eax, ebp
	push	eax
	lea	eax, DWORD PTR __$EHRec$[ebp]
	mov	DWORD PTR fs:0, eax
	mov	ecx, OFFSET __38038D2D_xstddef
	call	@__CheckForDebuggerJustMyCode@4
; Line 275
	mov	eax, DWORD PTR __Val$[ebp]
; Line 276
	mov	ecx, DWORD PTR __$EHRec$[ebp]
	mov	DWORD PTR fs:0, ecx
	pop	ecx
	pop	edi
	pop	esi
	pop	ebx
	add	esp, 204				; 000000ccH
	cmp	ebp, esp
	call	__RTC_CheckEsp
	mov	esp, ebp
	pop	ebp
	ret	0
	int	3
	int	3
	int	3
	int	3
	int	3
_TEXT	ENDS
;	COMDAT text$x
text$x	SEGMENT
__ehhandler$??$addressof@V?$_Deque_val@U?$_Deque_simple_types@VEvent@Keyboard@@@std@@@std@@@std@@YAPAV?$_Deque_val@U?$_Deque_simple_types@VEvent@Keyboard@@@std@@@0@AAV10@@Z:
	npad	1
	npad	1
	mov	edx, DWORD PTR [esp+8]
	lea	eax, DWORD PTR [edx+12]
	mov	ecx, DWORD PTR [edx-208]
	xor	ecx, eax
	call	@__security_check_cookie@4
	mov	eax, OFFSET __ehfuncinfo$??$addressof@V?$_Deque_val@U?$_Deque_simple_types@VEvent@Keyboard@@@std@@@std@@@std@@YAPAV?$_Deque_val@U?$_Deque_simple_types@VEvent@Keyboard@@@std@@@0@AAV10@@Z
	jmp	___CxxFrameHandler3
text$x	ENDS
??$addressof@V?$_Deque_val@U?$_Deque_simple_types@VEvent@Keyboard@@@std@@@std@@@std@@YAPAV?$_Deque_val@U?$_Deque_simple_types@VEvent@Keyboard@@@std@@@0@AAV10@@Z ENDP ; std::addressof<std::_Deque_val<std::_Deque_simple_types<Keyboard::Event> > >
; Function compile flags: /Odtp /RTCsu /ZI
;	COMDAT ??$_Deallocate@$07$0A@@std@@YAXPAXI@Z
_TEXT	SEGMENT
__$EHRec$ = -12						; size = 12
__Ptr$ = 8						; size = 4
__Bytes$ = 12						; size = 4
??$_Deallocate@$07$0A@@std@@YAXPAXI@Z PROC		; std::_Deallocate<8,0>, COMDAT
; File C:\Program Files (x86)\Microsoft Visual Studio\2019\Community\VC\Tools\MSVC\14.27.29110\include\xmemory
; Line 213
	push	ebp
	mov	ebp, esp
	push	-1
	push	__ehhandler$??$_Deallocate@$07$0A@@std@@YAXPAXI@Z
	mov	eax, DWORD PTR fs:0
	push	eax
	sub	esp, 192				; 000000c0H
	push	ebx
	push	esi
	push	edi
	lea	edi, DWORD PTR [ebp-204]
	mov	ecx, 48					; 00000030H
	mov	eax, -858993460				; ccccccccH
	rep stosd
	mov	eax, DWORD PTR ___security_cookie
	xor	eax, ebp
	push	eax
	lea	eax, DWORD PTR __$EHRec$[ebp]
	mov	DWORD PTR fs:0, eax
	mov	ecx, OFFSET __A58979FC_xmemory
	call	@__CheckForDebuggerJustMyCode@4
; Line 216
	cmp	DWORD PTR __Bytes$[ebp], 4096		; 00001000H
	jb	SHORT $LN2@Deallocate
; Line 217
	lea	eax, DWORD PTR __Bytes$[ebp]
	push	eax
	lea	ecx, DWORD PTR __Ptr$[ebp]
	push	ecx
	call	?_Adjust_manually_vector_aligned@std@@YAXAAPAXAAI@Z ; std::_Adjust_manually_vector_aligned
	add	esp, 8
$LN2@Deallocate:
; Line 221
	mov	eax, DWORD PTR __Bytes$[ebp]
	push	eax
	mov	ecx, DWORD PTR __Ptr$[ebp]
	push	ecx
	call	??3@YAXPAXI@Z				; operator delete
	add	esp, 8
; Line 222
	mov	ecx, DWORD PTR __$EHRec$[ebp]
	mov	DWORD PTR fs:0, ecx
	pop	ecx
	pop	edi
	pop	esi
	pop	ebx
	add	esp, 204				; 000000ccH
	cmp	ebp, esp
	call	__RTC_CheckEsp
	mov	esp, ebp
	pop	ebp
	ret	0
	int	3
	int	3
	int	3
	int	3
	int	3
_TEXT	ENDS
;	COMDAT text$x
text$x	SEGMENT
__ehhandler$??$_Deallocate@$07$0A@@std@@YAXPAXI@Z:
	npad	1
	npad	1
	mov	edx, DWORD PTR [esp+8]
	lea	eax, DWORD PTR [edx+12]
	mov	ecx, DWORD PTR [edx-208]
	xor	ecx, eax
	call	@__security_check_cookie@4
	mov	eax, OFFSET __ehfuncinfo$??$_Deallocate@$07$0A@@std@@YAXPAXI@Z
	jmp	___CxxFrameHandler3
text$x	ENDS
??$_Deallocate@$07$0A@@std@@YAXPAXI@Z ENDP		; std::_Deallocate<8,0>
; Function compile flags: /Odtp /RTCsu /ZI
;	COMDAT ??$addressof@V?$_Deque_val@U?$_Deque_simple_types@D@std@@@std@@@std@@YAPAV?$_Deque_val@U?$_Deque_simple_types@D@std@@@0@AAV10@@Z
_TEXT	SEGMENT
__$EHRec$ = -12						; size = 12
__Val$ = 8						; size = 4
??$addressof@V?$_Deque_val@U?$_Deque_simple_types@D@std@@@std@@@std@@YAPAV?$_Deque_val@U?$_Deque_simple_types@D@std@@@0@AAV10@@Z PROC ; std::addressof<std::_Deque_val<std::_Deque_simple_types<char> > >, COMDAT
; File C:\Program Files (x86)\Microsoft Visual Studio\2019\Community\VC\Tools\MSVC\14.27.29110\include\xstddef
; Line 274
	push	ebp
	mov	ebp, esp
	push	-1
	push	__ehhandler$??$addressof@V?$_Deque_val@U?$_Deque_simple_types@D@std@@@std@@@std@@YAPAV?$_Deque_val@U?$_Deque_simple_types@D@std@@@0@AAV10@@Z
	mov	eax, DWORD PTR fs:0
	push	eax
	sub	esp, 192				; 000000c0H
	push	ebx
	push	esi
	push	edi
	lea	edi, DWORD PTR [ebp-204]
	mov	ecx, 48					; 00000030H
	mov	eax, -858993460				; ccccccccH
	rep stosd
	mov	eax, DWORD PTR ___security_cookie
	xor	eax, ebp
	push	eax
	lea	eax, DWORD PTR __$EHRec$[ebp]
	mov	DWORD PTR fs:0, eax
	mov	ecx, OFFSET __38038D2D_xstddef
	call	@__CheckForDebuggerJustMyCode@4
; Line 275
	mov	eax, DWORD PTR __Val$[ebp]
; Line 276
	mov	ecx, DWORD PTR __$EHRec$[ebp]
	mov	DWORD PTR fs:0, ecx
	pop	ecx
	pop	edi
	pop	esi
	pop	ebx
	add	esp, 204				; 000000ccH
	cmp	ebp, esp
	call	__RTC_CheckEsp
	mov	esp, ebp
	pop	ebp
	ret	0
	int	3
	int	3
	int	3
	int	3
	int	3
_TEXT	ENDS
;	COMDAT text$x
text$x	SEGMENT
__ehhandler$??$addressof@V?$_Deque_val@U?$_Deque_simple_types@D@std@@@std@@@std@@YAPAV?$_Deque_val@U?$_Deque_simple_types@D@std@@@0@AAV10@@Z:
	npad	1
	npad	1
	mov	edx, DWORD PTR [esp+8]
	lea	eax, DWORD PTR [edx+12]
	mov	ecx, DWORD PTR [edx-208]
	xor	ecx, eax
	call	@__security_check_cookie@4
	mov	eax, OFFSET __ehfuncinfo$??$addressof@V?$_Deque_val@U?$_Deque_simple_types@D@std@@@std@@@std@@YAPAV?$_Deque_val@U?$_Deque_simple_types@D@std@@@0@AAV10@@Z
	jmp	___CxxFrameHandler3
text$x	ENDS
??$addressof@V?$_Deque_val@U?$_Deque_simple_types@D@std@@@std@@@std@@YAPAV?$_Deque_val@U?$_Deque_simple_types@D@std@@@0@AAV10@@Z ENDP ; std::addressof<std::_Deque_val<std::_Deque_simple_types<char> > >
; Function compile flags: /Odtp /RTCsu /ZI
;	COMDAT ??$_Allocate@$07U_Default_allocate_traits@std@@$0A@@std@@YAPAXI@Z
_TEXT	SEGMENT
__Bytes$ = 8						; size = 4
??$_Allocate@$07U_Default_allocate_traits@std@@$0A@@std@@YAPAXI@Z PROC ; std::_Allocate<8,std::_Default_allocate_traits,0>, COMDAT
; File C:\Program Files (x86)\Microsoft Visual Studio\2019\Community\VC\Tools\MSVC\14.27.29110\include\xmemory
; Line 197
	push	ebp
	mov	ebp, esp
	sub	esp, 192				; 000000c0H
	push	ebx
	push	esi
	push	edi
	lea	edi, DWORD PTR [ebp-192]
	mov	ecx, 48					; 00000030H
	mov	eax, -858993460				; ccccccccH
	rep stosd
	mov	ecx, OFFSET __A58979FC_xmemory
	call	@__CheckForDebuggerJustMyCode@4
; Line 200
	cmp	DWORD PTR __Bytes$[ebp], 4096		; 00001000H
	jb	SHORT $LN2@Allocate
; Line 201
	mov	eax, DWORD PTR __Bytes$[ebp]
	push	eax
	call	??$_Allocate_manually_vector_aligned@U_Default_allocate_traits@std@@@std@@YAPAXI@Z ; std::_Allocate_manually_vector_aligned<std::_Default_allocate_traits>
	add	esp, 4
	jmp	SHORT $LN1@Allocate
$LN2@Allocate:
; Line 205
	cmp	DWORD PTR __Bytes$[ebp], 0
	je	SHORT $LN3@Allocate
; Line 206
	mov	eax, DWORD PTR __Bytes$[ebp]
	push	eax
	call	?_Allocate@_Default_allocate_traits@std@@SAPAXI@Z ; std::_Default_allocate_traits::_Allocate
	add	esp, 4
	jmp	SHORT $LN1@Allocate
$LN3@Allocate:
; Line 209
	xor	eax, eax
$LN1@Allocate:
; Line 210
	pop	edi
	pop	esi
	pop	ebx
	add	esp, 192				; 000000c0H
	cmp	ebp, esp
	call	__RTC_CheckEsp
	mov	esp, ebp
	pop	ebp
	ret	0
??$_Allocate@$07U_Default_allocate_traits@std@@$0A@@std@@YAPAXI@Z ENDP ; std::_Allocate<8,std::_Default_allocate_traits,0>
_TEXT	ENDS
; Function compile flags: /Odtp /RTCsu /ZI
;	COMDAT ??$_Get_size_of_n@$07@std@@YAII@Z
_TEXT	SEGMENT
__Max_possible$1 = -20					; size = 4
__Overflow_is_possible$ = -5				; size = 1
__Count$ = 8						; size = 4
??$_Get_size_of_n@$07@std@@YAII@Z PROC			; std::_Get_size_of_n<8>, COMDAT
; File C:\Program Files (x86)\Microsoft Visual Studio\2019\Community\VC\Tools\MSVC\14.27.29110\include\xmemory
; Line 55
	push	ebp
	mov	ebp, esp
	sub	esp, 216				; 000000d8H
	push	ebx
	push	esi
	push	edi
	lea	edi, DWORD PTR [ebp-216]
	mov	ecx, 54					; 00000036H
	mov	eax, -858993460				; ccccccccH
	rep stosd
	mov	ecx, OFFSET __A58979FC_xmemory
	call	@__CheckForDebuggerJustMyCode@4
; Line 56
	mov	BYTE PTR __Overflow_is_possible$[ebp], 1
; Line 59
	mov	DWORD PTR __Max_possible$1[ebp], 536870911 ; 1fffffffH
; Line 60
	cmp	DWORD PTR __Count$[ebp], 536870911	; 1fffffffH
	jbe	SHORT $LN2@Get_size_o
; Line 61
	call	?_Throw_bad_array_new_length@std@@YAXXZ	; std::_Throw_bad_array_new_length
$LN2@Get_size_o:
; Line 65
	mov	eax, DWORD PTR __Count$[ebp]
	shl	eax, 3
$LN3@Get_size_o:
; Line 66
	pop	edi
	pop	esi
	pop	ebx
	add	esp, 216				; 000000d8H
	cmp	ebp, esp
	call	__RTC_CheckEsp
	mov	esp, ebp
	pop	ebp
	ret	0
??$_Get_size_of_n@$07@std@@YAII@Z ENDP			; std::_Get_size_of_n<8>
_TEXT	ENDS
; Function compile flags: /Odtp /RTCsu /ZI
;	COMDAT ??$_Pocma@V?$allocator@VEvent@Keyboard@@@std@@@std@@YAXAAV?$allocator@VEvent@Keyboard@@@0@0@Z
_TEXT	SEGMENT
__$EHRec$ = -12						; size = 12
__Left$ = 8						; size = 4
__Right$ = 12						; size = 4
??$_Pocma@V?$allocator@VEvent@Keyboard@@@std@@@std@@YAXAAV?$allocator@VEvent@Keyboard@@@0@0@Z PROC ; std::_Pocma<std::allocator<Keyboard::Event> >, COMDAT
; File C:\Program Files (x86)\Microsoft Visual Studio\2019\Community\VC\Tools\MSVC\14.27.29110\include\xmemory
; Line 901
	push	ebp
	mov	ebp, esp
	push	-1
	push	__ehhandler$??$_Pocma@V?$allocator@VEvent@Keyboard@@@std@@@std@@YAXAAV?$allocator@VEvent@Keyboard@@@0@0@Z
	mov	eax, DWORD PTR fs:0
	push	eax
	sub	esp, 192				; 000000c0H
	push	ebx
	push	esi
	push	edi
	lea	edi, DWORD PTR [ebp-204]
	mov	ecx, 48					; 00000030H
	mov	eax, -858993460				; ccccccccH
	rep stosd
	mov	eax, DWORD PTR ___security_cookie
	xor	eax, ebp
	push	eax
	lea	eax, DWORD PTR __$EHRec$[ebp]
	mov	DWORD PTR fs:0, eax
	mov	ecx, OFFSET __A58979FC_xmemory
	call	@__CheckForDebuggerJustMyCode@4
; Line 903
	mov	eax, DWORD PTR __Right$[ebp]
	push	eax
	call	??$move@AAV?$allocator@VEvent@Keyboard@@@std@@@std@@YA$$QAV?$allocator@VEvent@Keyboard@@@0@AAV10@@Z ; std::move<std::allocator<Keyboard::Event> &>
	add	esp, 4
; Line 905
	mov	ecx, DWORD PTR __$EHRec$[ebp]
	mov	DWORD PTR fs:0, ecx
	pop	ecx
	pop	edi
	pop	esi
	pop	ebx
	add	esp, 204				; 000000ccH
	cmp	ebp, esp
	call	__RTC_CheckEsp
	mov	esp, ebp
	pop	ebp
	ret	0
	int	3
	int	3
	int	3
	int	3
	int	3
_TEXT	ENDS
;	COMDAT text$x
text$x	SEGMENT
__ehhandler$??$_Pocma@V?$allocator@VEvent@Keyboard@@@std@@@std@@YAXAAV?$allocator@VEvent@Keyboard@@@0@0@Z:
	npad	1
	npad	1
	mov	edx, DWORD PTR [esp+8]
	lea	eax, DWORD PTR [edx+12]
	mov	ecx, DWORD PTR [edx-208]
	xor	ecx, eax
	call	@__security_check_cookie@4
	mov	eax, OFFSET __ehfuncinfo$??$_Pocma@V?$allocator@VEvent@Keyboard@@@std@@@std@@YAXAAV?$allocator@VEvent@Keyboard@@@0@0@Z
	jmp	___CxxFrameHandler3
text$x	ENDS
??$_Pocma@V?$allocator@VEvent@Keyboard@@@std@@@std@@YAXAAV?$allocator@VEvent@Keyboard@@@0@0@Z ENDP ; std::_Pocma<std::allocator<Keyboard::Event> >
; Function compile flags: /Odtp /RTCsu /ZI
;	COMDAT ??$_Emplace_back_internal@VEvent@Keyboard@@@?$deque@VEvent@Keyboard@@V?$allocator@VEvent@Keyboard@@@std@@@std@@AAEX$$QAVEvent@Keyboard@@@Z
_TEXT	SEGMENT
tv163 = -232						; size = 4
tv86 = -232						; size = 4
__Block$ = -32						; size = 4
__Newoff$ = -20						; size = 4
_this$ = -8						; size = 4
_<_Vals_0>$ = 8						; size = 4
??$_Emplace_back_internal@VEvent@Keyboard@@@?$deque@VEvent@Keyboard@@V?$allocator@VEvent@Keyboard@@@std@@@std@@AAEX$$QAVEvent@Keyboard@@@Z PROC ; std::deque<Keyboard::Event,std::allocator<Keyboard::Event> >::_Emplace_back_internal<Keyboard::Event>, COMDAT
; _this$ = ecx
; File C:\Program Files (x86)\Microsoft Visual Studio\2019\Community\VC\Tools\MSVC\14.27.29110\include\deque
; Line 1113
	push	ebp
	mov	ebp, esp
	sub	esp, 232				; 000000e8H
	push	ebx
	push	esi
	push	edi
	push	ecx
	lea	edi, DWORD PTR [ebp-232]
	mov	ecx, 58					; 0000003aH
	mov	eax, -858993460				; ccccccccH
	rep stosd
	pop	ecx
	mov	DWORD PTR _this$[ebp], ecx
	mov	ecx, OFFSET __0657B1E2_deque
	call	@__CheckForDebuggerJustMyCode@4
; Line 1114
	mov	ecx, DWORD PTR _this$[ebp]
	call	?_Myoff@?$deque@VEvent@Keyboard@@V?$allocator@VEvent@Keyboard@@@std@@@std@@AAEAAIXZ ; std::deque<Keyboard::Event,std::allocator<Keyboard::Event> >::_Myoff
	mov	esi, eax
	mov	ecx, DWORD PTR _this$[ebp]
	call	?_Mysize@?$deque@VEvent@Keyboard@@V?$allocator@VEvent@Keyboard@@@std@@@std@@AAEAAIXZ ; std::deque<Keyboard::Event,std::allocator<Keyboard::Event> >::_Mysize
	mov	ecx, DWORD PTR [esi]
	add	ecx, DWORD PTR [eax]
	mov	eax, ecx
	xor	edx, edx
	mov	ecx, 2
	div	ecx
	test	edx, edx
	jne	SHORT $LN2@Emplace_ba
	mov	ecx, DWORD PTR _this$[ebp]
	call	?_Mapsize@?$deque@VEvent@Keyboard@@V?$allocator@VEvent@Keyboard@@@std@@@std@@AAEAAIXZ ; std::deque<Keyboard::Event,std::allocator<Keyboard::Event> >::_Mapsize
	mov	esi, eax
	mov	ecx, DWORD PTR _this$[ebp]
	call	?_Mysize@?$deque@VEvent@Keyboard@@V?$allocator@VEvent@Keyboard@@@std@@@std@@AAEAAIXZ ; std::deque<Keyboard::Event,std::allocator<Keyboard::Event> >::_Mysize
	mov	eax, DWORD PTR [eax]
	add	eax, 2
	shr	eax, 1
	cmp	DWORD PTR [esi], eax
	ja	SHORT $LN2@Emplace_ba
	push	1
	mov	ecx, DWORD PTR _this$[ebp]
	call	?_Growmap@?$deque@VEvent@Keyboard@@V?$allocator@VEvent@Keyboard@@@std@@@std@@AAEXI@Z ; std::deque<Keyboard::Event,std::allocator<Keyboard::Event> >::_Growmap
$LN2@Emplace_ba:
	mov	ecx, DWORD PTR _this$[ebp]
	call	?_Myoff@?$deque@VEvent@Keyboard@@V?$allocator@VEvent@Keyboard@@@std@@@std@@AAEAAIXZ ; std::deque<Keyboard::Event,std::allocator<Keyboard::Event> >::_Myoff
	mov	DWORD PTR tv86[ebp], eax
	mov	ecx, DWORD PTR _this$[ebp]
	call	?_Mapsize@?$deque@VEvent@Keyboard@@V?$allocator@VEvent@Keyboard@@@std@@@std@@AAEAAIXZ ; std::deque<Keyboard::Event,std::allocator<Keyboard::Event> >::_Mapsize
	mov	eax, DWORD PTR [eax]
	lea	ecx, DWORD PTR [eax+eax-1]
	mov	edx, DWORD PTR tv86[ebp]
	and	ecx, DWORD PTR [edx]
	mov	eax, DWORD PTR tv86[ebp]
	mov	DWORD PTR [eax], ecx
	mov	ecx, DWORD PTR _this$[ebp]
	call	?_Myoff@?$deque@VEvent@Keyboard@@V?$allocator@VEvent@Keyboard@@@std@@@std@@AAEAAIXZ ; std::deque<Keyboard::Event,std::allocator<Keyboard::Event> >::_Myoff
	mov	esi, eax
	mov	ecx, DWORD PTR _this$[ebp]
	call	?_Mysize@?$deque@VEvent@Keyboard@@V?$allocator@VEvent@Keyboard@@@std@@@std@@AAEAAIXZ ; std::deque<Keyboard::Event,std::allocator<Keyboard::Event> >::_Mysize
	mov	ecx, DWORD PTR [esi]
	add	ecx, DWORD PTR [eax]
	mov	DWORD PTR __Newoff$[ebp], ecx
	mov	eax, DWORD PTR __Newoff$[ebp]
	push	eax
	mov	ecx, DWORD PTR _this$[ebp]
	call	?_Getblock@?$deque@VEvent@Keyboard@@V?$allocator@VEvent@Keyboard@@@std@@@std@@ABEII@Z ; std::deque<Keyboard::Event,std::allocator<Keyboard::Event> >::_Getblock
	mov	DWORD PTR __Block$[ebp], eax
	mov	ecx, DWORD PTR _this$[ebp]
	call	?_Map@?$deque@VEvent@Keyboard@@V?$allocator@VEvent@Keyboard@@@std@@@std@@AAEAAPAPAVEvent@Keyboard@@XZ ; std::deque<Keyboard::Event,std::allocator<Keyboard::Event> >::_Map
	mov	eax, DWORD PTR [eax]
	mov	ecx, DWORD PTR __Block$[ebp]
	cmp	DWORD PTR [eax+ecx*4], 0
	jne	SHORT $LN3@Emplace_ba
	push	2
	mov	ecx, DWORD PTR _this$[ebp]
	call	?_Getal@?$deque@VEvent@Keyboard@@V?$allocator@VEvent@Keyboard@@@std@@@std@@AAEAAV?$allocator@VEvent@Keyboard@@@2@XZ ; std::deque<Keyboard::Event,std::allocator<Keyboard::Event> >::_Getal
	mov	ecx, eax
	call	?allocate@?$allocator@VEvent@Keyboard@@@std@@QAEPAVEvent@Keyboard@@I@Z ; std::allocator<Keyboard::Event>::allocate
	mov	esi, eax
	mov	ecx, DWORD PTR _this$[ebp]
	call	?_Map@?$deque@VEvent@Keyboard@@V?$allocator@VEvent@Keyboard@@@std@@@std@@AAEAAPAPAVEvent@Keyboard@@XZ ; std::deque<Keyboard::Event,std::allocator<Keyboard::Event> >::_Map
	mov	eax, DWORD PTR [eax]
	mov	ecx, DWORD PTR __Block$[ebp]
	mov	DWORD PTR [eax+ecx*4], esi
$LN3@Emplace_ba:
; Line 1115
	mov	eax, DWORD PTR _<_Vals_0>$[ebp]
	push	eax
	call	??$forward@VEvent@Keyboard@@@std@@YA$$QAVEvent@Keyboard@@AAV12@@Z ; std::forward<Keyboard::Event>
	add	esp, 4
	push	eax
	mov	ecx, DWORD PTR _this$[ebp]
	call	?_Map@?$deque@VEvent@Keyboard@@V?$allocator@VEvent@Keyboard@@@std@@@std@@AAEAAPAPAVEvent@Keyboard@@XZ ; std::deque<Keyboard::Event,std::allocator<Keyboard::Event> >::_Map
	mov	ecx, DWORD PTR [eax]
	mov	eax, DWORD PTR __Newoff$[ebp]
	xor	edx, edx
	mov	esi, 2
	div	esi
	mov	eax, DWORD PTR __Block$[ebp]
	mov	ecx, DWORD PTR [ecx+eax*4]
	lea	edx, DWORD PTR [ecx+edx*8]
	push	edx
	call	??$_Unfancy@VEvent@Keyboard@@@std@@YAPAVEvent@Keyboard@@PAV12@@Z ; std::_Unfancy<Keyboard::Event>
	add	esp, 4
	push	eax
	mov	ecx, DWORD PTR _this$[ebp]
	call	?_Getal@?$deque@VEvent@Keyboard@@V?$allocator@VEvent@Keyboard@@@std@@@std@@AAEAAV?$allocator@VEvent@Keyboard@@@2@XZ ; std::deque<Keyboard::Event,std::allocator<Keyboard::Event> >::_Getal
	push	eax
	call	??$construct@VEvent@Keyboard@@V12@@?$_Default_allocator_traits@V?$allocator@VEvent@Keyboard@@@std@@@std@@SAXAAV?$allocator@VEvent@Keyboard@@@1@QAVEvent@Keyboard@@$$QAV34@@Z ; std::_Default_allocator_traits<std::allocator<Keyboard::Event> >::construct<Keyboard::Event,Keyboard::Event>
	add	esp, 12					; 0000000cH
; Line 1116
	mov	ecx, DWORD PTR _this$[ebp]
	call	?_Mysize@?$deque@VEvent@Keyboard@@V?$allocator@VEvent@Keyboard@@@std@@@std@@AAEAAIXZ ; std::deque<Keyboard::Event,std::allocator<Keyboard::Event> >::_Mysize
	mov	DWORD PTR tv163[ebp], eax
	mov	eax, DWORD PTR tv163[ebp]
	mov	ecx, DWORD PTR [eax]
	add	ecx, 1
	mov	edx, DWORD PTR tv163[ebp]
	mov	DWORD PTR [edx], ecx
; Line 1117
	pop	edi
	pop	esi
	pop	ebx
	add	esp, 232				; 000000e8H
	cmp	ebp, esp
	call	__RTC_CheckEsp
	mov	esp, ebp
	pop	ebp
	ret	4
??$_Emplace_back_internal@VEvent@Keyboard@@@?$deque@VEvent@Keyboard@@V?$allocator@VEvent@Keyboard@@@std@@@std@@AAEX$$QAVEvent@Keyboard@@@Z ENDP ; std::deque<Keyboard::Event,std::allocator<Keyboard::Event> >::_Emplace_back_internal<Keyboard::Event>
_TEXT	ENDS
; Function compile flags: /Odtp /RTCsu /ZI
;	COMDAT ??0?$_Deque_unchecked_iterator@V?$_Deque_val@U?$_Deque_simple_types@VEvent@Keyboard@@@std@@@std@@@std@@QAE@IPBU_Container_base12@1@@Z
_TEXT	SEGMENT
_this$ = -8						; size = 4
___param0$ = 8						; size = 4
___param1$ = 12						; size = 4
??0?$_Deque_unchecked_iterator@V?$_Deque_val@U?$_Deque_simple_types@VEvent@Keyboard@@@std@@@std@@@std@@QAE@IPBU_Container_base12@1@@Z PROC ; std::_Deque_unchecked_iterator<std::_Deque_val<std::_Deque_simple_types<Keyboard::Event> > >::_Deque_unchecked_iterator<std::_Deque_val<std::_Deque_simple_types<Keyboard::Event> > >, COMDAT
; _this$ = ecx
	push	ebp
	mov	ebp, esp
	sub	esp, 204				; 000000ccH
	push	ebx
	push	esi
	push	edi
	push	ecx
	lea	edi, DWORD PTR [ebp-204]
	mov	ecx, 51					; 00000033H
	mov	eax, -858993460				; ccccccccH
	rep stosd
	pop	ecx
	mov	DWORD PTR _this$[ebp], ecx
	mov	eax, DWORD PTR ___param1$[ebp]
	push	eax
	mov	ecx, DWORD PTR ___param0$[ebp]
	push	ecx
	mov	ecx, DWORD PTR _this$[ebp]
	call	??0?$_Deque_unchecked_const_iterator@V?$_Deque_val@U?$_Deque_simple_types@VEvent@Keyboard@@@std@@@std@@@std@@QAE@IPBU_Container_base12@1@@Z ; std::_Deque_unchecked_const_iterator<std::_Deque_val<std::_Deque_simple_types<Keyboard::Event> > >::_Deque_unchecked_const_iterator<std::_Deque_val<std::_Deque_simple_types<Keyboard::Event> > >
	mov	eax, DWORD PTR _this$[ebp]
	pop	edi
	pop	esi
	pop	ebx
	add	esp, 204				; 000000ccH
	cmp	ebp, esp
	call	__RTC_CheckEsp
	mov	esp, ebp
	pop	ebp
	ret	8
??0?$_Deque_unchecked_iterator@V?$_Deque_val@U?$_Deque_simple_types@VEvent@Keyboard@@@std@@@std@@@std@@QAE@IPBU_Container_base12@1@@Z ENDP ; std::_Deque_unchecked_iterator<std::_Deque_val<std::_Deque_simple_types<Keyboard::Event> > >::_Deque_unchecked_iterator<std::_Deque_val<std::_Deque_simple_types<Keyboard::Event> > >
_TEXT	ENDS
; Function compile flags: /Odtp /RTCsu /ZI
;	COMDAT ??D?$_Deque_unchecked_iterator@V?$_Deque_val@U?$_Deque_simple_types@VEvent@Keyboard@@@std@@@std@@@std@@QBEAAVEvent@Keyboard@@XZ
_TEXT	SEGMENT
_this$ = -8						; size = 4
??D?$_Deque_unchecked_iterator@V?$_Deque_val@U?$_Deque_simple_types@VEvent@Keyboard@@@std@@@std@@@std@@QBEAAVEvent@Keyboard@@XZ PROC ; std::_Deque_unchecked_iterator<std::_Deque_val<std::_Deque_simple_types<Keyboard::Event> > >::operator*, COMDAT
; _this$ = ecx
; File C:\Program Files (x86)\Microsoft Visual Studio\2019\Community\VC\Tools\MSVC\14.27.29110\include\deque
; Line 170
	push	ebp
	mov	ebp, esp
	sub	esp, 204				; 000000ccH
	push	ebx
	push	esi
	push	edi
	push	ecx
	lea	edi, DWORD PTR [ebp-204]
	mov	ecx, 51					; 00000033H
	mov	eax, -858993460				; ccccccccH
	rep stosd
	pop	ecx
	mov	DWORD PTR _this$[ebp], ecx
	mov	ecx, OFFSET __0657B1E2_deque
	call	@__CheckForDebuggerJustMyCode@4
; Line 171
	mov	ecx, DWORD PTR _this$[ebp]
	call	??D?$_Deque_unchecked_const_iterator@V?$_Deque_val@U?$_Deque_simple_types@VEvent@Keyboard@@@std@@@std@@@std@@QBEABVEvent@Keyboard@@XZ ; std::_Deque_unchecked_const_iterator<std::_Deque_val<std::_Deque_simple_types<Keyboard::Event> > >::operator*
; Line 172
	pop	edi
	pop	esi
	pop	ebx
	add	esp, 204				; 000000ccH
	cmp	ebp, esp
	call	__RTC_CheckEsp
	mov	esp, ebp
	pop	ebp
	ret	0
??D?$_Deque_unchecked_iterator@V?$_Deque_val@U?$_Deque_simple_types@VEvent@Keyboard@@@std@@@std@@@std@@QBEAAVEvent@Keyboard@@XZ ENDP ; std::_Deque_unchecked_iterator<std::_Deque_val<std::_Deque_simple_types<Keyboard::Event> > >::operator*
_TEXT	ENDS
; Function compile flags: /Odtp /RTCsu /ZI
;	COMDAT ??D?$_Deque_unchecked_const_iterator@V?$_Deque_val@U?$_Deque_simple_types@VEvent@Keyboard@@@std@@@std@@@std@@QBEABVEvent@Keyboard@@XZ
_TEXT	SEGMENT
__Off$ = -32						; size = 4
__Block$ = -20						; size = 4
_this$ = -8						; size = 4
??D?$_Deque_unchecked_const_iterator@V?$_Deque_val@U?$_Deque_simple_types@VEvent@Keyboard@@@std@@@std@@@std@@QBEABVEvent@Keyboard@@XZ PROC ; std::_Deque_unchecked_const_iterator<std::_Deque_val<std::_Deque_simple_types<Keyboard::Event> > >::operator*, COMDAT
; _this$ = ecx
; File C:\Program Files (x86)\Microsoft Visual Studio\2019\Community\VC\Tools\MSVC\14.27.29110\include\deque
; Line 54
	push	ebp
	mov	ebp, esp
	sub	esp, 228				; 000000e4H
	push	ebx
	push	esi
	push	edi
	push	ecx
	lea	edi, DWORD PTR [ebp-228]
	mov	ecx, 57					; 00000039H
	mov	eax, -858993460				; ccccccccH
	rep stosd
	pop	ecx
	mov	DWORD PTR _this$[ebp], ecx
	mov	ecx, OFFSET __0657B1E2_deque
	call	@__CheckForDebuggerJustMyCode@4
; Line 55
	mov	eax, DWORD PTR _this$[ebp]
	mov	ecx, DWORD PTR [eax+4]
	push	ecx
	mov	edx, DWORD PTR _this$[ebp]
	mov	ecx, DWORD PTR [edx]
	call	?_Getblock@?$_Deque_val@U?$_Deque_simple_types@VEvent@Keyboard@@@std@@@std@@QBEII@Z ; std::_Deque_val<std::_Deque_simple_types<Keyboard::Event> >::_Getblock
	mov	DWORD PTR __Block$[ebp], eax
; Line 56
	mov	eax, DWORD PTR _this$[ebp]
	mov	eax, DWORD PTR [eax+4]
	xor	edx, edx
	mov	ecx, 2
	div	ecx
	mov	DWORD PTR __Off$[ebp], edx
; Line 57
	mov	eax, DWORD PTR _this$[ebp]
	mov	ecx, DWORD PTR [eax]
	mov	edx, DWORD PTR [ecx+4]
	mov	eax, DWORD PTR __Block$[ebp]
	mov	ecx, DWORD PTR [edx+eax*4]
	mov	edx, DWORD PTR __Off$[ebp]
	lea	eax, DWORD PTR [ecx+edx*8]
; Line 58
	pop	edi
	pop	esi
	pop	ebx
	add	esp, 228				; 000000e4H
	cmp	ebp, esp
	call	__RTC_CheckEsp
	mov	esp, ebp
	pop	ebp
	ret	0
??D?$_Deque_unchecked_const_iterator@V?$_Deque_val@U?$_Deque_simple_types@VEvent@Keyboard@@@std@@@std@@@std@@QBEABVEvent@Keyboard@@XZ ENDP ; std::_Deque_unchecked_const_iterator<std::_Deque_val<std::_Deque_simple_types<Keyboard::Event> > >::operator*
_TEXT	ENDS
; Function compile flags: /Odtp /RTCsu /ZI
;	COMDAT ??0?$_Deque_unchecked_const_iterator@V?$_Deque_val@U?$_Deque_simple_types@VEvent@Keyboard@@@std@@@std@@@std@@QAE@IPBU_Container_base12@1@@Z
_TEXT	SEGMENT
_this$ = -20						; size = 4
__$EHRec$ = -12						; size = 12
__Off$ = 8						; size = 4
__Pdeque$ = 12						; size = 4
??0?$_Deque_unchecked_const_iterator@V?$_Deque_val@U?$_Deque_simple_types@VEvent@Keyboard@@@std@@@std@@@std@@QAE@IPBU_Container_base12@1@@Z PROC ; std::_Deque_unchecked_const_iterator<std::_Deque_val<std::_Deque_simple_types<Keyboard::Event> > >::_Deque_unchecked_const_iterator<std::_Deque_val<std::_Deque_simple_types<Keyboard::Event> > >, COMDAT
; _this$ = ecx
; File C:\Program Files (x86)\Microsoft Visual Studio\2019\Community\VC\Tools\MSVC\14.27.29110\include\deque
; Line 52
	push	ebp
	mov	ebp, esp
	push	-1
	push	__ehhandler$??0?$_Deque_unchecked_const_iterator@V?$_Deque_val@U?$_Deque_simple_types@VEvent@Keyboard@@@std@@@std@@@std@@QAE@IPBU_Container_base12@1@@Z
	mov	eax, DWORD PTR fs:0
	push	eax
	sub	esp, 204				; 000000ccH
	push	ebx
	push	esi
	push	edi
	push	ecx
	lea	edi, DWORD PTR [ebp-216]
	mov	ecx, 51					; 00000033H
	mov	eax, -858993460				; ccccccccH
	rep stosd
	pop	ecx
	mov	eax, DWORD PTR ___security_cookie
	xor	eax, ebp
	push	eax
	lea	eax, DWORD PTR __$EHRec$[ebp]
	mov	DWORD PTR fs:0, eax
	mov	DWORD PTR _this$[ebp], ecx
	mov	ecx, OFFSET __0657B1E2_deque
	call	@__CheckForDebuggerJustMyCode@4
	mov	eax, DWORD PTR _this$[ebp]
	mov	ecx, DWORD PTR __Pdeque$[ebp]
	mov	DWORD PTR [eax], ecx
	mov	eax, DWORD PTR _this$[ebp]
	mov	ecx, DWORD PTR __Off$[ebp]
	mov	DWORD PTR [eax+4], ecx
	mov	eax, DWORD PTR _this$[ebp]
	mov	ecx, DWORD PTR __$EHRec$[ebp]
	mov	DWORD PTR fs:0, ecx
	pop	ecx
	pop	edi
	pop	esi
	pop	ebx
	add	esp, 216				; 000000d8H
	cmp	ebp, esp
	call	__RTC_CheckEsp
	mov	esp, ebp
	pop	ebp
	ret	8
	int	3
	int	3
	int	3
	int	3
	int	3
_TEXT	ENDS
;	COMDAT text$x
text$x	SEGMENT
__ehhandler$??0?$_Deque_unchecked_const_iterator@V?$_Deque_val@U?$_Deque_simple_types@VEvent@Keyboard@@@std@@@std@@@std@@QAE@IPBU_Container_base12@1@@Z:
	npad	1
	npad	1
	mov	edx, DWORD PTR [esp+8]
	lea	eax, DWORD PTR [edx+12]
	mov	ecx, DWORD PTR [edx-220]
	xor	ecx, eax
	call	@__security_check_cookie@4
	mov	eax, OFFSET __ehfuncinfo$??0?$_Deque_unchecked_const_iterator@V?$_Deque_val@U?$_Deque_simple_types@VEvent@Keyboard@@@std@@@std@@@std@@QAE@IPBU_Container_base12@1@@Z
	jmp	___CxxFrameHandler3
text$x	ENDS
??0?$_Deque_unchecked_const_iterator@V?$_Deque_val@U?$_Deque_simple_types@VEvent@Keyboard@@@std@@@std@@@std@@QAE@IPBU_Container_base12@1@@Z ENDP ; std::_Deque_unchecked_const_iterator<std::_Deque_val<std::_Deque_simple_types<Keyboard::Event> > >::_Deque_unchecked_const_iterator<std::_Deque_val<std::_Deque_simple_types<Keyboard::Event> > >
; Function compile flags: /Odtp /RTCsu /ZI
;	COMDAT ??$destroy@VEvent@Keyboard@@@?$_Default_allocator_traits@V?$allocator@VEvent@Keyboard@@@std@@@std@@SAXAAV?$allocator@VEvent@Keyboard@@@1@QAVEvent@Keyboard@@@Z
_TEXT	SEGMENT
___formal$ = 8						; size = 4
__Ptr$ = 12						; size = 4
??$destroy@VEvent@Keyboard@@@?$_Default_allocator_traits@V?$allocator@VEvent@Keyboard@@@std@@@std@@SAXAAV?$allocator@VEvent@Keyboard@@@1@QAVEvent@Keyboard@@@Z PROC ; std::_Default_allocator_traits<std::allocator<Keyboard::Event> >::destroy<Keyboard::Event>, COMDAT
; File C:\Program Files (x86)\Microsoft Visual Studio\2019\Community\VC\Tools\MSVC\14.27.29110\include\xmemory
; Line 698
	push	ebp
	mov	ebp, esp
	sub	esp, 192				; 000000c0H
	push	ebx
	push	esi
	push	edi
	lea	edi, DWORD PTR [ebp-192]
	mov	ecx, 48					; 00000030H
	mov	eax, -858993460				; ccccccccH
	rep stosd
	mov	ecx, OFFSET __A58979FC_xmemory
	call	@__CheckForDebuggerJustMyCode@4
; Line 700
	pop	edi
	pop	esi
	pop	ebx
	add	esp, 192				; 000000c0H
	cmp	ebp, esp
	call	__RTC_CheckEsp
	mov	esp, ebp
	pop	ebp
	ret	0
??$destroy@VEvent@Keyboard@@@?$_Default_allocator_traits@V?$allocator@VEvent@Keyboard@@@std@@@std@@SAXAAV?$allocator@VEvent@Keyboard@@@1@QAVEvent@Keyboard@@@Z ENDP ; std::_Default_allocator_traits<std::allocator<Keyboard::Event> >::destroy<Keyboard::Event>
_TEXT	ENDS
; Function compile flags: /Odtp /RTCsu /ZI
;	COMDAT ??$_Unfancy@VEvent@Keyboard@@@std@@YAPAVEvent@Keyboard@@PAV12@@Z
_TEXT	SEGMENT
__$EHRec$ = -12						; size = 12
__Ptr$ = 8						; size = 4
??$_Unfancy@VEvent@Keyboard@@@std@@YAPAVEvent@Keyboard@@PAV12@@Z PROC ; std::_Unfancy<Keyboard::Event>, COMDAT
; File C:\Program Files (x86)\Microsoft Visual Studio\2019\Community\VC\Tools\MSVC\14.27.29110\include\xstddef
; Line 288
	push	ebp
	mov	ebp, esp
	push	-1
	push	__ehhandler$??$_Unfancy@VEvent@Keyboard@@@std@@YAPAVEvent@Keyboard@@PAV12@@Z
	mov	eax, DWORD PTR fs:0
	push	eax
	sub	esp, 192				; 000000c0H
	push	ebx
	push	esi
	push	edi
	lea	edi, DWORD PTR [ebp-204]
	mov	ecx, 48					; 00000030H
	mov	eax, -858993460				; ccccccccH
	rep stosd
	mov	eax, DWORD PTR ___security_cookie
	xor	eax, ebp
	push	eax
	lea	eax, DWORD PTR __$EHRec$[ebp]
	mov	DWORD PTR fs:0, eax
	mov	ecx, OFFSET __38038D2D_xstddef
	call	@__CheckForDebuggerJustMyCode@4
; Line 289
	mov	eax, DWORD PTR __Ptr$[ebp]
; Line 290
	mov	ecx, DWORD PTR __$EHRec$[ebp]
	mov	DWORD PTR fs:0, ecx
	pop	ecx
	pop	edi
	pop	esi
	pop	ebx
	add	esp, 204				; 000000ccH
	cmp	ebp, esp
	call	__RTC_CheckEsp
	mov	esp, ebp
	pop	ebp
	ret	0
	int	3
	int	3
	int	3
	int	3
	int	3
_TEXT	ENDS
;	COMDAT text$x
text$x	SEGMENT
__ehhandler$??$_Unfancy@VEvent@Keyboard@@@std@@YAPAVEvent@Keyboard@@PAV12@@Z:
	npad	1
	npad	1
	mov	edx, DWORD PTR [esp+8]
	lea	eax, DWORD PTR [edx+12]
	mov	ecx, DWORD PTR [edx-208]
	xor	ecx, eax
	call	@__security_check_cookie@4
	mov	eax, OFFSET __ehfuncinfo$??$_Unfancy@VEvent@Keyboard@@@std@@YAPAVEvent@Keyboard@@PAV12@@Z
	jmp	___CxxFrameHandler3
text$x	ENDS
??$_Unfancy@VEvent@Keyboard@@@std@@YAPAVEvent@Keyboard@@PAV12@@Z ENDP ; std::_Unfancy<Keyboard::Event>
; Function compile flags: /Odtp /RTCsu /ZI
;	COMDAT ??$_Destroy_in_place@PAVEvent@Keyboard@@@std@@YAXAAPAVEvent@Keyboard@@@Z
_TEXT	SEGMENT
__$EHRec$ = -12						; size = 12
__Obj$ = 8						; size = 4
??$_Destroy_in_place@PAVEvent@Keyboard@@@std@@YAXAAPAVEvent@Keyboard@@@Z PROC ; std::_Destroy_in_place<Keyboard::Event *>, COMDAT
; File C:\Program Files (x86)\Microsoft Visual Studio\2019\Community\VC\Tools\MSVC\14.27.29110\include\xmemory
; Line 267
	push	ebp
	mov	ebp, esp
	push	-1
	push	__ehhandler$??$_Destroy_in_place@PAVEvent@Keyboard@@@std@@YAXAAPAVEvent@Keyboard@@@Z
	mov	eax, DWORD PTR fs:0
	push	eax
	sub	esp, 192				; 000000c0H
	push	ebx
	push	esi
	push	edi
	lea	edi, DWORD PTR [ebp-204]
	mov	ecx, 48					; 00000030H
	mov	eax, -858993460				; ccccccccH
	rep stosd
	mov	eax, DWORD PTR ___security_cookie
	xor	eax, ebp
	push	eax
	lea	eax, DWORD PTR __$EHRec$[ebp]
	mov	DWORD PTR fs:0, eax
	mov	ecx, OFFSET __A58979FC_xmemory
	call	@__CheckForDebuggerJustMyCode@4
; Line 269
	mov	ecx, DWORD PTR __$EHRec$[ebp]
	mov	DWORD PTR fs:0, ecx
	pop	ecx
	pop	edi
	pop	esi
	pop	ebx
	add	esp, 204				; 000000ccH
	cmp	ebp, esp
	call	__RTC_CheckEsp
	mov	esp, ebp
	pop	ebp
	ret	0
	int	3
	int	3
	int	3
	int	3
	int	3
_TEXT	ENDS
;	COMDAT text$x
text$x	SEGMENT
__ehhandler$??$_Destroy_in_place@PAVEvent@Keyboard@@@std@@YAXAAPAVEvent@Keyboard@@@Z:
	npad	1
	npad	1
	mov	edx, DWORD PTR [esp+8]
	lea	eax, DWORD PTR [edx+12]
	mov	ecx, DWORD PTR [edx-208]
	xor	ecx, eax
	call	@__security_check_cookie@4
	mov	eax, OFFSET __ehfuncinfo$??$_Destroy_in_place@PAVEvent@Keyboard@@@std@@YAXAAPAVEvent@Keyboard@@@Z
	jmp	___CxxFrameHandler3
text$x	ENDS
??$_Destroy_in_place@PAVEvent@Keyboard@@@std@@YAXAAPAVEvent@Keyboard@@@Z ENDP ; std::_Destroy_in_place<Keyboard::Event *>
; Function compile flags: /Odtp /RTCsu /ZI
;	COMDAT ??$?0VEvent@Keyboard@@@?$allocator@PAVEvent@Keyboard@@@std@@QAE@ABV?$allocator@VEvent@Keyboard@@@1@@Z
_TEXT	SEGMENT
_this$ = -20						; size = 4
__$EHRec$ = -12						; size = 12
___formal$ = 8						; size = 4
??$?0VEvent@Keyboard@@@?$allocator@PAVEvent@Keyboard@@@std@@QAE@ABV?$allocator@VEvent@Keyboard@@@1@@Z PROC ; std::allocator<Keyboard::Event *>::allocator<Keyboard::Event *><Keyboard::Event>, COMDAT
; _this$ = ecx
; File C:\Program Files (x86)\Microsoft Visual Studio\2019\Community\VC\Tools\MSVC\14.27.29110\include\xmemory
; Line 799
	push	ebp
	mov	ebp, esp
	push	-1
	push	__ehhandler$??$?0VEvent@Keyboard@@@?$allocator@PAVEvent@Keyboard@@@std@@QAE@ABV?$allocator@VEvent@Keyboard@@@1@@Z
	mov	eax, DWORD PTR fs:0
	push	eax
	sub	esp, 204				; 000000ccH
	push	ebx
	push	esi
	push	edi
	push	ecx
	lea	edi, DWORD PTR [ebp-216]
	mov	ecx, 51					; 00000033H
	mov	eax, -858993460				; ccccccccH
	rep stosd
	pop	ecx
	mov	eax, DWORD PTR ___security_cookie
	xor	eax, ebp
	push	eax
	lea	eax, DWORD PTR __$EHRec$[ebp]
	mov	DWORD PTR fs:0, eax
	mov	DWORD PTR _this$[ebp], ecx
	mov	ecx, OFFSET __A58979FC_xmemory
	call	@__CheckForDebuggerJustMyCode@4
	mov	eax, DWORD PTR _this$[ebp]
	mov	ecx, DWORD PTR __$EHRec$[ebp]
	mov	DWORD PTR fs:0, ecx
	pop	ecx
	pop	edi
	pop	esi
	pop	ebx
	add	esp, 216				; 000000d8H
	cmp	ebp, esp
	call	__RTC_CheckEsp
	mov	esp, ebp
	pop	ebp
	ret	4
	int	3
	int	3
	int	3
	int	3
	int	3
_TEXT	ENDS
;	COMDAT text$x
text$x	SEGMENT
__ehhandler$??$?0VEvent@Keyboard@@@?$allocator@PAVEvent@Keyboard@@@std@@QAE@ABV?$allocator@VEvent@Keyboard@@@1@@Z:
	npad	1
	npad	1
	mov	edx, DWORD PTR [esp+8]
	lea	eax, DWORD PTR [edx+12]
	mov	ecx, DWORD PTR [edx-220]
	xor	ecx, eax
	call	@__security_check_cookie@4
	mov	eax, OFFSET __ehfuncinfo$??$?0VEvent@Keyboard@@@?$allocator@PAVEvent@Keyboard@@@std@@QAE@ABV?$allocator@VEvent@Keyboard@@@1@@Z
	jmp	___CxxFrameHandler3
text$x	ENDS
??$?0VEvent@Keyboard@@@?$allocator@PAVEvent@Keyboard@@@std@@QAE@ABV?$allocator@VEvent@Keyboard@@@1@@Z ENDP ; std::allocator<Keyboard::Event *>::allocator<Keyboard::Event *><Keyboard::Event>
; Function compile flags: /Odtp /RTCsu /ZI
;	COMDAT ??$_Pocma@V?$allocator@D@std@@@std@@YAXAAV?$allocator@D@0@0@Z
_TEXT	SEGMENT
__$EHRec$ = -12						; size = 12
__Left$ = 8						; size = 4
__Right$ = 12						; size = 4
??$_Pocma@V?$allocator@D@std@@@std@@YAXAAV?$allocator@D@0@0@Z PROC ; std::_Pocma<std::allocator<char> >, COMDAT
; File C:\Program Files (x86)\Microsoft Visual Studio\2019\Community\VC\Tools\MSVC\14.27.29110\include\xmemory
; Line 901
	push	ebp
	mov	ebp, esp
	push	-1
	push	__ehhandler$??$_Pocma@V?$allocator@D@std@@@std@@YAXAAV?$allocator@D@0@0@Z
	mov	eax, DWORD PTR fs:0
	push	eax
	sub	esp, 192				; 000000c0H
	push	ebx
	push	esi
	push	edi
	lea	edi, DWORD PTR [ebp-204]
	mov	ecx, 48					; 00000030H
	mov	eax, -858993460				; ccccccccH
	rep stosd
	mov	eax, DWORD PTR ___security_cookie
	xor	eax, ebp
	push	eax
	lea	eax, DWORD PTR __$EHRec$[ebp]
	mov	DWORD PTR fs:0, eax
	mov	ecx, OFFSET __A58979FC_xmemory
	call	@__CheckForDebuggerJustMyCode@4
; Line 903
	mov	eax, DWORD PTR __Right$[ebp]
	push	eax
	call	??$move@AAV?$allocator@D@std@@@std@@YA$$QAV?$allocator@D@0@AAV10@@Z ; std::move<std::allocator<char> &>
	add	esp, 4
; Line 905
	mov	ecx, DWORD PTR __$EHRec$[ebp]
	mov	DWORD PTR fs:0, ecx
	pop	ecx
	pop	edi
	pop	esi
	pop	ebx
	add	esp, 204				; 000000ccH
	cmp	ebp, esp
	call	__RTC_CheckEsp
	mov	esp, ebp
	pop	ebp
	ret	0
	int	3
	int	3
	int	3
	int	3
	int	3
_TEXT	ENDS
;	COMDAT text$x
text$x	SEGMENT
__ehhandler$??$_Pocma@V?$allocator@D@std@@@std@@YAXAAV?$allocator@D@0@0@Z:
	npad	1
	npad	1
	mov	edx, DWORD PTR [esp+8]
	lea	eax, DWORD PTR [edx+12]
	mov	ecx, DWORD PTR [edx-208]
	xor	ecx, eax
	call	@__security_check_cookie@4
	mov	eax, OFFSET __ehfuncinfo$??$_Pocma@V?$allocator@D@std@@@std@@YAXAAV?$allocator@D@0@0@Z
	jmp	___CxxFrameHandler3
text$x	ENDS
??$_Pocma@V?$allocator@D@std@@@std@@YAXAAV?$allocator@D@0@0@Z ENDP ; std::_Pocma<std::allocator<char> >
; Function compile flags: /Odtp /RTCsu /ZI
;	COMDAT ??0?$_Deque_unchecked_iterator@V?$_Deque_val@U?$_Deque_simple_types@D@std@@@std@@@std@@QAE@IPBU_Container_base12@1@@Z
_TEXT	SEGMENT
_this$ = -8						; size = 4
___param0$ = 8						; size = 4
___param1$ = 12						; size = 4
??0?$_Deque_unchecked_iterator@V?$_Deque_val@U?$_Deque_simple_types@D@std@@@std@@@std@@QAE@IPBU_Container_base12@1@@Z PROC ; std::_Deque_unchecked_iterator<std::_Deque_val<std::_Deque_simple_types<char> > >::_Deque_unchecked_iterator<std::_Deque_val<std::_Deque_simple_types<char> > >, COMDAT
; _this$ = ecx
	push	ebp
	mov	ebp, esp
	sub	esp, 204				; 000000ccH
	push	ebx
	push	esi
	push	edi
	push	ecx
	lea	edi, DWORD PTR [ebp-204]
	mov	ecx, 51					; 00000033H
	mov	eax, -858993460				; ccccccccH
	rep stosd
	pop	ecx
	mov	DWORD PTR _this$[ebp], ecx
	mov	eax, DWORD PTR ___param1$[ebp]
	push	eax
	mov	ecx, DWORD PTR ___param0$[ebp]
	push	ecx
	mov	ecx, DWORD PTR _this$[ebp]
	call	??0?$_Deque_unchecked_const_iterator@V?$_Deque_val@U?$_Deque_simple_types@D@std@@@std@@@std@@QAE@IPBU_Container_base12@1@@Z ; std::_Deque_unchecked_const_iterator<std::_Deque_val<std::_Deque_simple_types<char> > >::_Deque_unchecked_const_iterator<std::_Deque_val<std::_Deque_simple_types<char> > >
	mov	eax, DWORD PTR _this$[ebp]
	pop	edi
	pop	esi
	pop	ebx
	add	esp, 204				; 000000ccH
	cmp	ebp, esp
	call	__RTC_CheckEsp
	mov	esp, ebp
	pop	ebp
	ret	8
??0?$_Deque_unchecked_iterator@V?$_Deque_val@U?$_Deque_simple_types@D@std@@@std@@@std@@QAE@IPBU_Container_base12@1@@Z ENDP ; std::_Deque_unchecked_iterator<std::_Deque_val<std::_Deque_simple_types<char> > >::_Deque_unchecked_iterator<std::_Deque_val<std::_Deque_simple_types<char> > >
_TEXT	ENDS
; Function compile flags: /Odtp /RTCsu /ZI
;	COMDAT ??D?$_Deque_unchecked_iterator@V?$_Deque_val@U?$_Deque_simple_types@D@std@@@std@@@std@@QBEAADXZ
_TEXT	SEGMENT
_this$ = -8						; size = 4
??D?$_Deque_unchecked_iterator@V?$_Deque_val@U?$_Deque_simple_types@D@std@@@std@@@std@@QBEAADXZ PROC ; std::_Deque_unchecked_iterator<std::_Deque_val<std::_Deque_simple_types<char> > >::operator*, COMDAT
; _this$ = ecx
; File C:\Program Files (x86)\Microsoft Visual Studio\2019\Community\VC\Tools\MSVC\14.27.29110\include\deque
; Line 170
	push	ebp
	mov	ebp, esp
	sub	esp, 204				; 000000ccH
	push	ebx
	push	esi
	push	edi
	push	ecx
	lea	edi, DWORD PTR [ebp-204]
	mov	ecx, 51					; 00000033H
	mov	eax, -858993460				; ccccccccH
	rep stosd
	pop	ecx
	mov	DWORD PTR _this$[ebp], ecx
	mov	ecx, OFFSET __0657B1E2_deque
	call	@__CheckForDebuggerJustMyCode@4
; Line 171
	mov	ecx, DWORD PTR _this$[ebp]
	call	??D?$_Deque_unchecked_const_iterator@V?$_Deque_val@U?$_Deque_simple_types@D@std@@@std@@@std@@QBEABDXZ ; std::_Deque_unchecked_const_iterator<std::_Deque_val<std::_Deque_simple_types<char> > >::operator*
; Line 172
	pop	edi
	pop	esi
	pop	ebx
	add	esp, 204				; 000000ccH
	cmp	ebp, esp
	call	__RTC_CheckEsp
	mov	esp, ebp
	pop	ebp
	ret	0
??D?$_Deque_unchecked_iterator@V?$_Deque_val@U?$_Deque_simple_types@D@std@@@std@@@std@@QBEAADXZ ENDP ; std::_Deque_unchecked_iterator<std::_Deque_val<std::_Deque_simple_types<char> > >::operator*
_TEXT	ENDS
; Function compile flags: /Odtp /RTCsu /ZI
;	COMDAT ??D?$_Deque_unchecked_const_iterator@V?$_Deque_val@U?$_Deque_simple_types@D@std@@@std@@@std@@QBEABDXZ
_TEXT	SEGMENT
__Off$ = -32						; size = 4
__Block$ = -20						; size = 4
_this$ = -8						; size = 4
??D?$_Deque_unchecked_const_iterator@V?$_Deque_val@U?$_Deque_simple_types@D@std@@@std@@@std@@QBEABDXZ PROC ; std::_Deque_unchecked_const_iterator<std::_Deque_val<std::_Deque_simple_types<char> > >::operator*, COMDAT
; _this$ = ecx
; File C:\Program Files (x86)\Microsoft Visual Studio\2019\Community\VC\Tools\MSVC\14.27.29110\include\deque
; Line 54
	push	ebp
	mov	ebp, esp
	sub	esp, 228				; 000000e4H
	push	ebx
	push	esi
	push	edi
	push	ecx
	lea	edi, DWORD PTR [ebp-228]
	mov	ecx, 57					; 00000039H
	mov	eax, -858993460				; ccccccccH
	rep stosd
	pop	ecx
	mov	DWORD PTR _this$[ebp], ecx
	mov	ecx, OFFSET __0657B1E2_deque
	call	@__CheckForDebuggerJustMyCode@4
; Line 55
	mov	eax, DWORD PTR _this$[ebp]
	mov	ecx, DWORD PTR [eax+4]
	push	ecx
	mov	edx, DWORD PTR _this$[ebp]
	mov	ecx, DWORD PTR [edx]
	call	?_Getblock@?$_Deque_val@U?$_Deque_simple_types@D@std@@@std@@QBEII@Z ; std::_Deque_val<std::_Deque_simple_types<char> >::_Getblock
	mov	DWORD PTR __Block$[ebp], eax
; Line 56
	mov	eax, DWORD PTR _this$[ebp]
	mov	eax, DWORD PTR [eax+4]
	xor	edx, edx
	mov	ecx, 16					; 00000010H
	div	ecx
	mov	DWORD PTR __Off$[ebp], edx
; Line 57
	mov	eax, DWORD PTR _this$[ebp]
	mov	ecx, DWORD PTR [eax]
	mov	edx, DWORD PTR [ecx+4]
	mov	eax, DWORD PTR __Block$[ebp]
	mov	eax, DWORD PTR [edx+eax*4]
	add	eax, DWORD PTR __Off$[ebp]
; Line 58
	pop	edi
	pop	esi
	pop	ebx
	add	esp, 228				; 000000e4H
	cmp	ebp, esp
	call	__RTC_CheckEsp
	mov	esp, ebp
	pop	ebp
	ret	0
??D?$_Deque_unchecked_const_iterator@V?$_Deque_val@U?$_Deque_simple_types@D@std@@@std@@@std@@QBEABDXZ ENDP ; std::_Deque_unchecked_const_iterator<std::_Deque_val<std::_Deque_simple_types<char> > >::operator*
_TEXT	ENDS
; Function compile flags: /Odtp /RTCsu /ZI
;	COMDAT ??0?$_Deque_unchecked_const_iterator@V?$_Deque_val@U?$_Deque_simple_types@D@std@@@std@@@std@@QAE@IPBU_Container_base12@1@@Z
_TEXT	SEGMENT
_this$ = -20						; size = 4
__$EHRec$ = -12						; size = 12
__Off$ = 8						; size = 4
__Pdeque$ = 12						; size = 4
??0?$_Deque_unchecked_const_iterator@V?$_Deque_val@U?$_Deque_simple_types@D@std@@@std@@@std@@QAE@IPBU_Container_base12@1@@Z PROC ; std::_Deque_unchecked_const_iterator<std::_Deque_val<std::_Deque_simple_types<char> > >::_Deque_unchecked_const_iterator<std::_Deque_val<std::_Deque_simple_types<char> > >, COMDAT
; _this$ = ecx
; File C:\Program Files (x86)\Microsoft Visual Studio\2019\Community\VC\Tools\MSVC\14.27.29110\include\deque
; Line 52
	push	ebp
	mov	ebp, esp
	push	-1
	push	__ehhandler$??0?$_Deque_unchecked_const_iterator@V?$_Deque_val@U?$_Deque_simple_types@D@std@@@std@@@std@@QAE@IPBU_Container_base12@1@@Z
	mov	eax, DWORD PTR fs:0
	push	eax
	sub	esp, 204				; 000000ccH
	push	ebx
	push	esi
	push	edi
	push	ecx
	lea	edi, DWORD PTR [ebp-216]
	mov	ecx, 51					; 00000033H
	mov	eax, -858993460				; ccccccccH
	rep stosd
	pop	ecx
	mov	eax, DWORD PTR ___security_cookie
	xor	eax, ebp
	push	eax
	lea	eax, DWORD PTR __$EHRec$[ebp]
	mov	DWORD PTR fs:0, eax
	mov	DWORD PTR _this$[ebp], ecx
	mov	ecx, OFFSET __0657B1E2_deque
	call	@__CheckForDebuggerJustMyCode@4
	mov	eax, DWORD PTR _this$[ebp]
	mov	ecx, DWORD PTR __Pdeque$[ebp]
	mov	DWORD PTR [eax], ecx
	mov	eax, DWORD PTR _this$[ebp]
	mov	ecx, DWORD PTR __Off$[ebp]
	mov	DWORD PTR [eax+4], ecx
	mov	eax, DWORD PTR _this$[ebp]
	mov	ecx, DWORD PTR __$EHRec$[ebp]
	mov	DWORD PTR fs:0, ecx
	pop	ecx
	pop	edi
	pop	esi
	pop	ebx
	add	esp, 216				; 000000d8H
	cmp	ebp, esp
	call	__RTC_CheckEsp
	mov	esp, ebp
	pop	ebp
	ret	8
	int	3
	int	3
	int	3
	int	3
	int	3
_TEXT	ENDS
;	COMDAT text$x
text$x	SEGMENT
__ehhandler$??0?$_Deque_unchecked_const_iterator@V?$_Deque_val@U?$_Deque_simple_types@D@std@@@std@@@std@@QAE@IPBU_Container_base12@1@@Z:
	npad	1
	npad	1
	mov	edx, DWORD PTR [esp+8]
	lea	eax, DWORD PTR [edx+12]
	mov	ecx, DWORD PTR [edx-220]
	xor	ecx, eax
	call	@__security_check_cookie@4
	mov	eax, OFFSET __ehfuncinfo$??0?$_Deque_unchecked_const_iterator@V?$_Deque_val@U?$_Deque_simple_types@D@std@@@std@@@std@@QAE@IPBU_Container_base12@1@@Z
	jmp	___CxxFrameHandler3
text$x	ENDS
??0?$_Deque_unchecked_const_iterator@V?$_Deque_val@U?$_Deque_simple_types@D@std@@@std@@@std@@QAE@IPBU_Container_base12@1@@Z ENDP ; std::_Deque_unchecked_const_iterator<std::_Deque_val<std::_Deque_simple_types<char> > >::_Deque_unchecked_const_iterator<std::_Deque_val<std::_Deque_simple_types<char> > >
; Function compile flags: /Odtp /RTCsu /ZI
;	COMDAT ??$destroy@D@?$_Default_allocator_traits@V?$allocator@D@std@@@std@@SAXAAV?$allocator@D@1@QAD@Z
_TEXT	SEGMENT
___formal$ = 8						; size = 4
__Ptr$ = 12						; size = 4
??$destroy@D@?$_Default_allocator_traits@V?$allocator@D@std@@@std@@SAXAAV?$allocator@D@1@QAD@Z PROC ; std::_Default_allocator_traits<std::allocator<char> >::destroy<char>, COMDAT
; File C:\Program Files (x86)\Microsoft Visual Studio\2019\Community\VC\Tools\MSVC\14.27.29110\include\xmemory
; Line 698
	push	ebp
	mov	ebp, esp
	sub	esp, 192				; 000000c0H
	push	ebx
	push	esi
	push	edi
	lea	edi, DWORD PTR [ebp-192]
	mov	ecx, 48					; 00000030H
	mov	eax, -858993460				; ccccccccH
	rep stosd
	mov	ecx, OFFSET __A58979FC_xmemory
	call	@__CheckForDebuggerJustMyCode@4
; Line 700
	pop	edi
	pop	esi
	pop	ebx
	add	esp, 192				; 000000c0H
	cmp	ebp, esp
	call	__RTC_CheckEsp
	mov	esp, ebp
	pop	ebp
	ret	0
??$destroy@D@?$_Default_allocator_traits@V?$allocator@D@std@@@std@@SAXAAV?$allocator@D@1@QAD@Z ENDP ; std::_Default_allocator_traits<std::allocator<char> >::destroy<char>
_TEXT	ENDS
; Function compile flags: /Odtp /RTCsu /ZI
;	COMDAT ??$_Unfancy@D@std@@YAPADPAD@Z
_TEXT	SEGMENT
__$EHRec$ = -12						; size = 12
__Ptr$ = 8						; size = 4
??$_Unfancy@D@std@@YAPADPAD@Z PROC			; std::_Unfancy<char>, COMDAT
; File C:\Program Files (x86)\Microsoft Visual Studio\2019\Community\VC\Tools\MSVC\14.27.29110\include\xstddef
; Line 288
	push	ebp
	mov	ebp, esp
	push	-1
	push	__ehhandler$??$_Unfancy@D@std@@YAPADPAD@Z
	mov	eax, DWORD PTR fs:0
	push	eax
	sub	esp, 192				; 000000c0H
	push	ebx
	push	esi
	push	edi
	lea	edi, DWORD PTR [ebp-204]
	mov	ecx, 48					; 00000030H
	mov	eax, -858993460				; ccccccccH
	rep stosd
	mov	eax, DWORD PTR ___security_cookie
	xor	eax, ebp
	push	eax
	lea	eax, DWORD PTR __$EHRec$[ebp]
	mov	DWORD PTR fs:0, eax
	mov	ecx, OFFSET __38038D2D_xstddef
	call	@__CheckForDebuggerJustMyCode@4
; Line 289
	mov	eax, DWORD PTR __Ptr$[ebp]
; Line 290
	mov	ecx, DWORD PTR __$EHRec$[ebp]
	mov	DWORD PTR fs:0, ecx
	pop	ecx
	pop	edi
	pop	esi
	pop	ebx
	add	esp, 204				; 000000ccH
	cmp	ebp, esp
	call	__RTC_CheckEsp
	mov	esp, ebp
	pop	ebp
	ret	0
	int	3
	int	3
	int	3
	int	3
	int	3
_TEXT	ENDS
;	COMDAT text$x
text$x	SEGMENT
__ehhandler$??$_Unfancy@D@std@@YAPADPAD@Z:
	npad	1
	npad	1
	mov	edx, DWORD PTR [esp+8]
	lea	eax, DWORD PTR [edx+12]
	mov	ecx, DWORD PTR [edx-208]
	xor	ecx, eax
	call	@__security_check_cookie@4
	mov	eax, OFFSET __ehfuncinfo$??$_Unfancy@D@std@@YAPADPAD@Z
	jmp	___CxxFrameHandler3
text$x	ENDS
??$_Unfancy@D@std@@YAPADPAD@Z ENDP			; std::_Unfancy<char>
; Function compile flags: /Odtp /RTCsu /ZI
;	COMDAT ??$_Emplace_back_internal@ABD@?$deque@DV?$allocator@D@std@@@std@@AAEXABD@Z
_TEXT	SEGMENT
tv162 = -232						; size = 4
tv86 = -232						; size = 4
__Block$ = -32						; size = 4
__Newoff$ = -20						; size = 4
_this$ = -8						; size = 4
_<_Vals_0>$ = 8						; size = 4
??$_Emplace_back_internal@ABD@?$deque@DV?$allocator@D@std@@@std@@AAEXABD@Z PROC ; std::deque<char,std::allocator<char> >::_Emplace_back_internal<char const &>, COMDAT
; _this$ = ecx
; File C:\Program Files (x86)\Microsoft Visual Studio\2019\Community\VC\Tools\MSVC\14.27.29110\include\deque
; Line 1113
	push	ebp
	mov	ebp, esp
	sub	esp, 232				; 000000e8H
	push	ebx
	push	esi
	push	edi
	push	ecx
	lea	edi, DWORD PTR [ebp-232]
	mov	ecx, 58					; 0000003aH
	mov	eax, -858993460				; ccccccccH
	rep stosd
	pop	ecx
	mov	DWORD PTR _this$[ebp], ecx
	mov	ecx, OFFSET __0657B1E2_deque
	call	@__CheckForDebuggerJustMyCode@4
; Line 1114
	mov	ecx, DWORD PTR _this$[ebp]
	call	?_Myoff@?$deque@DV?$allocator@D@std@@@std@@AAEAAIXZ ; std::deque<char,std::allocator<char> >::_Myoff
	mov	esi, eax
	mov	ecx, DWORD PTR _this$[ebp]
	call	?_Mysize@?$deque@DV?$allocator@D@std@@@std@@AAEAAIXZ ; std::deque<char,std::allocator<char> >::_Mysize
	mov	ecx, DWORD PTR [esi]
	add	ecx, DWORD PTR [eax]
	mov	eax, ecx
	xor	edx, edx
	mov	ecx, 16					; 00000010H
	div	ecx
	test	edx, edx
	jne	SHORT $LN2@Emplace_ba
	mov	ecx, DWORD PTR _this$[ebp]
	call	?_Mapsize@?$deque@DV?$allocator@D@std@@@std@@AAEAAIXZ ; std::deque<char,std::allocator<char> >::_Mapsize
	mov	esi, eax
	mov	ecx, DWORD PTR _this$[ebp]
	call	?_Mysize@?$deque@DV?$allocator@D@std@@@std@@AAEAAIXZ ; std::deque<char,std::allocator<char> >::_Mysize
	mov	eax, DWORD PTR [eax]
	add	eax, 16					; 00000010H
	shr	eax, 4
	cmp	DWORD PTR [esi], eax
	ja	SHORT $LN2@Emplace_ba
	push	1
	mov	ecx, DWORD PTR _this$[ebp]
	call	?_Growmap@?$deque@DV?$allocator@D@std@@@std@@AAEXI@Z ; std::deque<char,std::allocator<char> >::_Growmap
$LN2@Emplace_ba:
	mov	ecx, DWORD PTR _this$[ebp]
	call	?_Myoff@?$deque@DV?$allocator@D@std@@@std@@AAEAAIXZ ; std::deque<char,std::allocator<char> >::_Myoff
	mov	DWORD PTR tv86[ebp], eax
	mov	ecx, DWORD PTR _this$[ebp]
	call	?_Mapsize@?$deque@DV?$allocator@D@std@@@std@@AAEAAIXZ ; std::deque<char,std::allocator<char> >::_Mapsize
	mov	eax, DWORD PTR [eax]
	shl	eax, 4
	sub	eax, 1
	mov	ecx, DWORD PTR tv86[ebp]
	and	eax, DWORD PTR [ecx]
	mov	edx, DWORD PTR tv86[ebp]
	mov	DWORD PTR [edx], eax
	mov	ecx, DWORD PTR _this$[ebp]
	call	?_Myoff@?$deque@DV?$allocator@D@std@@@std@@AAEAAIXZ ; std::deque<char,std::allocator<char> >::_Myoff
	mov	esi, eax
	mov	ecx, DWORD PTR _this$[ebp]
	call	?_Mysize@?$deque@DV?$allocator@D@std@@@std@@AAEAAIXZ ; std::deque<char,std::allocator<char> >::_Mysize
	mov	ecx, DWORD PTR [esi]
	add	ecx, DWORD PTR [eax]
	mov	DWORD PTR __Newoff$[ebp], ecx
	mov	eax, DWORD PTR __Newoff$[ebp]
	push	eax
	mov	ecx, DWORD PTR _this$[ebp]
	call	?_Getblock@?$deque@DV?$allocator@D@std@@@std@@ABEII@Z ; std::deque<char,std::allocator<char> >::_Getblock
	mov	DWORD PTR __Block$[ebp], eax
	mov	ecx, DWORD PTR _this$[ebp]
	call	?_Map@?$deque@DV?$allocator@D@std@@@std@@AAEAAPAPADXZ ; std::deque<char,std::allocator<char> >::_Map
	mov	eax, DWORD PTR [eax]
	mov	ecx, DWORD PTR __Block$[ebp]
	cmp	DWORD PTR [eax+ecx*4], 0
	jne	SHORT $LN3@Emplace_ba
	push	16					; 00000010H
	mov	ecx, DWORD PTR _this$[ebp]
	call	?_Getal@?$deque@DV?$allocator@D@std@@@std@@AAEAAV?$allocator@D@2@XZ ; std::deque<char,std::allocator<char> >::_Getal
	mov	ecx, eax
	call	?allocate@?$allocator@D@std@@QAEPADI@Z	; std::allocator<char>::allocate
	mov	esi, eax
	mov	ecx, DWORD PTR _this$[ebp]
	call	?_Map@?$deque@DV?$allocator@D@std@@@std@@AAEAAPAPADXZ ; std::deque<char,std::allocator<char> >::_Map
	mov	eax, DWORD PTR [eax]
	mov	ecx, DWORD PTR __Block$[ebp]
	mov	DWORD PTR [eax+ecx*4], esi
$LN3@Emplace_ba:
; Line 1115
	mov	eax, DWORD PTR _<_Vals_0>$[ebp]
	push	eax
	call	??$forward@ABD@std@@YAABDABD@Z		; std::forward<char const &>
	add	esp, 4
	push	eax
	mov	ecx, DWORD PTR _this$[ebp]
	call	?_Map@?$deque@DV?$allocator@D@std@@@std@@AAEAAPAPADXZ ; std::deque<char,std::allocator<char> >::_Map
	mov	ecx, DWORD PTR [eax]
	mov	eax, DWORD PTR __Newoff$[ebp]
	xor	edx, edx
	mov	esi, 16					; 00000010H
	div	esi
	mov	eax, DWORD PTR __Block$[ebp]
	add	edx, DWORD PTR [ecx+eax*4]
	push	edx
	call	??$_Unfancy@D@std@@YAPADPAD@Z		; std::_Unfancy<char>
	add	esp, 4
	push	eax
	mov	ecx, DWORD PTR _this$[ebp]
	call	?_Getal@?$deque@DV?$allocator@D@std@@@std@@AAEAAV?$allocator@D@2@XZ ; std::deque<char,std::allocator<char> >::_Getal
	push	eax
	call	??$construct@DABD@?$_Default_allocator_traits@V?$allocator@D@std@@@std@@SAXAAV?$allocator@D@1@QADABD@Z ; std::_Default_allocator_traits<std::allocator<char> >::construct<char,char const &>
	add	esp, 12					; 0000000cH
; Line 1116
	mov	ecx, DWORD PTR _this$[ebp]
	call	?_Mysize@?$deque@DV?$allocator@D@std@@@std@@AAEAAIXZ ; std::deque<char,std::allocator<char> >::_Mysize
	mov	DWORD PTR tv162[ebp], eax
	mov	eax, DWORD PTR tv162[ebp]
	mov	ecx, DWORD PTR [eax]
	add	ecx, 1
	mov	edx, DWORD PTR tv162[ebp]
	mov	DWORD PTR [edx], ecx
; Line 1117
	pop	edi
	pop	esi
	pop	ebx
	add	esp, 232				; 000000e8H
	cmp	ebp, esp
	call	__RTC_CheckEsp
	mov	esp, ebp
	pop	ebp
	ret	4
??$_Emplace_back_internal@ABD@?$deque@DV?$allocator@D@std@@@std@@AAEXABD@Z ENDP ; std::deque<char,std::allocator<char> >::_Emplace_back_internal<char const &>
_TEXT	ENDS
; Function compile flags: /Odtp /RTCsu /ZI
;	COMDAT ??$_Destroy_in_place@PAD@std@@YAXAAPAD@Z
_TEXT	SEGMENT
__$EHRec$ = -12						; size = 12
__Obj$ = 8						; size = 4
??$_Destroy_in_place@PAD@std@@YAXAAPAD@Z PROC		; std::_Destroy_in_place<char *>, COMDAT
; File C:\Program Files (x86)\Microsoft Visual Studio\2019\Community\VC\Tools\MSVC\14.27.29110\include\xmemory
; Line 267
	push	ebp
	mov	ebp, esp
	push	-1
	push	__ehhandler$??$_Destroy_in_place@PAD@std@@YAXAAPAD@Z
	mov	eax, DWORD PTR fs:0
	push	eax
	sub	esp, 192				; 000000c0H
	push	ebx
	push	esi
	push	edi
	lea	edi, DWORD PTR [ebp-204]
	mov	ecx, 48					; 00000030H
	mov	eax, -858993460				; ccccccccH
	rep stosd
	mov	eax, DWORD PTR ___security_cookie
	xor	eax, ebp
	push	eax
	lea	eax, DWORD PTR __$EHRec$[ebp]
	mov	DWORD PTR fs:0, eax
	mov	ecx, OFFSET __A58979FC_xmemory
	call	@__CheckForDebuggerJustMyCode@4
; Line 269
	mov	ecx, DWORD PTR __$EHRec$[ebp]
	mov	DWORD PTR fs:0, ecx
	pop	ecx
	pop	edi
	pop	esi
	pop	ebx
	add	esp, 204				; 000000ccH
	cmp	ebp, esp
	call	__RTC_CheckEsp
	mov	esp, ebp
	pop	ebp
	ret	0
	int	3
	int	3
	int	3
	int	3
	int	3
_TEXT	ENDS
;	COMDAT text$x
text$x	SEGMENT
__ehhandler$??$_Destroy_in_place@PAD@std@@YAXAAPAD@Z:
	npad	1
	npad	1
	mov	edx, DWORD PTR [esp+8]
	lea	eax, DWORD PTR [edx+12]
	mov	ecx, DWORD PTR [edx-208]
	xor	ecx, eax
	call	@__security_check_cookie@4
	mov	eax, OFFSET __ehfuncinfo$??$_Destroy_in_place@PAD@std@@YAXAAPAD@Z
	jmp	___CxxFrameHandler3
text$x	ENDS
??$_Destroy_in_place@PAD@std@@YAXAAPAD@Z ENDP		; std::_Destroy_in_place<char *>
; Function compile flags: /Odtp /RTCsu /ZI
;	COMDAT ??$?0D@?$allocator@PAD@std@@QAE@ABV?$allocator@D@1@@Z
_TEXT	SEGMENT
_this$ = -20						; size = 4
__$EHRec$ = -12						; size = 12
___formal$ = 8						; size = 4
??$?0D@?$allocator@PAD@std@@QAE@ABV?$allocator@D@1@@Z PROC ; std::allocator<char *>::allocator<char *><char>, COMDAT
; _this$ = ecx
; File C:\Program Files (x86)\Microsoft Visual Studio\2019\Community\VC\Tools\MSVC\14.27.29110\include\xmemory
; Line 799
	push	ebp
	mov	ebp, esp
	push	-1
	push	__ehhandler$??$?0D@?$allocator@PAD@std@@QAE@ABV?$allocator@D@1@@Z
	mov	eax, DWORD PTR fs:0
	push	eax
	sub	esp, 204				; 000000ccH
	push	ebx
	push	esi
	push	edi
	push	ecx
	lea	edi, DWORD PTR [ebp-216]
	mov	ecx, 51					; 00000033H
	mov	eax, -858993460				; ccccccccH
	rep stosd
	pop	ecx
	mov	eax, DWORD PTR ___security_cookie
	xor	eax, ebp
	push	eax
	lea	eax, DWORD PTR __$EHRec$[ebp]
	mov	DWORD PTR fs:0, eax
	mov	DWORD PTR _this$[ebp], ecx
	mov	ecx, OFFSET __A58979FC_xmemory
	call	@__CheckForDebuggerJustMyCode@4
	mov	eax, DWORD PTR _this$[ebp]
	mov	ecx, DWORD PTR __$EHRec$[ebp]
	mov	DWORD PTR fs:0, ecx
	pop	ecx
	pop	edi
	pop	esi
	pop	ebx
	add	esp, 216				; 000000d8H
	cmp	ebp, esp
	call	__RTC_CheckEsp
	mov	esp, ebp
	pop	ebp
	ret	4
	int	3
	int	3
	int	3
	int	3
	int	3
_TEXT	ENDS
;	COMDAT text$x
text$x	SEGMENT
__ehhandler$??$?0D@?$allocator@PAD@std@@QAE@ABV?$allocator@D@1@@Z:
	npad	1
	npad	1
	mov	edx, DWORD PTR [esp+8]
	lea	eax, DWORD PTR [edx+12]
	mov	ecx, DWORD PTR [edx-220]
	xor	ecx, eax
	call	@__security_check_cookie@4
	mov	eax, OFFSET __ehfuncinfo$??$?0D@?$allocator@PAD@std@@QAE@ABV?$allocator@D@1@@Z
	jmp	___CxxFrameHandler3
text$x	ENDS
??$?0D@?$allocator@PAD@std@@QAE@ABV?$allocator@D@1@@Z ENDP ; std::allocator<char *>::allocator<char *><char>
; Function compile flags: /Odtp /RTCsu /ZI
;	COMDAT ??$_Unfancy@U_Container_proxy@std@@@std@@YAPAU_Container_proxy@0@PAU10@@Z
_TEXT	SEGMENT
__$EHRec$ = -12						; size = 12
__Ptr$ = 8						; size = 4
??$_Unfancy@U_Container_proxy@std@@@std@@YAPAU_Container_proxy@0@PAU10@@Z PROC ; std::_Unfancy<std::_Container_proxy>, COMDAT
; File C:\Program Files (x86)\Microsoft Visual Studio\2019\Community\VC\Tools\MSVC\14.27.29110\include\xstddef
; Line 288
	push	ebp
	mov	ebp, esp
	push	-1
	push	__ehhandler$??$_Unfancy@U_Container_proxy@std@@@std@@YAPAU_Container_proxy@0@PAU10@@Z
	mov	eax, DWORD PTR fs:0
	push	eax
	sub	esp, 192				; 000000c0H
	push	ebx
	push	esi
	push	edi
	lea	edi, DWORD PTR [ebp-204]
	mov	ecx, 48					; 00000030H
	mov	eax, -858993460				; ccccccccH
	rep stosd
	mov	eax, DWORD PTR ___security_cookie
	xor	eax, ebp
	push	eax
	lea	eax, DWORD PTR __$EHRec$[ebp]
	mov	DWORD PTR fs:0, eax
	mov	ecx, OFFSET __38038D2D_xstddef
	call	@__CheckForDebuggerJustMyCode@4
; Line 289
	mov	eax, DWORD PTR __Ptr$[ebp]
; Line 290
	mov	ecx, DWORD PTR __$EHRec$[ebp]
	mov	DWORD PTR fs:0, ecx
	pop	ecx
	pop	edi
	pop	esi
	pop	ebx
	add	esp, 204				; 000000ccH
	cmp	ebp, esp
	call	__RTC_CheckEsp
	mov	esp, ebp
	pop	ebp
	ret	0
	int	3
	int	3
	int	3
	int	3
	int	3
_TEXT	ENDS
;	COMDAT text$x
text$x	SEGMENT
__ehhandler$??$_Unfancy@U_Container_proxy@std@@@std@@YAPAU_Container_proxy@0@PAU10@@Z:
	npad	1
	npad	1
	mov	edx, DWORD PTR [esp+8]
	lea	eax, DWORD PTR [edx+12]
	mov	ecx, DWORD PTR [edx-208]
	xor	ecx, eax
	call	@__security_check_cookie@4
	mov	eax, OFFSET __ehfuncinfo$??$_Unfancy@U_Container_proxy@std@@@std@@YAPAU_Container_proxy@0@PAU10@@Z
	jmp	___CxxFrameHandler3
text$x	ENDS
??$_Unfancy@U_Container_proxy@std@@@std@@YAPAU_Container_proxy@0@PAU10@@Z ENDP ; std::_Unfancy<std::_Container_proxy>
; Function compile flags: /Odtp /RTCsu /ZI
;	COMDAT ??$?0$$V@?$_Compressed_pair@V?$allocator@VEvent@Keyboard@@@std@@V?$_Deque_val@U?$_Deque_simple_types@VEvent@Keyboard@@@std@@@2@$00@std@@QAE@U_Zero_then_variadic_args_t@1@@Z
_TEXT	SEGMENT
_this$ = -20						; size = 4
__$EHRec$ = -12						; size = 12
___formal$ = 8						; size = 1
??$?0$$V@?$_Compressed_pair@V?$allocator@VEvent@Keyboard@@@std@@V?$_Deque_val@U?$_Deque_simple_types@VEvent@Keyboard@@@std@@@2@$00@std@@QAE@U_Zero_then_variadic_args_t@1@@Z PROC ; std::_Compressed_pair<std::allocator<Keyboard::Event>,std::_Deque_val<std::_Deque_simple_types<Keyboard::Event> >,1>::_Compressed_pair<std::allocator<Keyboard::Event>,std::_Deque_val<std::_Deque_simple_types<Keyboard::Event> >,1><>, COMDAT
; _this$ = ecx
; File C:\Program Files (x86)\Microsoft Visual Studio\2019\Community\VC\Tools\MSVC\14.27.29110\include\xmemory
; Line 1336
	push	ebp
	mov	ebp, esp
	push	-1
	push	__ehhandler$??$?0$$V@?$_Compressed_pair@V?$allocator@VEvent@Keyboard@@@std@@V?$_Deque_val@U?$_Deque_simple_types@VEvent@Keyboard@@@std@@@2@$00@std@@QAE@U_Zero_then_variadic_args_t@1@@Z
	mov	eax, DWORD PTR fs:0
	push	eax
	sub	esp, 204				; 000000ccH
	push	ebx
	push	esi
	push	edi
	push	ecx
	lea	edi, DWORD PTR [ebp-216]
	mov	ecx, 51					; 00000033H
	mov	eax, -858993460				; ccccccccH
	rep stosd
	pop	ecx
	mov	eax, DWORD PTR ___security_cookie
	xor	eax, ebp
	push	eax
	lea	eax, DWORD PTR __$EHRec$[ebp]
	mov	DWORD PTR fs:0, eax
	mov	DWORD PTR _this$[ebp], ecx
	mov	ecx, OFFSET __A58979FC_xmemory
	call	@__CheckForDebuggerJustMyCode@4
	mov	ecx, DWORD PTR _this$[ebp]
	call	??0?$allocator@VEvent@Keyboard@@@std@@QAE@XZ ; std::allocator<Keyboard::Event>::allocator<Keyboard::Event>
	mov	ecx, DWORD PTR _this$[ebp]
	call	??0?$_Deque_val@U?$_Deque_simple_types@VEvent@Keyboard@@@std@@@std@@QAE@XZ ; std::_Deque_val<std::_Deque_simple_types<Keyboard::Event> >::_Deque_val<std::_Deque_simple_types<Keyboard::Event> >
	mov	eax, DWORD PTR _this$[ebp]
	mov	ecx, DWORD PTR __$EHRec$[ebp]
	mov	DWORD PTR fs:0, ecx
	pop	ecx
	pop	edi
	pop	esi
	pop	ebx
	add	esp, 216				; 000000d8H
	cmp	ebp, esp
	call	__RTC_CheckEsp
	mov	esp, ebp
	pop	ebp
	ret	4
	int	3
	int	3
	int	3
	int	3
	int	3
_TEXT	ENDS
;	COMDAT text$x
text$x	SEGMENT
__ehhandler$??$?0$$V@?$_Compressed_pair@V?$allocator@VEvent@Keyboard@@@std@@V?$_Deque_val@U?$_Deque_simple_types@VEvent@Keyboard@@@std@@@2@$00@std@@QAE@U_Zero_then_variadic_args_t@1@@Z:
	npad	1
	npad	1
	mov	edx, DWORD PTR [esp+8]
	lea	eax, DWORD PTR [edx+12]
	mov	ecx, DWORD PTR [edx-220]
	xor	ecx, eax
	call	@__security_check_cookie@4
	mov	eax, OFFSET __ehfuncinfo$??$?0$$V@?$_Compressed_pair@V?$allocator@VEvent@Keyboard@@@std@@V?$_Deque_val@U?$_Deque_simple_types@VEvent@Keyboard@@@std@@@2@$00@std@@QAE@U_Zero_then_variadic_args_t@1@@Z
	jmp	___CxxFrameHandler3
text$x	ENDS
??$?0$$V@?$_Compressed_pair@V?$allocator@VEvent@Keyboard@@@std@@V?$_Deque_val@U?$_Deque_simple_types@VEvent@Keyboard@@@std@@@2@$00@std@@QAE@U_Zero_then_variadic_args_t@1@@Z ENDP ; std::_Compressed_pair<std::allocator<Keyboard::Event>,std::_Deque_val<std::_Deque_simple_types<Keyboard::Event> >,1>::_Compressed_pair<std::allocator<Keyboard::Event>,std::_Deque_val<std::_Deque_simple_types<Keyboard::Event> >,1><>
; Function compile flags: /Odtp /RTCsu /ZI
;	COMDAT ??$addressof@V?$deque@VEvent@Keyboard@@V?$allocator@VEvent@Keyboard@@@std@@@std@@@std@@YAPAV?$deque@VEvent@Keyboard@@V?$allocator@VEvent@Keyboard@@@std@@@0@AAV10@@Z
_TEXT	SEGMENT
__$EHRec$ = -12						; size = 12
__Val$ = 8						; size = 4
??$addressof@V?$deque@VEvent@Keyboard@@V?$allocator@VEvent@Keyboard@@@std@@@std@@@std@@YAPAV?$deque@VEvent@Keyboard@@V?$allocator@VEvent@Keyboard@@@std@@@0@AAV10@@Z PROC ; std::addressof<std::deque<Keyboard::Event,std::allocator<Keyboard::Event> > >, COMDAT
; File C:\Program Files (x86)\Microsoft Visual Studio\2019\Community\VC\Tools\MSVC\14.27.29110\include\xstddef
; Line 274
	push	ebp
	mov	ebp, esp
	push	-1
	push	__ehhandler$??$addressof@V?$deque@VEvent@Keyboard@@V?$allocator@VEvent@Keyboard@@@std@@@std@@@std@@YAPAV?$deque@VEvent@Keyboard@@V?$allocator@VEvent@Keyboard@@@std@@@0@AAV10@@Z
	mov	eax, DWORD PTR fs:0
	push	eax
	sub	esp, 192				; 000000c0H
	push	ebx
	push	esi
	push	edi
	lea	edi, DWORD PTR [ebp-204]
	mov	ecx, 48					; 00000030H
	mov	eax, -858993460				; ccccccccH
	rep stosd
	mov	eax, DWORD PTR ___security_cookie
	xor	eax, ebp
	push	eax
	lea	eax, DWORD PTR __$EHRec$[ebp]
	mov	DWORD PTR fs:0, eax
	mov	ecx, OFFSET __38038D2D_xstddef
	call	@__CheckForDebuggerJustMyCode@4
; Line 275
	mov	eax, DWORD PTR __Val$[ebp]
; Line 276
	mov	ecx, DWORD PTR __$EHRec$[ebp]
	mov	DWORD PTR fs:0, ecx
	pop	ecx
	pop	edi
	pop	esi
	pop	ebx
	add	esp, 204				; 000000ccH
	cmp	ebp, esp
	call	__RTC_CheckEsp
	mov	esp, ebp
	pop	ebp
	ret	0
	int	3
	int	3
	int	3
	int	3
	int	3
_TEXT	ENDS
;	COMDAT text$x
text$x	SEGMENT
__ehhandler$??$addressof@V?$deque@VEvent@Keyboard@@V?$allocator@VEvent@Keyboard@@@std@@@std@@@std@@YAPAV?$deque@VEvent@Keyboard@@V?$allocator@VEvent@Keyboard@@@std@@@0@AAV10@@Z:
	npad	1
	npad	1
	mov	edx, DWORD PTR [esp+8]
	lea	eax, DWORD PTR [edx+12]
	mov	ecx, DWORD PTR [edx-208]
	xor	ecx, eax
	call	@__security_check_cookie@4
	mov	eax, OFFSET __ehfuncinfo$??$addressof@V?$deque@VEvent@Keyboard@@V?$allocator@VEvent@Keyboard@@@std@@@std@@@std@@YAPAV?$deque@VEvent@Keyboard@@V?$allocator@VEvent@Keyboard@@@std@@@0@AAV10@@Z
	jmp	___CxxFrameHandler3
text$x	ENDS
??$addressof@V?$deque@VEvent@Keyboard@@V?$allocator@VEvent@Keyboard@@@std@@@std@@@std@@YAPAV?$deque@VEvent@Keyboard@@V?$allocator@VEvent@Keyboard@@@std@@@0@AAV10@@Z ENDP ; std::addressof<std::deque<Keyboard::Event,std::allocator<Keyboard::Event> > >
; Function compile flags: /Odtp /RTCsu /ZI
;	COMDAT ??$?0VEvent@Keyboard@@@?$allocator@U_Container_proxy@std@@@std@@QAE@ABV?$allocator@VEvent@Keyboard@@@1@@Z
_TEXT	SEGMENT
_this$ = -20						; size = 4
__$EHRec$ = -12						; size = 12
___formal$ = 8						; size = 4
??$?0VEvent@Keyboard@@@?$allocator@U_Container_proxy@std@@@std@@QAE@ABV?$allocator@VEvent@Keyboard@@@1@@Z PROC ; std::allocator<std::_Container_proxy>::allocator<std::_Container_proxy><Keyboard::Event>, COMDAT
; _this$ = ecx
; File C:\Program Files (x86)\Microsoft Visual Studio\2019\Community\VC\Tools\MSVC\14.27.29110\include\xmemory
; Line 799
	push	ebp
	mov	ebp, esp
	push	-1
	push	__ehhandler$??$?0VEvent@Keyboard@@@?$allocator@U_Container_proxy@std@@@std@@QAE@ABV?$allocator@VEvent@Keyboard@@@1@@Z
	mov	eax, DWORD PTR fs:0
	push	eax
	sub	esp, 204				; 000000ccH
	push	ebx
	push	esi
	push	edi
	push	ecx
	lea	edi, DWORD PTR [ebp-216]
	mov	ecx, 51					; 00000033H
	mov	eax, -858993460				; ccccccccH
	rep stosd
	pop	ecx
	mov	eax, DWORD PTR ___security_cookie
	xor	eax, ebp
	push	eax
	lea	eax, DWORD PTR __$EHRec$[ebp]
	mov	DWORD PTR fs:0, eax
	mov	DWORD PTR _this$[ebp], ecx
	mov	ecx, OFFSET __A58979FC_xmemory
	call	@__CheckForDebuggerJustMyCode@4
	mov	eax, DWORD PTR _this$[ebp]
	mov	ecx, DWORD PTR __$EHRec$[ebp]
	mov	DWORD PTR fs:0, ecx
	pop	ecx
	pop	edi
	pop	esi
	pop	ebx
	add	esp, 216				; 000000d8H
	cmp	ebp, esp
	call	__RTC_CheckEsp
	mov	esp, ebp
	pop	ebp
	ret	4
	int	3
	int	3
	int	3
	int	3
	int	3
_TEXT	ENDS
;	COMDAT text$x
text$x	SEGMENT
__ehhandler$??$?0VEvent@Keyboard@@@?$allocator@U_Container_proxy@std@@@std@@QAE@ABV?$allocator@VEvent@Keyboard@@@1@@Z:
	npad	1
	npad	1
	mov	edx, DWORD PTR [esp+8]
	lea	eax, DWORD PTR [edx+12]
	mov	ecx, DWORD PTR [edx-220]
	xor	ecx, eax
	call	@__security_check_cookie@4
	mov	eax, OFFSET __ehfuncinfo$??$?0VEvent@Keyboard@@@?$allocator@U_Container_proxy@std@@@std@@QAE@ABV?$allocator@VEvent@Keyboard@@@1@@Z
	jmp	___CxxFrameHandler3
text$x	ENDS
??$?0VEvent@Keyboard@@@?$allocator@U_Container_proxy@std@@@std@@QAE@ABV?$allocator@VEvent@Keyboard@@@1@@Z ENDP ; std::allocator<std::_Container_proxy>::allocator<std::_Container_proxy><Keyboard::Event>
; Function compile flags: /Odtp /RTCsu /ZI
;	COMDAT ??$move@AAVEvent@Keyboard@@@std@@YA$$QAVEvent@Keyboard@@AAV12@@Z
_TEXT	SEGMENT
__$EHRec$ = -12						; size = 12
__Arg$ = 8						; size = 4
??$move@AAVEvent@Keyboard@@@std@@YA$$QAVEvent@Keyboard@@AAV12@@Z PROC ; std::move<Keyboard::Event &>, COMDAT
; File C:\Program Files (x86)\Microsoft Visual Studio\2019\Community\VC\Tools\MSVC\14.27.29110\include\type_traits
; Line 1466
	push	ebp
	mov	ebp, esp
	push	-1
	push	__ehhandler$??$move@AAVEvent@Keyboard@@@std@@YA$$QAVEvent@Keyboard@@AAV12@@Z
	mov	eax, DWORD PTR fs:0
	push	eax
	sub	esp, 192				; 000000c0H
	push	ebx
	push	esi
	push	edi
	lea	edi, DWORD PTR [ebp-204]
	mov	ecx, 48					; 00000030H
	mov	eax, -858993460				; ccccccccH
	rep stosd
	mov	eax, DWORD PTR ___security_cookie
	xor	eax, ebp
	push	eax
	lea	eax, DWORD PTR __$EHRec$[ebp]
	mov	DWORD PTR fs:0, eax
	mov	ecx, OFFSET __85A9AA98_type_traits
	call	@__CheckForDebuggerJustMyCode@4
; Line 1467
	mov	eax, DWORD PTR __Arg$[ebp]
; Line 1468
	mov	ecx, DWORD PTR __$EHRec$[ebp]
	mov	DWORD PTR fs:0, ecx
	pop	ecx
	pop	edi
	pop	esi
	pop	ebx
	add	esp, 204				; 000000ccH
	cmp	ebp, esp
	call	__RTC_CheckEsp
	mov	esp, ebp
	pop	ebp
	ret	0
	int	3
	int	3
	int	3
	int	3
	int	3
_TEXT	ENDS
;	COMDAT text$x
text$x	SEGMENT
__ehhandler$??$move@AAVEvent@Keyboard@@@std@@YA$$QAVEvent@Keyboard@@AAV12@@Z:
	npad	1
	npad	1
	mov	edx, DWORD PTR [esp+8]
	lea	eax, DWORD PTR [edx+12]
	mov	ecx, DWORD PTR [edx-208]
	xor	ecx, eax
	call	@__security_check_cookie@4
	mov	eax, OFFSET __ehfuncinfo$??$move@AAVEvent@Keyboard@@@std@@YA$$QAVEvent@Keyboard@@AAV12@@Z
	jmp	___CxxFrameHandler3
text$x	ENDS
??$move@AAVEvent@Keyboard@@@std@@YA$$QAVEvent@Keyboard@@AAV12@@Z ENDP ; std::move<Keyboard::Event &>
; Function compile flags: /Odtp /RTCsu /ZI
;	COMDAT ??$_Alloc_proxy@V?$allocator@U_Container_proxy@std@@@std@@@_Container_base12@std@@QAEX$$QAV?$allocator@U_Container_proxy@std@@@1@@Z
_TEXT	SEGMENT
$T1 = -224						; size = 4
__New_proxy$ = -20					; size = 4
_this$ = -8						; size = 4
__Al$ = 8						; size = 4
??$_Alloc_proxy@V?$allocator@U_Container_proxy@std@@@std@@@_Container_base12@std@@QAEX$$QAV?$allocator@U_Container_proxy@std@@@1@@Z PROC ; std::_Container_base12::_Alloc_proxy<std::allocator<std::_Container_proxy> >, COMDAT
; _this$ = ecx
; File C:\Program Files (x86)\Microsoft Visual Studio\2019\Community\VC\Tools\MSVC\14.27.29110\include\xmemory
; Line 1101
	push	ebp
	mov	ebp, esp
	sub	esp, 228				; 000000e4H
	push	ebx
	push	esi
	push	edi
	push	ecx
	lea	edi, DWORD PTR [ebp-228]
	mov	ecx, 57					; 00000039H
	mov	eax, -858993460				; ccccccccH
	rep stosd
	pop	ecx
	mov	DWORD PTR _this$[ebp], ecx
	mov	ecx, OFFSET __A58979FC_xmemory
	call	@__CheckForDebuggerJustMyCode@4
; Line 1102
	push	1
	mov	ecx, DWORD PTR __Al$[ebp]
	call	?allocate@?$allocator@U_Container_proxy@std@@@std@@QAEPAU_Container_proxy@2@I@Z ; std::allocator<std::_Container_proxy>::allocate
	push	eax
	call	??$_Unfancy@U_Container_proxy@std@@@std@@YAPAU_Container_proxy@0@PAU10@@Z ; std::_Unfancy<std::_Container_proxy>
	add	esp, 4
	mov	DWORD PTR __New_proxy$[ebp], eax
; Line 1103
	mov	eax, DWORD PTR _this$[ebp]
	mov	DWORD PTR $T1[ebp], eax
	lea	ecx, DWORD PTR $T1[ebp]
	push	ecx
	mov	edx, DWORD PTR __New_proxy$[ebp]
	push	edx
	call	??$_Construct_in_place@U_Container_proxy@std@@PAU_Container_base12@2@@std@@YAXAAU_Container_proxy@0@$$QAPAU_Container_base12@0@@Z ; std::_Construct_in_place<std::_Container_proxy,std::_Container_base12 *>
	add	esp, 8
; Line 1104
	mov	eax, DWORD PTR _this$[ebp]
	mov	ecx, DWORD PTR __New_proxy$[ebp]
	mov	DWORD PTR [eax], ecx
; Line 1105
	mov	eax, DWORD PTR __New_proxy$[ebp]
	mov	ecx, DWORD PTR _this$[ebp]
	mov	DWORD PTR [eax], ecx
; Line 1106
	pop	edi
	pop	esi
	pop	ebx
	add	esp, 228				; 000000e4H
	cmp	ebp, esp
	call	__RTC_CheckEsp
	mov	esp, ebp
	pop	ebp
	ret	4
??$_Alloc_proxy@V?$allocator@U_Container_proxy@std@@@std@@@_Container_base12@std@@QAEX$$QAV?$allocator@U_Container_proxy@std@@@1@@Z ENDP ; std::_Container_base12::_Alloc_proxy<std::allocator<std::_Container_proxy> >
_TEXT	ENDS
; Function compile flags: /Odtp /RTCsu /ZI
;	COMDAT ??$?0$$V@?$_Compressed_pair@V?$allocator@D@std@@V?$_Deque_val@U?$_Deque_simple_types@D@std@@@2@$00@std@@QAE@U_Zero_then_variadic_args_t@1@@Z
_TEXT	SEGMENT
_this$ = -20						; size = 4
__$EHRec$ = -12						; size = 12
___formal$ = 8						; size = 1
??$?0$$V@?$_Compressed_pair@V?$allocator@D@std@@V?$_Deque_val@U?$_Deque_simple_types@D@std@@@2@$00@std@@QAE@U_Zero_then_variadic_args_t@1@@Z PROC ; std::_Compressed_pair<std::allocator<char>,std::_Deque_val<std::_Deque_simple_types<char> >,1>::_Compressed_pair<std::allocator<char>,std::_Deque_val<std::_Deque_simple_types<char> >,1><>, COMDAT
; _this$ = ecx
; File C:\Program Files (x86)\Microsoft Visual Studio\2019\Community\VC\Tools\MSVC\14.27.29110\include\xmemory
; Line 1336
	push	ebp
	mov	ebp, esp
	push	-1
	push	__ehhandler$??$?0$$V@?$_Compressed_pair@V?$allocator@D@std@@V?$_Deque_val@U?$_Deque_simple_types@D@std@@@2@$00@std@@QAE@U_Zero_then_variadic_args_t@1@@Z
	mov	eax, DWORD PTR fs:0
	push	eax
	sub	esp, 204				; 000000ccH
	push	ebx
	push	esi
	push	edi
	push	ecx
	lea	edi, DWORD PTR [ebp-216]
	mov	ecx, 51					; 00000033H
	mov	eax, -858993460				; ccccccccH
	rep stosd
	pop	ecx
	mov	eax, DWORD PTR ___security_cookie
	xor	eax, ebp
	push	eax
	lea	eax, DWORD PTR __$EHRec$[ebp]
	mov	DWORD PTR fs:0, eax
	mov	DWORD PTR _this$[ebp], ecx
	mov	ecx, OFFSET __A58979FC_xmemory
	call	@__CheckForDebuggerJustMyCode@4
	mov	ecx, DWORD PTR _this$[ebp]
	call	??0?$allocator@D@std@@QAE@XZ		; std::allocator<char>::allocator<char>
	mov	ecx, DWORD PTR _this$[ebp]
	call	??0?$_Deque_val@U?$_Deque_simple_types@D@std@@@std@@QAE@XZ ; std::_Deque_val<std::_Deque_simple_types<char> >::_Deque_val<std::_Deque_simple_types<char> >
	mov	eax, DWORD PTR _this$[ebp]
	mov	ecx, DWORD PTR __$EHRec$[ebp]
	mov	DWORD PTR fs:0, ecx
	pop	ecx
	pop	edi
	pop	esi
	pop	ebx
	add	esp, 216				; 000000d8H
	cmp	ebp, esp
	call	__RTC_CheckEsp
	mov	esp, ebp
	pop	ebp
	ret	4
	int	3
	int	3
	int	3
	int	3
	int	3
_TEXT	ENDS
;	COMDAT text$x
text$x	SEGMENT
__ehhandler$??$?0$$V@?$_Compressed_pair@V?$allocator@D@std@@V?$_Deque_val@U?$_Deque_simple_types@D@std@@@2@$00@std@@QAE@U_Zero_then_variadic_args_t@1@@Z:
	npad	1
	npad	1
	mov	edx, DWORD PTR [esp+8]
	lea	eax, DWORD PTR [edx+12]
	mov	ecx, DWORD PTR [edx-220]
	xor	ecx, eax
	call	@__security_check_cookie@4
	mov	eax, OFFSET __ehfuncinfo$??$?0$$V@?$_Compressed_pair@V?$allocator@D@std@@V?$_Deque_val@U?$_Deque_simple_types@D@std@@@2@$00@std@@QAE@U_Zero_then_variadic_args_t@1@@Z
	jmp	___CxxFrameHandler3
text$x	ENDS
??$?0$$V@?$_Compressed_pair@V?$allocator@D@std@@V?$_Deque_val@U?$_Deque_simple_types@D@std@@@2@$00@std@@QAE@U_Zero_then_variadic_args_t@1@@Z ENDP ; std::_Compressed_pair<std::allocator<char>,std::_Deque_val<std::_Deque_simple_types<char> >,1>::_Compressed_pair<std::allocator<char>,std::_Deque_val<std::_Deque_simple_types<char> >,1><>
; Function compile flags: /Odtp /RTCsu /ZI
;	COMDAT ??$addressof@V?$deque@DV?$allocator@D@std@@@std@@@std@@YAPAV?$deque@DV?$allocator@D@std@@@0@AAV10@@Z
_TEXT	SEGMENT
__$EHRec$ = -12						; size = 12
__Val$ = 8						; size = 4
??$addressof@V?$deque@DV?$allocator@D@std@@@std@@@std@@YAPAV?$deque@DV?$allocator@D@std@@@0@AAV10@@Z PROC ; std::addressof<std::deque<char,std::allocator<char> > >, COMDAT
; File C:\Program Files (x86)\Microsoft Visual Studio\2019\Community\VC\Tools\MSVC\14.27.29110\include\xstddef
; Line 274
	push	ebp
	mov	ebp, esp
	push	-1
	push	__ehhandler$??$addressof@V?$deque@DV?$allocator@D@std@@@std@@@std@@YAPAV?$deque@DV?$allocator@D@std@@@0@AAV10@@Z
	mov	eax, DWORD PTR fs:0
	push	eax
	sub	esp, 192				; 000000c0H
	push	ebx
	push	esi
	push	edi
	lea	edi, DWORD PTR [ebp-204]
	mov	ecx, 48					; 00000030H
	mov	eax, -858993460				; ccccccccH
	rep stosd
	mov	eax, DWORD PTR ___security_cookie
	xor	eax, ebp
	push	eax
	lea	eax, DWORD PTR __$EHRec$[ebp]
	mov	DWORD PTR fs:0, eax
	mov	ecx, OFFSET __38038D2D_xstddef
	call	@__CheckForDebuggerJustMyCode@4
; Line 275
	mov	eax, DWORD PTR __Val$[ebp]
; Line 276
	mov	ecx, DWORD PTR __$EHRec$[ebp]
	mov	DWORD PTR fs:0, ecx
	pop	ecx
	pop	edi
	pop	esi
	pop	ebx
	add	esp, 204				; 000000ccH
	cmp	ebp, esp
	call	__RTC_CheckEsp
	mov	esp, ebp
	pop	ebp
	ret	0
	int	3
	int	3
	int	3
	int	3
	int	3
_TEXT	ENDS
;	COMDAT text$x
text$x	SEGMENT
__ehhandler$??$addressof@V?$deque@DV?$allocator@D@std@@@std@@@std@@YAPAV?$deque@DV?$allocator@D@std@@@0@AAV10@@Z:
	npad	1
	npad	1
	mov	edx, DWORD PTR [esp+8]
	lea	eax, DWORD PTR [edx+12]
	mov	ecx, DWORD PTR [edx-208]
	xor	ecx, eax
	call	@__security_check_cookie@4
	mov	eax, OFFSET __ehfuncinfo$??$addressof@V?$deque@DV?$allocator@D@std@@@std@@@std@@YAPAV?$deque@DV?$allocator@D@std@@@0@AAV10@@Z
	jmp	___CxxFrameHandler3
text$x	ENDS
??$addressof@V?$deque@DV?$allocator@D@std@@@std@@@std@@YAPAV?$deque@DV?$allocator@D@std@@@0@AAV10@@Z ENDP ; std::addressof<std::deque<char,std::allocator<char> > >
; Function compile flags: /Odtp /RTCsu /ZI
;	COMDAT ??$_Delete_plain_internal@V?$allocator@U_Container_proxy@std@@@std@@@std@@YAXAAV?$allocator@U_Container_proxy@std@@@0@QAU_Container_proxy@0@@Z
_TEXT	SEGMENT
__$EHRec$ = -12						; size = 12
__Al$ = 8						; size = 4
__Ptr$ = 12						; size = 4
??$_Delete_plain_internal@V?$allocator@U_Container_proxy@std@@@std@@@std@@YAXAAV?$allocator@U_Container_proxy@std@@@0@QAU_Container_proxy@0@@Z PROC ; std::_Delete_plain_internal<std::allocator<std::_Container_proxy> >, COMDAT
; File C:\Program Files (x86)\Microsoft Visual Studio\2019\Community\VC\Tools\MSVC\14.27.29110\include\xmemory
; Line 1026
	push	ebp
	mov	ebp, esp
	push	-1
	push	__ehhandler$??$_Delete_plain_internal@V?$allocator@U_Container_proxy@std@@@std@@@std@@YAXAAV?$allocator@U_Container_proxy@std@@@0@QAU_Container_proxy@0@@Z
	mov	eax, DWORD PTR fs:0
	push	eax
	sub	esp, 192				; 000000c0H
	push	ebx
	push	esi
	push	edi
	lea	edi, DWORD PTR [ebp-204]
	mov	ecx, 48					; 00000030H
	mov	eax, -858993460				; ccccccccH
	rep stosd
	mov	eax, DWORD PTR ___security_cookie
	xor	eax, ebp
	push	eax
	lea	eax, DWORD PTR __$EHRec$[ebp]
	mov	DWORD PTR fs:0, eax
	mov	ecx, OFFSET __A58979FC_xmemory
	call	@__CheckForDebuggerJustMyCode@4
; Line 1030
	mov	eax, DWORD PTR __Ptr$[ebp]
	push	eax
	mov	ecx, DWORD PTR __Al$[ebp]
	push	ecx
	call	??$_Deallocate_plain@V?$allocator@U_Container_proxy@std@@@std@@@std@@YAXAAV?$allocator@U_Container_proxy@std@@@0@QAU_Container_proxy@0@@Z ; std::_Deallocate_plain<std::allocator<std::_Container_proxy> >
	add	esp, 8
; Line 1031
	mov	ecx, DWORD PTR __$EHRec$[ebp]
	mov	DWORD PTR fs:0, ecx
	pop	ecx
	pop	edi
	pop	esi
	pop	ebx
	add	esp, 204				; 000000ccH
	cmp	ebp, esp
	call	__RTC_CheckEsp
	mov	esp, ebp
	pop	ebp
	ret	0
	int	3
	int	3
	int	3
	int	3
	int	3
_TEXT	ENDS
;	COMDAT text$x
text$x	SEGMENT
__ehhandler$??$_Delete_plain_internal@V?$allocator@U_Container_proxy@std@@@std@@@std@@YAXAAV?$allocator@U_Container_proxy@std@@@0@QAU_Container_proxy@0@@Z:
	npad	1
	npad	1
	mov	edx, DWORD PTR [esp+8]
	lea	eax, DWORD PTR [edx+12]
	mov	ecx, DWORD PTR [edx-208]
	xor	ecx, eax
	call	@__security_check_cookie@4
	mov	eax, OFFSET __ehfuncinfo$??$_Delete_plain_internal@V?$allocator@U_Container_proxy@std@@@std@@@std@@YAXAAV?$allocator@U_Container_proxy@std@@@0@QAU_Container_proxy@0@@Z
	jmp	___CxxFrameHandler3
text$x	ENDS
??$_Delete_plain_internal@V?$allocator@U_Container_proxy@std@@@std@@@std@@YAXAAV?$allocator@U_Container_proxy@std@@@0@QAU_Container_proxy@0@@Z ENDP ; std::_Delete_plain_internal<std::allocator<std::_Container_proxy> >
; Function compile flags: /Odtp /RTCsu /ZI
;	COMDAT ??$exchange@PAU_Container_proxy@std@@$$T@std@@YAPAU_Container_proxy@0@AAPAU10@$$QA$$T@Z
_TEXT	SEGMENT
__Old_val$ = -20					; size = 4
__$EHRec$ = -12						; size = 12
__Val$ = 8						; size = 4
__New_val$ = 12						; size = 4
??$exchange@PAU_Container_proxy@std@@$$T@std@@YAPAU_Container_proxy@0@AAPAU10@$$QA$$T@Z PROC ; std::exchange<std::_Container_proxy *,std::nullptr_t>, COMDAT
; File C:\Program Files (x86)\Microsoft Visual Studio\2019\Community\VC\Tools\MSVC\14.27.29110\include\utility
; Line 597
	push	ebp
	mov	ebp, esp
	push	-1
	push	__ehhandler$??$exchange@PAU_Container_proxy@std@@$$T@std@@YAPAU_Container_proxy@0@AAPAU10@$$QA$$T@Z
	mov	eax, DWORD PTR fs:0
	push	eax
	sub	esp, 204				; 000000ccH
	push	ebx
	push	esi
	push	edi
	lea	edi, DWORD PTR [ebp-216]
	mov	ecx, 51					; 00000033H
	mov	eax, -858993460				; ccccccccH
	rep stosd
	mov	eax, DWORD PTR ___security_cookie
	xor	eax, ebp
	push	eax
	lea	eax, DWORD PTR __$EHRec$[ebp]
	mov	DWORD PTR fs:0, eax
	mov	ecx, OFFSET __CF1C1A3F_utility
	call	@__CheckForDebuggerJustMyCode@4
; Line 599
	mov	eax, DWORD PTR __Val$[ebp]
	mov	ecx, DWORD PTR [eax]
	mov	DWORD PTR __Old_val$[ebp], ecx
; Line 600
	mov	eax, DWORD PTR __Val$[ebp]
	mov	ecx, DWORD PTR __New_val$[ebp]
	mov	edx, DWORD PTR [ecx]
	mov	DWORD PTR [eax], edx
; Line 601
	mov	eax, DWORD PTR __Old_val$[ebp]
; Line 602
	mov	ecx, DWORD PTR __$EHRec$[ebp]
	mov	DWORD PTR fs:0, ecx
	pop	ecx
	pop	edi
	pop	esi
	pop	ebx
	add	esp, 216				; 000000d8H
	cmp	ebp, esp
	call	__RTC_CheckEsp
	mov	esp, ebp
	pop	ebp
	ret	0
	int	3
	int	3
	int	3
	int	3
	int	3
_TEXT	ENDS
;	COMDAT text$x
text$x	SEGMENT
__ehhandler$??$exchange@PAU_Container_proxy@std@@$$T@std@@YAPAU_Container_proxy@0@AAPAU10@$$QA$$T@Z:
	npad	1
	npad	1
	mov	edx, DWORD PTR [esp+8]
	lea	eax, DWORD PTR [edx+12]
	mov	ecx, DWORD PTR [edx-220]
	xor	ecx, eax
	call	@__security_check_cookie@4
	mov	eax, OFFSET __ehfuncinfo$??$exchange@PAU_Container_proxy@std@@$$T@std@@YAPAU_Container_proxy@0@AAPAU10@$$QA$$T@Z
	jmp	___CxxFrameHandler3
text$x	ENDS
??$exchange@PAU_Container_proxy@std@@$$T@std@@YAPAU_Container_proxy@0@AAPAU10@$$QA$$T@Z ENDP ; std::exchange<std::_Container_proxy *,std::nullptr_t>
; Function compile flags: /Odtp /RTCsu /ZI
;	COMDAT ??$?0D@?$allocator@U_Container_proxy@std@@@std@@QAE@ABV?$allocator@D@1@@Z
_TEXT	SEGMENT
_this$ = -20						; size = 4
__$EHRec$ = -12						; size = 12
___formal$ = 8						; size = 4
??$?0D@?$allocator@U_Container_proxy@std@@@std@@QAE@ABV?$allocator@D@1@@Z PROC ; std::allocator<std::_Container_proxy>::allocator<std::_Container_proxy><char>, COMDAT
; _this$ = ecx
; File C:\Program Files (x86)\Microsoft Visual Studio\2019\Community\VC\Tools\MSVC\14.27.29110\include\xmemory
; Line 799
	push	ebp
	mov	ebp, esp
	push	-1
	push	__ehhandler$??$?0D@?$allocator@U_Container_proxy@std@@@std@@QAE@ABV?$allocator@D@1@@Z
	mov	eax, DWORD PTR fs:0
	push	eax
	sub	esp, 204				; 000000ccH
	push	ebx
	push	esi
	push	edi
	push	ecx
	lea	edi, DWORD PTR [ebp-216]
	mov	ecx, 51					; 00000033H
	mov	eax, -858993460				; ccccccccH
	rep stosd
	pop	ecx
	mov	eax, DWORD PTR ___security_cookie
	xor	eax, ebp
	push	eax
	lea	eax, DWORD PTR __$EHRec$[ebp]
	mov	DWORD PTR fs:0, eax
	mov	DWORD PTR _this$[ebp], ecx
	mov	ecx, OFFSET __A58979FC_xmemory
	call	@__CheckForDebuggerJustMyCode@4
	mov	eax, DWORD PTR _this$[ebp]
	mov	ecx, DWORD PTR __$EHRec$[ebp]
	mov	DWORD PTR fs:0, ecx
	pop	ecx
	pop	edi
	pop	esi
	pop	ebx
	add	esp, 216				; 000000d8H
	cmp	ebp, esp
	call	__RTC_CheckEsp
	mov	esp, ebp
	pop	ebp
	ret	4
	int	3
	int	3
	int	3
	int	3
	int	3
_TEXT	ENDS
;	COMDAT text$x
text$x	SEGMENT
__ehhandler$??$?0D@?$allocator@U_Container_proxy@std@@@std@@QAE@ABV?$allocator@D@1@@Z:
	npad	1
	npad	1
	mov	edx, DWORD PTR [esp+8]
	lea	eax, DWORD PTR [edx+12]
	mov	ecx, DWORD PTR [edx-220]
	xor	ecx, eax
	call	@__security_check_cookie@4
	mov	eax, OFFSET __ehfuncinfo$??$?0D@?$allocator@U_Container_proxy@std@@@std@@QAE@ABV?$allocator@D@1@@Z
	jmp	___CxxFrameHandler3
text$x	ENDS
??$?0D@?$allocator@U_Container_proxy@std@@@std@@QAE@ABV?$allocator@D@1@@Z ENDP ; std::allocator<std::_Container_proxy>::allocator<std::_Container_proxy><char>
; Function compile flags: /Odtp /RTCsu /ZI
;	COMDAT ?allocate@?$allocator@U_Container_proxy@std@@@std@@QAEPAU_Container_proxy@2@I@Z
_TEXT	SEGMENT
_this$ = -8						; size = 4
__Count$ = 8						; size = 4
?allocate@?$allocator@U_Container_proxy@std@@@std@@QAEPAU_Container_proxy@2@I@Z PROC ; std::allocator<std::_Container_proxy>::allocate, COMDAT
; _this$ = ecx
; File C:\Program Files (x86)\Microsoft Visual Studio\2019\Community\VC\Tools\MSVC\14.27.29110\include\xmemory
; Line 806
	push	ebp
	mov	ebp, esp
	sub	esp, 204				; 000000ccH
	push	ebx
	push	esi
	push	edi
	push	ecx
	lea	edi, DWORD PTR [ebp-204]
	mov	ecx, 51					; 00000033H
	mov	eax, -858993460				; ccccccccH
	rep stosd
	pop	ecx
	mov	DWORD PTR _this$[ebp], ecx
	mov	ecx, OFFSET __A58979FC_xmemory
	call	@__CheckForDebuggerJustMyCode@4
; Line 807
	mov	eax, DWORD PTR __Count$[ebp]
	push	eax
	call	??$_Get_size_of_n@$07@std@@YAII@Z	; std::_Get_size_of_n<8>
	add	esp, 4
	push	eax
	call	??$_Allocate@$07U_Default_allocate_traits@std@@$0A@@std@@YAPAXI@Z ; std::_Allocate<8,std::_Default_allocate_traits,0>
	add	esp, 4
; Line 808
	pop	edi
	pop	esi
	pop	ebx
	add	esp, 204				; 000000ccH
	cmp	ebp, esp
	call	__RTC_CheckEsp
	mov	esp, ebp
	pop	ebp
	ret	4
?allocate@?$allocator@U_Container_proxy@std@@@std@@QAEPAU_Container_proxy@2@I@Z ENDP ; std::allocator<std::_Container_proxy>::allocate
_TEXT	ENDS
; Function compile flags: /Odtp /RTCsu /ZI
;	COMDAT ??$TrimBuffer@D@Keyboard@@CAXAAV?$queue@DV?$deque@DV?$allocator@D@std@@@std@@@std@@@Z
_TEXT	SEGMENT
__$EHRec$ = -12						; size = 12
_buffer$ = 8						; size = 4
??$TrimBuffer@D@Keyboard@@CAXAAV?$queue@DV?$deque@DV?$allocator@D@std@@@std@@@std@@@Z PROC ; Keyboard::TrimBuffer<char>, COMDAT
; File F:\WindowSandbox\WindowSandbox\src\Keyboard.cpp
; Line 80
	push	ebp
	mov	ebp, esp
	push	-1
	push	__ehhandler$??$TrimBuffer@D@Keyboard@@CAXAAV?$queue@DV?$deque@DV?$allocator@D@std@@@std@@@std@@@Z
	mov	eax, DWORD PTR fs:0
	push	eax
	sub	esp, 192				; 000000c0H
	push	ebx
	push	esi
	push	edi
	lea	edi, DWORD PTR [ebp-204]
	mov	ecx, 48					; 00000030H
	mov	eax, -858993460				; ccccccccH
	rep stosd
	mov	eax, DWORD PTR ___security_cookie
	xor	eax, ebp
	push	eax
	lea	eax, DWORD PTR __$EHRec$[ebp]
	mov	DWORD PTR fs:0, eax
	mov	ecx, OFFSET __BDCF1AB3_Keyboard@cpp
	call	@__CheckForDebuggerJustMyCode@4
$LN2@TrimBuffer:
; Line 81
	mov	ecx, DWORD PTR _buffer$[ebp]
	call	?size@?$queue@DV?$deque@DV?$allocator@D@std@@@std@@@std@@QBEIXZ ; std::queue<char,std::deque<char,std::allocator<char> > >::size
	cmp	eax, 16					; 00000010H
	jbe	SHORT $LN4@TrimBuffer
; Line 82
	mov	ecx, DWORD PTR _buffer$[ebp]
	call	?pop@?$queue@DV?$deque@DV?$allocator@D@std@@@std@@@std@@QAEXXZ ; std::queue<char,std::deque<char,std::allocator<char> > >::pop
; Line 83
	jmp	SHORT $LN2@TrimBuffer
$LN4@TrimBuffer:
; Line 84
	mov	ecx, DWORD PTR __$EHRec$[ebp]
	mov	DWORD PTR fs:0, ecx
	pop	ecx
	pop	edi
	pop	esi
	pop	ebx
	add	esp, 204				; 000000ccH
	cmp	ebp, esp
	call	__RTC_CheckEsp
	mov	esp, ebp
	pop	ebp
	ret	0
	int	3
	int	3
	int	3
	int	3
	int	3
_TEXT	ENDS
;	COMDAT text$x
text$x	SEGMENT
__ehhandler$??$TrimBuffer@D@Keyboard@@CAXAAV?$queue@DV?$deque@DV?$allocator@D@std@@@std@@@std@@@Z:
	npad	1
	npad	1
	mov	edx, DWORD PTR [esp+8]
	lea	eax, DWORD PTR [edx+12]
	mov	ecx, DWORD PTR [edx-208]
	xor	ecx, eax
	call	@__security_check_cookie@4
	mov	eax, OFFSET __ehfuncinfo$??$TrimBuffer@D@Keyboard@@CAXAAV?$queue@DV?$deque@DV?$allocator@D@std@@@std@@@std@@@Z
	jmp	___CxxFrameHandler3
text$x	ENDS
??$TrimBuffer@D@Keyboard@@CAXAAV?$queue@DV?$deque@DV?$allocator@D@std@@@std@@@std@@@Z ENDP ; Keyboard::TrimBuffer<char>
; Function compile flags: /Odtp /RTCsu /ZI
;	COMDAT ??$TrimBuffer@VEvent@Keyboard@@@Keyboard@@CAXAAV?$queue@VEvent@Keyboard@@V?$deque@VEvent@Keyboard@@V?$allocator@VEvent@Keyboard@@@std@@@std@@@std@@@Z
_TEXT	SEGMENT
__$EHRec$ = -12						; size = 12
_buffer$ = 8						; size = 4
??$TrimBuffer@VEvent@Keyboard@@@Keyboard@@CAXAAV?$queue@VEvent@Keyboard@@V?$deque@VEvent@Keyboard@@V?$allocator@VEvent@Keyboard@@@std@@@std@@@std@@@Z PROC ; Keyboard::TrimBuffer<Keyboard::Event>, COMDAT
; File F:\WindowSandbox\WindowSandbox\src\Keyboard.cpp
; Line 80
	push	ebp
	mov	ebp, esp
	push	-1
	push	__ehhandler$??$TrimBuffer@VEvent@Keyboard@@@Keyboard@@CAXAAV?$queue@VEvent@Keyboard@@V?$deque@VEvent@Keyboard@@V?$allocator@VEvent@Keyboard@@@std@@@std@@@std@@@Z
	mov	eax, DWORD PTR fs:0
	push	eax
	sub	esp, 192				; 000000c0H
	push	ebx
	push	esi
	push	edi
	lea	edi, DWORD PTR [ebp-204]
	mov	ecx, 48					; 00000030H
	mov	eax, -858993460				; ccccccccH
	rep stosd
	mov	eax, DWORD PTR ___security_cookie
	xor	eax, ebp
	push	eax
	lea	eax, DWORD PTR __$EHRec$[ebp]
	mov	DWORD PTR fs:0, eax
	mov	ecx, OFFSET __BDCF1AB3_Keyboard@cpp
	call	@__CheckForDebuggerJustMyCode@4
$LN2@TrimBuffer:
; Line 81
	mov	ecx, DWORD PTR _buffer$[ebp]
	call	?size@?$queue@VEvent@Keyboard@@V?$deque@VEvent@Keyboard@@V?$allocator@VEvent@Keyboard@@@std@@@std@@@std@@QBEIXZ ; std::queue<Keyboard::Event,std::deque<Keyboard::Event,std::allocator<Keyboard::Event> > >::size
	cmp	eax, 16					; 00000010H
	jbe	SHORT $LN4@TrimBuffer
; Line 82
	mov	ecx, DWORD PTR _buffer$[ebp]
	call	?pop@?$queue@VEvent@Keyboard@@V?$deque@VEvent@Keyboard@@V?$allocator@VEvent@Keyboard@@@std@@@std@@@std@@QAEXXZ ; std::queue<Keyboard::Event,std::deque<Keyboard::Event,std::allocator<Keyboard::Event> > >::pop
; Line 83
	jmp	SHORT $LN2@TrimBuffer
$LN4@TrimBuffer:
; Line 84
	mov	ecx, DWORD PTR __$EHRec$[ebp]
	mov	DWORD PTR fs:0, ecx
	pop	ecx
	pop	edi
	pop	esi
	pop	ebx
	add	esp, 204				; 000000ccH
	cmp	ebp, esp
	call	__RTC_CheckEsp
	mov	esp, ebp
	pop	ebp
	ret	0
	int	3
	int	3
	int	3
	int	3
	int	3
_TEXT	ENDS
;	COMDAT text$x
text$x	SEGMENT
__ehhandler$??$TrimBuffer@VEvent@Keyboard@@@Keyboard@@CAXAAV?$queue@VEvent@Keyboard@@V?$deque@VEvent@Keyboard@@V?$allocator@VEvent@Keyboard@@@std@@@std@@@std@@@Z:
	npad	1
	npad	1
	mov	edx, DWORD PTR [esp+8]
	lea	eax, DWORD PTR [edx+12]
	mov	ecx, DWORD PTR [edx-208]
	xor	ecx, eax
	call	@__security_check_cookie@4
	mov	eax, OFFSET __ehfuncinfo$??$TrimBuffer@VEvent@Keyboard@@@Keyboard@@CAXAAV?$queue@VEvent@Keyboard@@V?$deque@VEvent@Keyboard@@V?$allocator@VEvent@Keyboard@@@std@@@std@@@std@@@Z
	jmp	___CxxFrameHandler3
text$x	ENDS
??$TrimBuffer@VEvent@Keyboard@@@Keyboard@@CAXAAV?$queue@VEvent@Keyboard@@V?$deque@VEvent@Keyboard@@V?$allocator@VEvent@Keyboard@@@std@@@std@@@std@@@Z ENDP ; Keyboard::TrimBuffer<Keyboard::Event>
; Function compile flags: /Odtp /RTCsu /ZI
;	COMDAT ??0reference@?$bitset@$0BAA@@std@@AAE@AAV12@I@Z
_TEXT	SEGMENT
_this$ = -8						; size = 4
__Bitset$ = 8						; size = 4
__Pos$ = 12						; size = 4
??0reference@?$bitset@$0BAA@@std@@AAE@AAV12@I@Z PROC	; std::bitset<256>::reference::reference, COMDAT
; _this$ = ecx
; File C:\Program Files (x86)\Microsoft Visual Studio\2019\Community\VC\Tools\MSVC\14.27.29110\include\bitset
; Line 64
	push	ebp
	mov	ebp, esp
	sub	esp, 204				; 000000ccH
	push	ebx
	push	esi
	push	edi
	push	ecx
	lea	edi, DWORD PTR [ebp-204]
	mov	ecx, 51					; 00000033H
	mov	eax, -858993460				; ccccccccH
	rep stosd
	pop	ecx
	mov	DWORD PTR _this$[ebp], ecx
	mov	ecx, OFFSET __3990E35C_bitset
	call	@__CheckForDebuggerJustMyCode@4
	mov	eax, DWORD PTR _this$[ebp]
	mov	ecx, DWORD PTR __Bitset$[ebp]
	mov	DWORD PTR [eax], ecx
	mov	eax, DWORD PTR _this$[ebp]
	mov	ecx, DWORD PTR __Pos$[ebp]
	mov	DWORD PTR [eax+4], ecx
	mov	eax, DWORD PTR _this$[ebp]
	pop	edi
	pop	esi
	pop	ebx
	add	esp, 204				; 000000ccH
	cmp	ebp, esp
	call	__RTC_CheckEsp
	mov	esp, ebp
	pop	ebp
	ret	8
??0reference@?$bitset@$0BAA@@std@@AAE@AAV12@I@Z ENDP	; std::bitset<256>::reference::reference
_TEXT	ENDS
; Function compile flags: /Odtp /RTCsu /ZI
;	COMDAT ??4reference@?$bitset@$0BAA@@std@@QAEAAV012@_N@Z
_TEXT	SEGMENT
_this$ = -20						; size = 4
__$EHRec$ = -12						; size = 12
__Val$ = 8						; size = 1
??4reference@?$bitset@$0BAA@@std@@QAEAAV012@_N@Z PROC	; std::bitset<256>::reference::operator=, COMDAT
; _this$ = ecx
; File C:\Program Files (x86)\Microsoft Visual Studio\2019\Community\VC\Tools\MSVC\14.27.29110\include\bitset
; Line 38
	push	ebp
	mov	ebp, esp
	push	-1
	push	__ehhandler$??4reference@?$bitset@$0BAA@@std@@QAEAAV012@_N@Z
	mov	eax, DWORD PTR fs:0
	push	eax
	sub	esp, 204				; 000000ccH
	push	ebx
	push	esi
	push	edi
	push	ecx
	lea	edi, DWORD PTR [ebp-216]
	mov	ecx, 51					; 00000033H
	mov	eax, -858993460				; ccccccccH
	rep stosd
	pop	ecx
	mov	eax, DWORD PTR ___security_cookie
	xor	eax, ebp
	push	eax
	lea	eax, DWORD PTR __$EHRec$[ebp]
	mov	DWORD PTR fs:0, eax
	mov	DWORD PTR _this$[ebp], ecx
	mov	ecx, OFFSET __3990E35C_bitset
	call	@__CheckForDebuggerJustMyCode@4
; Line 39
	movzx	eax, BYTE PTR __Val$[ebp]
	push	eax
	mov	ecx, DWORD PTR _this$[ebp]
	mov	edx, DWORD PTR [ecx+4]
	push	edx
	mov	eax, DWORD PTR _this$[ebp]
	mov	ecx, DWORD PTR [eax]
	call	?_Set_unchecked@?$bitset@$0BAA@@std@@AAEAAV12@I_N@Z ; std::bitset<256>::_Set_unchecked
; Line 40
	mov	eax, DWORD PTR _this$[ebp]
; Line 41
	mov	ecx, DWORD PTR __$EHRec$[ebp]
	mov	DWORD PTR fs:0, ecx
	pop	ecx
	pop	edi
	pop	esi
	pop	ebx
	add	esp, 216				; 000000d8H
	cmp	ebp, esp
	call	__RTC_CheckEsp
	mov	esp, ebp
	pop	ebp
	ret	4
	int	3
	int	3
	int	3
	int	3
	int	3
_TEXT	ENDS
;	COMDAT text$x
text$x	SEGMENT
__ehhandler$??4reference@?$bitset@$0BAA@@std@@QAEAAV012@_N@Z:
	npad	1
	npad	1
	mov	edx, DWORD PTR [esp+8]
	lea	eax, DWORD PTR [edx+12]
	mov	ecx, DWORD PTR [edx-220]
	xor	ecx, eax
	call	@__security_check_cookie@4
	mov	eax, OFFSET __ehfuncinfo$??4reference@?$bitset@$0BAA@@std@@QAEAAV012@_N@Z
	jmp	___CxxFrameHandler3
text$x	ENDS
??4reference@?$bitset@$0BAA@@std@@QAEAAV012@_N@Z ENDP	; std::bitset<256>::reference::operator=
; Function compile flags: /Odtp /RTCsu /ZI
;	COMDAT ??1reference@?$bitset@$0BAA@@std@@QAE@XZ
_TEXT	SEGMENT
_this$ = -20						; size = 4
__$EHRec$ = -12						; size = 12
??1reference@?$bitset@$0BAA@@std@@QAE@XZ PROC		; std::bitset<256>::reference::~reference, COMDAT
; _this$ = ecx
; File C:\Program Files (x86)\Microsoft Visual Studio\2019\Community\VC\Tools\MSVC\14.27.29110\include\bitset
; Line 36
	push	ebp
	mov	ebp, esp
	push	-1
	push	__ehhandler$??1reference@?$bitset@$0BAA@@std@@QAE@XZ
	mov	eax, DWORD PTR fs:0
	push	eax
	sub	esp, 204				; 000000ccH
	push	ebx
	push	esi
	push	edi
	push	ecx
	lea	edi, DWORD PTR [ebp-216]
	mov	ecx, 51					; 00000033H
	mov	eax, -858993460				; ccccccccH
	rep stosd
	pop	ecx
	mov	eax, DWORD PTR ___security_cookie
	xor	eax, ebp
	push	eax
	lea	eax, DWORD PTR __$EHRec$[ebp]
	mov	DWORD PTR fs:0, eax
	mov	DWORD PTR _this$[ebp], ecx
	mov	ecx, OFFSET __3990E35C_bitset
	call	@__CheckForDebuggerJustMyCode@4
	mov	ecx, DWORD PTR __$EHRec$[ebp]
	mov	DWORD PTR fs:0, ecx
	pop	ecx
	pop	edi
	pop	esi
	pop	ebx
	add	esp, 216				; 000000d8H
	cmp	ebp, esp
	call	__RTC_CheckEsp
	mov	esp, ebp
	pop	ebp
	ret	0
	int	3
	int	3
	int	3
	int	3
	int	3
_TEXT	ENDS
;	COMDAT text$x
text$x	SEGMENT
__ehhandler$??1reference@?$bitset@$0BAA@@std@@QAE@XZ:
	npad	1
	npad	1
	mov	edx, DWORD PTR [esp+8]
	lea	eax, DWORD PTR [edx+12]
	mov	ecx, DWORD PTR [edx-220]
	xor	ecx, eax
	call	@__security_check_cookie@4
	mov	eax, OFFSET __ehfuncinfo$??1reference@?$bitset@$0BAA@@std@@QAE@XZ
	jmp	___CxxFrameHandler3
text$x	ENDS
??1reference@?$bitset@$0BAA@@std@@QAE@XZ ENDP		; std::bitset<256>::reference::~reference
; Function compile flags: /Odtp /RTCsu /ZI
;	COMDAT ??4?$queue@DV?$deque@DV?$allocator@D@std@@@std@@@std@@QAEAAV01@$$QAV01@@Z
_TEXT	SEGMENT
_this$ = -8						; size = 4
___that$ = 8						; size = 4
??4?$queue@DV?$deque@DV?$allocator@D@std@@@std@@@std@@QAEAAV01@$$QAV01@@Z PROC ; std::queue<char,std::deque<char,std::allocator<char> > >::operator=, COMDAT
; _this$ = ecx
	push	ebp
	mov	ebp, esp
	sub	esp, 204				; 000000ccH
	push	ebx
	push	esi
	push	edi
	push	ecx
	lea	edi, DWORD PTR [ebp-204]
	mov	ecx, 51					; 00000033H
	mov	eax, -858993460				; ccccccccH
	rep stosd
	pop	ecx
	mov	DWORD PTR _this$[ebp], ecx
	mov	eax, DWORD PTR ___that$[ebp]
	push	eax
	mov	ecx, DWORD PTR _this$[ebp]
	call	??4?$deque@DV?$allocator@D@std@@@std@@QAEAAV01@$$QAV01@@Z ; std::deque<char,std::allocator<char> >::operator=
	mov	eax, DWORD PTR _this$[ebp]
	pop	edi
	pop	esi
	pop	ebx
	add	esp, 204				; 000000ccH
	cmp	ebp, esp
	call	__RTC_CheckEsp
	mov	esp, ebp
	pop	ebp
	ret	4
??4?$queue@DV?$deque@DV?$allocator@D@std@@@std@@@std@@QAEAAV01@$$QAV01@@Z ENDP ; std::queue<char,std::deque<char,std::allocator<char> > >::operator=
_TEXT	ENDS
; Function compile flags: /Odtp /RTCsu /ZI
;	COMDAT ??1?$queue@DV?$deque@DV?$allocator@D@std@@@std@@@std@@QAE@XZ
_TEXT	SEGMENT
_this$ = -8						; size = 4
??1?$queue@DV?$deque@DV?$allocator@D@std@@@std@@@std@@QAE@XZ PROC ; std::queue<char,std::deque<char,std::allocator<char> > >::~queue<char,std::deque<char,std::allocator<char> > >, COMDAT
; _this$ = ecx
	push	ebp
	mov	ebp, esp
	sub	esp, 204				; 000000ccH
	push	ebx
	push	esi
	push	edi
	push	ecx
	lea	edi, DWORD PTR [ebp-204]
	mov	ecx, 51					; 00000033H
	mov	eax, -858993460				; ccccccccH
	rep stosd
	pop	ecx
	mov	DWORD PTR _this$[ebp], ecx
	mov	ecx, DWORD PTR _this$[ebp]
	call	??1?$deque@DV?$allocator@D@std@@@std@@QAE@XZ ; std::deque<char,std::allocator<char> >::~deque<char,std::allocator<char> >
	pop	edi
	pop	esi
	pop	ebx
	add	esp, 204				; 000000ccH
	cmp	ebp, esp
	call	__RTC_CheckEsp
	mov	esp, ebp
	pop	ebp
	ret	0
??1?$queue@DV?$deque@DV?$allocator@D@std@@@std@@@std@@QAE@XZ ENDP ; std::queue<char,std::deque<char,std::allocator<char> > >::~queue<char,std::deque<char,std::allocator<char> > >
_TEXT	ENDS
; Function compile flags: /Odtp /RTCsu /ZI
;	COMDAT ?pop@?$queue@DV?$deque@DV?$allocator@D@std@@@std@@@std@@QAEXXZ
_TEXT	SEGMENT
_this$ = -20						; size = 4
__$EHRec$ = -12						; size = 12
?pop@?$queue@DV?$deque@DV?$allocator@D@std@@@std@@@std@@QAEXXZ PROC ; std::queue<char,std::deque<char,std::allocator<char> > >::pop, COMDAT
; _this$ = ecx
; File C:\Program Files (x86)\Microsoft Visual Studio\2019\Community\VC\Tools\MSVC\14.27.29110\include\queue
; Line 136
	push	ebp
	mov	ebp, esp
	push	-1
	push	__ehhandler$?pop@?$queue@DV?$deque@DV?$allocator@D@std@@@std@@@std@@QAEXXZ
	mov	eax, DWORD PTR fs:0
	push	eax
	sub	esp, 204				; 000000ccH
	push	ebx
	push	esi
	push	edi
	push	ecx
	lea	edi, DWORD PTR [ebp-216]
	mov	ecx, 51					; 00000033H
	mov	eax, -858993460				; ccccccccH
	rep stosd
	pop	ecx
	mov	eax, DWORD PTR ___security_cookie
	xor	eax, ebp
	push	eax
	lea	eax, DWORD PTR __$EHRec$[ebp]
	mov	DWORD PTR fs:0, eax
	mov	DWORD PTR _this$[ebp], ecx
